
C:\Users\Gustavo\Documents\TCC\ADHOC\Debug\TCC.elf:     file format elf32-littlearm

Sections:
Idx Name          Size      VMA       LMA       File off  Algn
  0 .isr_vector   00000198  08000000  08000000  00010000  2**0
                  CONTENTS, ALLOC, LOAD, READONLY, DATA
  1 .text         00007af0  08000198  08000198  00010198  2**2
                  CONTENTS, ALLOC, LOAD, READONLY, CODE
  2 .rodata       0000012c  08007c88  08007c88  00017c88  2**2
                  CONTENTS, ALLOC, LOAD, READONLY, DATA
  3 .ARM          00000008  08007db4  08007db4  00017db4  2**2
                  CONTENTS, ALLOC, LOAD, READONLY, DATA
  4 .init_array   00000004  08007dbc  08007dbc  00017dbc  2**2
                  CONTENTS, ALLOC, LOAD, DATA
  5 .fini_array   00000004  08007dc0  08007dc0  00017dc0  2**2
                  CONTENTS, ALLOC, LOAD, DATA
  6 .data         0000014c  20000000  08007dc4  00020000  2**2
                  CONTENTS, ALLOC, LOAD, DATA
  7 .bss          0000aab4  20000150  08007f10  00020150  2**3
                  ALLOC
  8 ._user_heap_stack 00000600  2000ac04  08007f10  0002ac04  2**0
                  ALLOC
  9 .ARM.attributes 00000030  00000000  00000000  0002014c  2**0
                  CONTENTS, READONLY
 10 .debug_info   000345ac  00000000  00000000  0002017c  2**0
                  CONTENTS, READONLY, DEBUGGING
 11 .debug_abbrev 00007907  00000000  00000000  00054728  2**0
                  CONTENTS, READONLY, DEBUGGING
 12 .debug_loc    0000d7b1  00000000  00000000  0005c02f  2**0
                  CONTENTS, READONLY, DEBUGGING
 13 .debug_aranges 00001188  00000000  00000000  000697e0  2**3
                  CONTENTS, READONLY, DEBUGGING
 14 .debug_ranges 000015a0  00000000  00000000  0006a968  2**3
                  CONTENTS, READONLY, DEBUGGING
 15 .debug_line   0000b91f  00000000  00000000  0006bf08  2**0
                  CONTENTS, READONLY, DEBUGGING
 16 .debug_str    00005a4c  00000000  00000000  00077827  2**0
                  CONTENTS, READONLY, DEBUGGING
 17 .comment      0000007c  00000000  00000000  0007d273  2**0
                  CONTENTS, READONLY
 18 .debug_frame  00003004  00000000  00000000  0007d2f0  2**2
                  CONTENTS, READONLY, DEBUGGING

Disassembly of section .text:

08000198 <__do_global_dtors_aux>:
 8000198:	b510      	push	{r4, lr}
 800019a:	4c05      	ldr	r4, [pc, #20]	; (80001b0 <__do_global_dtors_aux+0x18>)
 800019c:	7823      	ldrb	r3, [r4, #0]
 800019e:	b933      	cbnz	r3, 80001ae <__do_global_dtors_aux+0x16>
 80001a0:	4b04      	ldr	r3, [pc, #16]	; (80001b4 <__do_global_dtors_aux+0x1c>)
 80001a2:	b113      	cbz	r3, 80001aa <__do_global_dtors_aux+0x12>
 80001a4:	4804      	ldr	r0, [pc, #16]	; (80001b8 <__do_global_dtors_aux+0x20>)
 80001a6:	f3af 8000 	nop.w
 80001aa:	2301      	movs	r3, #1
 80001ac:	7023      	strb	r3, [r4, #0]
 80001ae:	bd10      	pop	{r4, pc}
 80001b0:	20000150 	.word	0x20000150
 80001b4:	00000000 	.word	0x00000000
 80001b8:	08007c70 	.word	0x08007c70

080001bc <frame_dummy>:
 80001bc:	b508      	push	{r3, lr}
 80001be:	4b03      	ldr	r3, [pc, #12]	; (80001cc <frame_dummy+0x10>)
 80001c0:	b11b      	cbz	r3, 80001ca <frame_dummy+0xe>
 80001c2:	4903      	ldr	r1, [pc, #12]	; (80001d0 <frame_dummy+0x14>)
 80001c4:	4803      	ldr	r0, [pc, #12]	; (80001d4 <frame_dummy+0x18>)
 80001c6:	f3af 8000 	nop.w
 80001ca:	bd08      	pop	{r3, pc}
 80001cc:	00000000 	.word	0x00000000
 80001d0:	20000154 	.word	0x20000154
 80001d4:	08007c70 	.word	0x08007c70

080001d8 <strcmp>:
 80001d8:	f810 2b01 	ldrb.w	r2, [r0], #1
 80001dc:	f811 3b01 	ldrb.w	r3, [r1], #1
 80001e0:	2a01      	cmp	r2, #1
 80001e2:	bf28      	it	cs
 80001e4:	429a      	cmpcs	r2, r3
 80001e6:	d0f7      	beq.n	80001d8 <strcmp>
 80001e8:	1ad0      	subs	r0, r2, r3
 80001ea:	4770      	bx	lr

080001ec <strlen>:
 80001ec:	4603      	mov	r3, r0
 80001ee:	f813 2b01 	ldrb.w	r2, [r3], #1
 80001f2:	2a00      	cmp	r2, #0
 80001f4:	d1fb      	bne.n	80001ee <strlen+0x2>
 80001f6:	1a18      	subs	r0, r3, r0
 80001f8:	3801      	subs	r0, #1
 80001fa:	4770      	bx	lr

080001fc <__aeabi_ldivmod>:
 80001fc:	b97b      	cbnz	r3, 800021e <__aeabi_ldivmod+0x22>
 80001fe:	b972      	cbnz	r2, 800021e <__aeabi_ldivmod+0x22>
 8000200:	2900      	cmp	r1, #0
 8000202:	bfbe      	ittt	lt
 8000204:	2000      	movlt	r0, #0
 8000206:	f04f 4100 	movlt.w	r1, #2147483648	; 0x80000000
 800020a:	e006      	blt.n	800021a <__aeabi_ldivmod+0x1e>
 800020c:	bf08      	it	eq
 800020e:	2800      	cmpeq	r0, #0
 8000210:	bf1c      	itt	ne
 8000212:	f06f 4100 	mvnne.w	r1, #2147483648	; 0x80000000
 8000216:	f04f 30ff 	movne.w	r0, #4294967295
 800021a:	f000 b9c5 	b.w	80005a8 <__aeabi_idiv0>
 800021e:	f1ad 0c08 	sub.w	ip, sp, #8
 8000222:	e96d ce04 	strd	ip, lr, [sp, #-16]!
 8000226:	2900      	cmp	r1, #0
 8000228:	db09      	blt.n	800023e <__aeabi_ldivmod+0x42>
 800022a:	2b00      	cmp	r3, #0
 800022c:	db1a      	blt.n	8000264 <__aeabi_ldivmod+0x68>
 800022e:	f000 f84d 	bl	80002cc <__udivmoddi4>
 8000232:	f8dd e004 	ldr.w	lr, [sp, #4]
 8000236:	e9dd 2302 	ldrd	r2, r3, [sp, #8]
 800023a:	b004      	add	sp, #16
 800023c:	4770      	bx	lr
 800023e:	4240      	negs	r0, r0
 8000240:	eb61 0141 	sbc.w	r1, r1, r1, lsl #1
 8000244:	2b00      	cmp	r3, #0
 8000246:	db1b      	blt.n	8000280 <__aeabi_ldivmod+0x84>
 8000248:	f000 f840 	bl	80002cc <__udivmoddi4>
 800024c:	f8dd e004 	ldr.w	lr, [sp, #4]
 8000250:	e9dd 2302 	ldrd	r2, r3, [sp, #8]
 8000254:	b004      	add	sp, #16
 8000256:	4240      	negs	r0, r0
 8000258:	eb61 0141 	sbc.w	r1, r1, r1, lsl #1
 800025c:	4252      	negs	r2, r2
 800025e:	eb63 0343 	sbc.w	r3, r3, r3, lsl #1
 8000262:	4770      	bx	lr
 8000264:	4252      	negs	r2, r2
 8000266:	eb63 0343 	sbc.w	r3, r3, r3, lsl #1
 800026a:	f000 f82f 	bl	80002cc <__udivmoddi4>
 800026e:	f8dd e004 	ldr.w	lr, [sp, #4]
 8000272:	e9dd 2302 	ldrd	r2, r3, [sp, #8]
 8000276:	b004      	add	sp, #16
 8000278:	4240      	negs	r0, r0
 800027a:	eb61 0141 	sbc.w	r1, r1, r1, lsl #1
 800027e:	4770      	bx	lr
 8000280:	4252      	negs	r2, r2
 8000282:	eb63 0343 	sbc.w	r3, r3, r3, lsl #1
 8000286:	f000 f821 	bl	80002cc <__udivmoddi4>
 800028a:	f8dd e004 	ldr.w	lr, [sp, #4]
 800028e:	e9dd 2302 	ldrd	r2, r3, [sp, #8]
 8000292:	b004      	add	sp, #16
 8000294:	4252      	negs	r2, r2
 8000296:	eb63 0343 	sbc.w	r3, r3, r3, lsl #1
 800029a:	4770      	bx	lr

0800029c <__aeabi_uldivmod>:
 800029c:	b953      	cbnz	r3, 80002b4 <__aeabi_uldivmod+0x18>
 800029e:	b94a      	cbnz	r2, 80002b4 <__aeabi_uldivmod+0x18>
 80002a0:	2900      	cmp	r1, #0
 80002a2:	bf08      	it	eq
 80002a4:	2800      	cmpeq	r0, #0
 80002a6:	bf1c      	itt	ne
 80002a8:	f04f 31ff 	movne.w	r1, #4294967295
 80002ac:	f04f 30ff 	movne.w	r0, #4294967295
 80002b0:	f000 b97a 	b.w	80005a8 <__aeabi_idiv0>
 80002b4:	f1ad 0c08 	sub.w	ip, sp, #8
 80002b8:	e96d ce04 	strd	ip, lr, [sp, #-16]!
 80002bc:	f000 f806 	bl	80002cc <__udivmoddi4>
 80002c0:	f8dd e004 	ldr.w	lr, [sp, #4]
 80002c4:	e9dd 2302 	ldrd	r2, r3, [sp, #8]
 80002c8:	b004      	add	sp, #16
 80002ca:	4770      	bx	lr

080002cc <__udivmoddi4>:
 80002cc:	e92d 47f0 	stmdb	sp!, {r4, r5, r6, r7, r8, r9, sl, lr}
 80002d0:	468c      	mov	ip, r1
 80002d2:	460d      	mov	r5, r1
 80002d4:	4604      	mov	r4, r0
 80002d6:	9e08      	ldr	r6, [sp, #32]
 80002d8:	2b00      	cmp	r3, #0
 80002da:	d151      	bne.n	8000380 <__udivmoddi4+0xb4>
 80002dc:	428a      	cmp	r2, r1
 80002de:	4617      	mov	r7, r2
 80002e0:	d96d      	bls.n	80003be <__udivmoddi4+0xf2>
 80002e2:	fab2 fe82 	clz	lr, r2
 80002e6:	f1be 0f00 	cmp.w	lr, #0
 80002ea:	d00b      	beq.n	8000304 <__udivmoddi4+0x38>
 80002ec:	f1ce 0c20 	rsb	ip, lr, #32
 80002f0:	fa01 f50e 	lsl.w	r5, r1, lr
 80002f4:	fa20 fc0c 	lsr.w	ip, r0, ip
 80002f8:	fa02 f70e 	lsl.w	r7, r2, lr
 80002fc:	ea4c 0c05 	orr.w	ip, ip, r5
 8000300:	fa00 f40e 	lsl.w	r4, r0, lr
 8000304:	ea4f 4a17 	mov.w	sl, r7, lsr #16
 8000308:	0c25      	lsrs	r5, r4, #16
 800030a:	fbbc f8fa 	udiv	r8, ip, sl
 800030e:	fa1f f987 	uxth.w	r9, r7
 8000312:	fb0a cc18 	mls	ip, sl, r8, ip
 8000316:	ea45 450c 	orr.w	r5, r5, ip, lsl #16
 800031a:	fb08 f309 	mul.w	r3, r8, r9
 800031e:	42ab      	cmp	r3, r5
 8000320:	d90a      	bls.n	8000338 <__udivmoddi4+0x6c>
 8000322:	19ed      	adds	r5, r5, r7
 8000324:	f108 32ff 	add.w	r2, r8, #4294967295
 8000328:	f080 8123 	bcs.w	8000572 <__udivmoddi4+0x2a6>
 800032c:	42ab      	cmp	r3, r5
 800032e:	f240 8120 	bls.w	8000572 <__udivmoddi4+0x2a6>
 8000332:	f1a8 0802 	sub.w	r8, r8, #2
 8000336:	443d      	add	r5, r7
 8000338:	1aed      	subs	r5, r5, r3
 800033a:	b2a4      	uxth	r4, r4
 800033c:	fbb5 f0fa 	udiv	r0, r5, sl
 8000340:	fb0a 5510 	mls	r5, sl, r0, r5
 8000344:	ea44 4405 	orr.w	r4, r4, r5, lsl #16
 8000348:	fb00 f909 	mul.w	r9, r0, r9
 800034c:	45a1      	cmp	r9, r4
 800034e:	d909      	bls.n	8000364 <__udivmoddi4+0x98>
 8000350:	19e4      	adds	r4, r4, r7
 8000352:	f100 33ff 	add.w	r3, r0, #4294967295
 8000356:	f080 810a 	bcs.w	800056e <__udivmoddi4+0x2a2>
 800035a:	45a1      	cmp	r9, r4
 800035c:	f240 8107 	bls.w	800056e <__udivmoddi4+0x2a2>
 8000360:	3802      	subs	r0, #2
 8000362:	443c      	add	r4, r7
 8000364:	eba4 0409 	sub.w	r4, r4, r9
 8000368:	ea40 4008 	orr.w	r0, r0, r8, lsl #16
 800036c:	2100      	movs	r1, #0
 800036e:	2e00      	cmp	r6, #0
 8000370:	d061      	beq.n	8000436 <__udivmoddi4+0x16a>
 8000372:	fa24 f40e 	lsr.w	r4, r4, lr
 8000376:	2300      	movs	r3, #0
 8000378:	6034      	str	r4, [r6, #0]
 800037a:	6073      	str	r3, [r6, #4]
 800037c:	e8bd 87f0 	ldmia.w	sp!, {r4, r5, r6, r7, r8, r9, sl, pc}
 8000380:	428b      	cmp	r3, r1
 8000382:	d907      	bls.n	8000394 <__udivmoddi4+0xc8>
 8000384:	2e00      	cmp	r6, #0
 8000386:	d054      	beq.n	8000432 <__udivmoddi4+0x166>
 8000388:	2100      	movs	r1, #0
 800038a:	e886 0021 	stmia.w	r6, {r0, r5}
 800038e:	4608      	mov	r0, r1
 8000390:	e8bd 87f0 	ldmia.w	sp!, {r4, r5, r6, r7, r8, r9, sl, pc}
 8000394:	fab3 f183 	clz	r1, r3
 8000398:	2900      	cmp	r1, #0
 800039a:	f040 808e 	bne.w	80004ba <__udivmoddi4+0x1ee>
 800039e:	42ab      	cmp	r3, r5
 80003a0:	d302      	bcc.n	80003a8 <__udivmoddi4+0xdc>
 80003a2:	4282      	cmp	r2, r0
 80003a4:	f200 80fa 	bhi.w	800059c <__udivmoddi4+0x2d0>
 80003a8:	1a84      	subs	r4, r0, r2
 80003aa:	eb65 0503 	sbc.w	r5, r5, r3
 80003ae:	2001      	movs	r0, #1
 80003b0:	46ac      	mov	ip, r5
 80003b2:	2e00      	cmp	r6, #0
 80003b4:	d03f      	beq.n	8000436 <__udivmoddi4+0x16a>
 80003b6:	e886 1010 	stmia.w	r6, {r4, ip}
 80003ba:	e8bd 87f0 	ldmia.w	sp!, {r4, r5, r6, r7, r8, r9, sl, pc}
 80003be:	b912      	cbnz	r2, 80003c6 <__udivmoddi4+0xfa>
 80003c0:	2701      	movs	r7, #1
 80003c2:	fbb7 f7f2 	udiv	r7, r7, r2
 80003c6:	fab7 fe87 	clz	lr, r7
 80003ca:	f1be 0f00 	cmp.w	lr, #0
 80003ce:	d134      	bne.n	800043a <__udivmoddi4+0x16e>
 80003d0:	1beb      	subs	r3, r5, r7
 80003d2:	0c3a      	lsrs	r2, r7, #16
 80003d4:	fa1f fc87 	uxth.w	ip, r7
 80003d8:	2101      	movs	r1, #1
 80003da:	fbb3 f8f2 	udiv	r8, r3, r2
 80003de:	0c25      	lsrs	r5, r4, #16
 80003e0:	fb02 3318 	mls	r3, r2, r8, r3
 80003e4:	ea45 4503 	orr.w	r5, r5, r3, lsl #16
 80003e8:	fb0c f308 	mul.w	r3, ip, r8
 80003ec:	42ab      	cmp	r3, r5
 80003ee:	d907      	bls.n	8000400 <__udivmoddi4+0x134>
 80003f0:	19ed      	adds	r5, r5, r7
 80003f2:	f108 30ff 	add.w	r0, r8, #4294967295
 80003f6:	d202      	bcs.n	80003fe <__udivmoddi4+0x132>
 80003f8:	42ab      	cmp	r3, r5
 80003fa:	f200 80d1 	bhi.w	80005a0 <__udivmoddi4+0x2d4>
 80003fe:	4680      	mov	r8, r0
 8000400:	1aed      	subs	r5, r5, r3
 8000402:	b2a3      	uxth	r3, r4
 8000404:	fbb5 f0f2 	udiv	r0, r5, r2
 8000408:	fb02 5510 	mls	r5, r2, r0, r5
 800040c:	ea43 4405 	orr.w	r4, r3, r5, lsl #16
 8000410:	fb0c fc00 	mul.w	ip, ip, r0
 8000414:	45a4      	cmp	ip, r4
 8000416:	d907      	bls.n	8000428 <__udivmoddi4+0x15c>
 8000418:	19e4      	adds	r4, r4, r7
 800041a:	f100 33ff 	add.w	r3, r0, #4294967295
 800041e:	d202      	bcs.n	8000426 <__udivmoddi4+0x15a>
 8000420:	45a4      	cmp	ip, r4
 8000422:	f200 80b8 	bhi.w	8000596 <__udivmoddi4+0x2ca>
 8000426:	4618      	mov	r0, r3
 8000428:	eba4 040c 	sub.w	r4, r4, ip
 800042c:	ea40 4008 	orr.w	r0, r0, r8, lsl #16
 8000430:	e79d      	b.n	800036e <__udivmoddi4+0xa2>
 8000432:	4631      	mov	r1, r6
 8000434:	4630      	mov	r0, r6
 8000436:	e8bd 87f0 	ldmia.w	sp!, {r4, r5, r6, r7, r8, r9, sl, pc}
 800043a:	f1ce 0420 	rsb	r4, lr, #32
 800043e:	fa05 f30e 	lsl.w	r3, r5, lr
 8000442:	fa07 f70e 	lsl.w	r7, r7, lr
 8000446:	fa20 f804 	lsr.w	r8, r0, r4
 800044a:	0c3a      	lsrs	r2, r7, #16
 800044c:	fa25 f404 	lsr.w	r4, r5, r4
 8000450:	ea48 0803 	orr.w	r8, r8, r3
 8000454:	fbb4 f1f2 	udiv	r1, r4, r2
 8000458:	ea4f 4518 	mov.w	r5, r8, lsr #16
 800045c:	fb02 4411 	mls	r4, r2, r1, r4
 8000460:	fa1f fc87 	uxth.w	ip, r7
 8000464:	ea45 4504 	orr.w	r5, r5, r4, lsl #16
 8000468:	fb01 f30c 	mul.w	r3, r1, ip
 800046c:	42ab      	cmp	r3, r5
 800046e:	fa00 f40e 	lsl.w	r4, r0, lr
 8000472:	d909      	bls.n	8000488 <__udivmoddi4+0x1bc>
 8000474:	19ed      	adds	r5, r5, r7
 8000476:	f101 30ff 	add.w	r0, r1, #4294967295
 800047a:	f080 808a 	bcs.w	8000592 <__udivmoddi4+0x2c6>
 800047e:	42ab      	cmp	r3, r5
 8000480:	f240 8087 	bls.w	8000592 <__udivmoddi4+0x2c6>
 8000484:	3902      	subs	r1, #2
 8000486:	443d      	add	r5, r7
 8000488:	1aeb      	subs	r3, r5, r3
 800048a:	fa1f f588 	uxth.w	r5, r8
 800048e:	fbb3 f0f2 	udiv	r0, r3, r2
 8000492:	fb02 3310 	mls	r3, r2, r0, r3
 8000496:	ea45 4503 	orr.w	r5, r5, r3, lsl #16
 800049a:	fb00 f30c 	mul.w	r3, r0, ip
 800049e:	42ab      	cmp	r3, r5
 80004a0:	d907      	bls.n	80004b2 <__udivmoddi4+0x1e6>
 80004a2:	19ed      	adds	r5, r5, r7
 80004a4:	f100 38ff 	add.w	r8, r0, #4294967295
 80004a8:	d26f      	bcs.n	800058a <__udivmoddi4+0x2be>
 80004aa:	42ab      	cmp	r3, r5
 80004ac:	d96d      	bls.n	800058a <__udivmoddi4+0x2be>
 80004ae:	3802      	subs	r0, #2
 80004b0:	443d      	add	r5, r7
 80004b2:	1aeb      	subs	r3, r5, r3
 80004b4:	ea40 4101 	orr.w	r1, r0, r1, lsl #16
 80004b8:	e78f      	b.n	80003da <__udivmoddi4+0x10e>
 80004ba:	f1c1 0720 	rsb	r7, r1, #32
 80004be:	fa22 f807 	lsr.w	r8, r2, r7
 80004c2:	408b      	lsls	r3, r1
 80004c4:	fa05 f401 	lsl.w	r4, r5, r1
 80004c8:	ea48 0303 	orr.w	r3, r8, r3
 80004cc:	fa20 fe07 	lsr.w	lr, r0, r7
 80004d0:	ea4f 4c13 	mov.w	ip, r3, lsr #16
 80004d4:	40fd      	lsrs	r5, r7
 80004d6:	ea4e 0e04 	orr.w	lr, lr, r4
 80004da:	fbb5 f9fc 	udiv	r9, r5, ip
 80004de:	ea4f 441e 	mov.w	r4, lr, lsr #16
 80004e2:	fb0c 5519 	mls	r5, ip, r9, r5
 80004e6:	fa1f f883 	uxth.w	r8, r3
 80004ea:	ea44 4505 	orr.w	r5, r4, r5, lsl #16
 80004ee:	fb09 f408 	mul.w	r4, r9, r8
 80004f2:	42ac      	cmp	r4, r5
 80004f4:	fa02 f201 	lsl.w	r2, r2, r1
 80004f8:	fa00 fa01 	lsl.w	sl, r0, r1
 80004fc:	d908      	bls.n	8000510 <__udivmoddi4+0x244>
 80004fe:	18ed      	adds	r5, r5, r3
 8000500:	f109 30ff 	add.w	r0, r9, #4294967295
 8000504:	d243      	bcs.n	800058e <__udivmoddi4+0x2c2>
 8000506:	42ac      	cmp	r4, r5
 8000508:	d941      	bls.n	800058e <__udivmoddi4+0x2c2>
 800050a:	f1a9 0902 	sub.w	r9, r9, #2
 800050e:	441d      	add	r5, r3
 8000510:	1b2d      	subs	r5, r5, r4
 8000512:	fa1f fe8e 	uxth.w	lr, lr
 8000516:	fbb5 f0fc 	udiv	r0, r5, ip
 800051a:	fb0c 5510 	mls	r5, ip, r0, r5
 800051e:	ea4e 4405 	orr.w	r4, lr, r5, lsl #16
 8000522:	fb00 f808 	mul.w	r8, r0, r8
 8000526:	45a0      	cmp	r8, r4
 8000528:	d907      	bls.n	800053a <__udivmoddi4+0x26e>
 800052a:	18e4      	adds	r4, r4, r3
 800052c:	f100 35ff 	add.w	r5, r0, #4294967295
 8000530:	d229      	bcs.n	8000586 <__udivmoddi4+0x2ba>
 8000532:	45a0      	cmp	r8, r4
 8000534:	d927      	bls.n	8000586 <__udivmoddi4+0x2ba>
 8000536:	3802      	subs	r0, #2
 8000538:	441c      	add	r4, r3
 800053a:	ea40 4009 	orr.w	r0, r0, r9, lsl #16
 800053e:	eba4 0408 	sub.w	r4, r4, r8
 8000542:	fba0 8902 	umull	r8, r9, r0, r2
 8000546:	454c      	cmp	r4, r9
 8000548:	46c6      	mov	lr, r8
 800054a:	464d      	mov	r5, r9
 800054c:	d315      	bcc.n	800057a <__udivmoddi4+0x2ae>
 800054e:	d012      	beq.n	8000576 <__udivmoddi4+0x2aa>
 8000550:	b156      	cbz	r6, 8000568 <__udivmoddi4+0x29c>
 8000552:	ebba 030e 	subs.w	r3, sl, lr
 8000556:	eb64 0405 	sbc.w	r4, r4, r5
 800055a:	fa04 f707 	lsl.w	r7, r4, r7
 800055e:	40cb      	lsrs	r3, r1
 8000560:	431f      	orrs	r7, r3
 8000562:	40cc      	lsrs	r4, r1
 8000564:	6037      	str	r7, [r6, #0]
 8000566:	6074      	str	r4, [r6, #4]
 8000568:	2100      	movs	r1, #0
 800056a:	e8bd 87f0 	ldmia.w	sp!, {r4, r5, r6, r7, r8, r9, sl, pc}
 800056e:	4618      	mov	r0, r3
 8000570:	e6f8      	b.n	8000364 <__udivmoddi4+0x98>
 8000572:	4690      	mov	r8, r2
 8000574:	e6e0      	b.n	8000338 <__udivmoddi4+0x6c>
 8000576:	45c2      	cmp	sl, r8
 8000578:	d2ea      	bcs.n	8000550 <__udivmoddi4+0x284>
 800057a:	ebb8 0e02 	subs.w	lr, r8, r2
 800057e:	eb69 0503 	sbc.w	r5, r9, r3
 8000582:	3801      	subs	r0, #1
 8000584:	e7e4      	b.n	8000550 <__udivmoddi4+0x284>
 8000586:	4628      	mov	r0, r5
 8000588:	e7d7      	b.n	800053a <__udivmoddi4+0x26e>
 800058a:	4640      	mov	r0, r8
 800058c:	e791      	b.n	80004b2 <__udivmoddi4+0x1e6>
 800058e:	4681      	mov	r9, r0
 8000590:	e7be      	b.n	8000510 <__udivmoddi4+0x244>
 8000592:	4601      	mov	r1, r0
 8000594:	e778      	b.n	8000488 <__udivmoddi4+0x1bc>
 8000596:	3802      	subs	r0, #2
 8000598:	443c      	add	r4, r7
 800059a:	e745      	b.n	8000428 <__udivmoddi4+0x15c>
 800059c:	4608      	mov	r0, r1
 800059e:	e708      	b.n	80003b2 <__udivmoddi4+0xe6>
 80005a0:	f1a8 0802 	sub.w	r8, r8, #2
 80005a4:	443d      	add	r5, r7
 80005a6:	e72b      	b.n	8000400 <__udivmoddi4+0x134>

080005a8 <__aeabi_idiv0>:
 80005a8:	4770      	bx	lr
 80005aa:	bf00      	nop

080005ac <HAL_InitTick>:
  *       implementation  in user file.
  * @param TickPriority Tick interrupt priority.
  * @retval HAL status
  */
__weak HAL_StatusTypeDef HAL_InitTick(uint32_t TickPriority)
{
 80005ac:	b510      	push	{r4, lr}
  /*Configure the SysTick to have interrupt in 1ms time basis*/
  HAL_SYSTICK_Config(SystemCoreClock/1000U);
 80005ae:	4b08      	ldr	r3, [pc, #32]	; (80005d0 <HAL_InitTick+0x24>)
{
 80005b0:	4604      	mov	r4, r0
  HAL_SYSTICK_Config(SystemCoreClock/1000U);
 80005b2:	6818      	ldr	r0, [r3, #0]
 80005b4:	f44f 737a 	mov.w	r3, #1000	; 0x3e8
 80005b8:	fbb0 f0f3 	udiv	r0, r0, r3
 80005bc:	f000 f894 	bl	80006e8 <HAL_SYSTICK_Config>

  /*Configure the SysTick IRQ priority */
  HAL_NVIC_SetPriority(SysTick_IRQn, TickPriority, 0U);
 80005c0:	2200      	movs	r2, #0
 80005c2:	4621      	mov	r1, r4
 80005c4:	f04f 30ff 	mov.w	r0, #4294967295
 80005c8:	f000 f84e 	bl	8000668 <HAL_NVIC_SetPriority>

  /* Return function status */
  return HAL_OK;
}
 80005cc:	2000      	movs	r0, #0
 80005ce:	bd10      	pop	{r4, pc}
 80005d0:	2000013c 	.word	0x2000013c

080005d4 <HAL_Init>:
{
 80005d4:	b508      	push	{r3, lr}
   __HAL_FLASH_INSTRUCTION_CACHE_ENABLE();
 80005d6:	4b0b      	ldr	r3, [pc, #44]	; (8000604 <HAL_Init+0x30>)
 80005d8:	681a      	ldr	r2, [r3, #0]
 80005da:	f442 7200 	orr.w	r2, r2, #512	; 0x200
 80005de:	601a      	str	r2, [r3, #0]
   __HAL_FLASH_DATA_CACHE_ENABLE();
 80005e0:	681a      	ldr	r2, [r3, #0]
 80005e2:	f442 6280 	orr.w	r2, r2, #1024	; 0x400
 80005e6:	601a      	str	r2, [r3, #0]
  __HAL_FLASH_PREFETCH_BUFFER_ENABLE();
 80005e8:	681a      	ldr	r2, [r3, #0]
 80005ea:	f442 7280 	orr.w	r2, r2, #256	; 0x100
 80005ee:	601a      	str	r2, [r3, #0]
  HAL_NVIC_SetPriorityGrouping(NVIC_PRIORITYGROUP_4);
 80005f0:	2003      	movs	r0, #3
 80005f2:	f000 f827 	bl	8000644 <HAL_NVIC_SetPriorityGrouping>
  HAL_InitTick(TICK_INT_PRIORITY);
 80005f6:	2000      	movs	r0, #0
 80005f8:	f7ff ffd8 	bl	80005ac <HAL_InitTick>
  HAL_MspInit();
 80005fc:	f002 fd92 	bl	8003124 <HAL_MspInit>
}
 8000600:	2000      	movs	r0, #0
 8000602:	bd08      	pop	{r3, pc}
 8000604:	40023c00 	.word	0x40023c00

08000608 <HAL_IncTick>:
  *      implementations in user file.
  * @retval None
  */
__weak void HAL_IncTick(void)
{
  uwTick++;
 8000608:	4a02      	ldr	r2, [pc, #8]	; (8000614 <HAL_IncTick+0xc>)
 800060a:	6813      	ldr	r3, [r2, #0]
 800060c:	3301      	adds	r3, #1
 800060e:	6013      	str	r3, [r2, #0]
 8000610:	4770      	bx	lr
 8000612:	bf00      	nop
 8000614:	2000729c 	.word	0x2000729c

08000618 <HAL_GetTick>:
  *       implementations in user file.
  * @retval tick value
  */
__weak uint32_t HAL_GetTick(void)
{
  return uwTick;
 8000618:	4b01      	ldr	r3, [pc, #4]	; (8000620 <HAL_GetTick+0x8>)
 800061a:	6818      	ldr	r0, [r3, #0]
}
 800061c:	4770      	bx	lr
 800061e:	bf00      	nop
 8000620:	2000729c 	.word	0x2000729c

08000624 <HAL_Delay>:
  *       implementations in user file.
  * @param Delay specifies the delay time length, in milliseconds.
  * @retval None
  */
__weak void HAL_Delay(__IO uint32_t Delay)
{
 8000624:	b537      	push	{r0, r1, r2, r4, r5, lr}
 8000626:	9001      	str	r0, [sp, #4]
  uint32_t tickstart = HAL_GetTick();
 8000628:	f7ff fff6 	bl	8000618 <HAL_GetTick>
  uint32_t wait = Delay;
 800062c:	9c01      	ldr	r4, [sp, #4]
  
  /* Add a period to guarantee minimum wait */
  if (wait < HAL_MAX_DELAY)
 800062e:	1c63      	adds	r3, r4, #1
  uint32_t tickstart = HAL_GetTick();
 8000630:	4605      	mov	r5, r0
  {
     wait++;
 8000632:	bf18      	it	ne
 8000634:	3401      	addne	r4, #1
  }
  
  while((HAL_GetTick() - tickstart) < wait)
 8000636:	f7ff ffef 	bl	8000618 <HAL_GetTick>
 800063a:	1b40      	subs	r0, r0, r5
 800063c:	42a0      	cmp	r0, r4
 800063e:	d3fa      	bcc.n	8000636 <HAL_Delay+0x12>
  {
  }
}
 8000640:	b003      	add	sp, #12
 8000642:	bd30      	pop	{r4, r5, pc}

08000644 <HAL_NVIC_SetPriorityGrouping>:
__STATIC_INLINE void NVIC_SetPriorityGrouping(uint32_t PriorityGroup)
{
  uint32_t reg_value;
  uint32_t PriorityGroupTmp = (PriorityGroup & (uint32_t)0x07UL);             /* only values 0..7 are used          */

  reg_value  =  SCB->AIRCR;                                                   /* read old register configuration    */
 8000644:	4a07      	ldr	r2, [pc, #28]	; (8000664 <HAL_NVIC_SetPriorityGrouping+0x20>)
 8000646:	68d3      	ldr	r3, [r2, #12]
  reg_value &= ~((uint32_t)(SCB_AIRCR_VECTKEY_Msk | SCB_AIRCR_PRIGROUP_Msk)); /* clear bits to change               */
 8000648:	f423 63e0 	bic.w	r3, r3, #1792	; 0x700
 800064c:	041b      	lsls	r3, r3, #16
 800064e:	0c1b      	lsrs	r3, r3, #16
 8000650:	f043 63bf 	orr.w	r3, r3, #100139008	; 0x5f80000
  reg_value  =  (reg_value                                   |
                ((uint32_t)0x5FAUL << SCB_AIRCR_VECTKEY_Pos) |
                (PriorityGroupTmp << 8U)                      );              /* Insert write key and priorty group */
 8000654:	0200      	lsls	r0, r0, #8
 8000656:	f443 3300 	orr.w	r3, r3, #131072	; 0x20000
 800065a:	f400 60e0 	and.w	r0, r0, #1792	; 0x700
  reg_value  =  (reg_value                                   |
 800065e:	4303      	orrs	r3, r0
  SCB->AIRCR =  reg_value;
 8000660:	60d3      	str	r3, [r2, #12]
 8000662:	4770      	bx	lr
 8000664:	e000ed00 	.word	0xe000ed00

08000668 <HAL_NVIC_SetPriority>:
  \details Reads the priority grouping field from the NVIC Interrupt Controller.
  \return                Priority grouping field (SCB->AIRCR [10:8] PRIGROUP field).
 */
__STATIC_INLINE uint32_t NVIC_GetPriorityGrouping(void)
{
  return ((uint32_t)((SCB->AIRCR & SCB_AIRCR_PRIGROUP_Msk) >> SCB_AIRCR_PRIGROUP_Pos));
 8000668:	4b17      	ldr	r3, [pc, #92]	; (80006c8 <HAL_NVIC_SetPriority+0x60>)
  *         This parameter can be a value between 0 and 15
  *         A lower priority value indicates a higher priority.          
  * @retval None
  */
void HAL_NVIC_SetPriority(IRQn_Type IRQn, uint32_t PreemptPriority, uint32_t SubPriority)
{ 
 800066a:	b530      	push	{r4, r5, lr}
 800066c:	68dc      	ldr	r4, [r3, #12]
 800066e:	f3c4 2402 	ubfx	r4, r4, #8, #3
{
  uint32_t PriorityGroupTmp = (PriorityGroup & (uint32_t)0x07UL);   /* only values 0..7 are used          */
  uint32_t PreemptPriorityBits;
  uint32_t SubPriorityBits;

  PreemptPriorityBits = ((7UL - PriorityGroupTmp) > (uint32_t)(__NVIC_PRIO_BITS)) ? (uint32_t)(__NVIC_PRIO_BITS) : (uint32_t)(7UL - PriorityGroupTmp);
 8000672:	f1c4 0307 	rsb	r3, r4, #7
  SubPriorityBits     = ((PriorityGroupTmp + (uint32_t)(__NVIC_PRIO_BITS)) < (uint32_t)7UL) ? (uint32_t)0UL : (uint32_t)((PriorityGroupTmp - 7UL) + (uint32_t)(__NVIC_PRIO_BITS));
 8000676:	1d25      	adds	r5, r4, #4
  PreemptPriorityBits = ((7UL - PriorityGroupTmp) > (uint32_t)(__NVIC_PRIO_BITS)) ? (uint32_t)(__NVIC_PRIO_BITS) : (uint32_t)(7UL - PriorityGroupTmp);
 8000678:	2b04      	cmp	r3, #4
 800067a:	bf28      	it	cs
 800067c:	2304      	movcs	r3, #4
  SubPriorityBits     = ((PriorityGroupTmp + (uint32_t)(__NVIC_PRIO_BITS)) < (uint32_t)7UL) ? (uint32_t)0UL : (uint32_t)((PriorityGroupTmp - 7UL) + (uint32_t)(__NVIC_PRIO_BITS));
 800067e:	2d06      	cmp	r5, #6

  return (
           ((PreemptPriority & (uint32_t)((1UL << (PreemptPriorityBits)) - 1UL)) << SubPriorityBits) |
 8000680:	f04f 0501 	mov.w	r5, #1
 8000684:	fa05 f303 	lsl.w	r3, r5, r3
 8000688:	f103 33ff 	add.w	r3, r3, #4294967295
  SubPriorityBits     = ((PriorityGroupTmp + (uint32_t)(__NVIC_PRIO_BITS)) < (uint32_t)7UL) ? (uint32_t)0UL : (uint32_t)((PriorityGroupTmp - 7UL) + (uint32_t)(__NVIC_PRIO_BITS));
 800068c:	bf8c      	ite	hi
 800068e:	3c03      	subhi	r4, #3
 8000690:	2400      	movls	r4, #0
           ((PreemptPriority & (uint32_t)((1UL << (PreemptPriorityBits)) - 1UL)) << SubPriorityBits) |
 8000692:	4019      	ands	r1, r3
 8000694:	40a1      	lsls	r1, r4
           ((SubPriority     & (uint32_t)((1UL << (SubPriorityBits    )) - 1UL)))
 8000696:	fa05 f404 	lsl.w	r4, r5, r4
 800069a:	3c01      	subs	r4, #1
 800069c:	4022      	ands	r2, r4
  if ((int32_t)(IRQn) < 0)
 800069e:	2800      	cmp	r0, #0
           ((PreemptPriority & (uint32_t)((1UL << (PreemptPriorityBits)) - 1UL)) << SubPriorityBits) |
 80006a0:	ea42 0201 	orr.w	r2, r2, r1
 80006a4:	ea4f 1202 	mov.w	r2, r2, lsl #4
    NVIC->IP[((uint32_t)(int32_t)IRQn)]               = (uint8_t)((priority << (8U - __NVIC_PRIO_BITS)) & (uint32_t)0xFFUL);
 80006a8:	bfaf      	iteee	ge
 80006aa:	f100 4060 	addge.w	r0, r0, #3758096384	; 0xe0000000
    SCB->SHP[(((uint32_t)(int32_t)IRQn) & 0xFUL)-4UL] = (uint8_t)((priority << (8U - __NVIC_PRIO_BITS)) & (uint32_t)0xFFUL);
 80006ae:	f000 000f 	andlt.w	r0, r0, #15
 80006b2:	4b06      	ldrlt	r3, [pc, #24]	; (80006cc <HAL_NVIC_SetPriority+0x64>)
 80006b4:	b2d2      	uxtblt	r2, r2
    NVIC->IP[((uint32_t)(int32_t)IRQn)]               = (uint8_t)((priority << (8U - __NVIC_PRIO_BITS)) & (uint32_t)0xFFUL);
 80006b6:	bfa5      	ittet	ge
 80006b8:	f500 4061 	addge.w	r0, r0, #57600	; 0xe100
 80006bc:	b2d2      	uxtbge	r2, r2
    SCB->SHP[(((uint32_t)(int32_t)IRQn) & 0xFUL)-4UL] = (uint8_t)((priority << (8U - __NVIC_PRIO_BITS)) & (uint32_t)0xFFUL);
 80006be:	541a      	strblt	r2, [r3, r0]
    NVIC->IP[((uint32_t)(int32_t)IRQn)]               = (uint8_t)((priority << (8U - __NVIC_PRIO_BITS)) & (uint32_t)0xFFUL);
 80006c0:	f880 2300 	strbge.w	r2, [r0, #768]	; 0x300
 80006c4:	bd30      	pop	{r4, r5, pc}
 80006c6:	bf00      	nop
 80006c8:	e000ed00 	.word	0xe000ed00
 80006cc:	e000ed14 	.word	0xe000ed14

080006d0 <HAL_NVIC_EnableIRQ>:
  NVIC->ISER[(((uint32_t)(int32_t)IRQn) >> 5UL)] = (uint32_t)(1UL << (((uint32_t)(int32_t)IRQn) & 0x1FUL));
 80006d0:	0942      	lsrs	r2, r0, #5
 80006d2:	2301      	movs	r3, #1
 80006d4:	f000 001f 	and.w	r0, r0, #31
 80006d8:	fa03 f000 	lsl.w	r0, r3, r0
 80006dc:	4b01      	ldr	r3, [pc, #4]	; (80006e4 <HAL_NVIC_EnableIRQ+0x14>)
 80006de:	f843 0022 	str.w	r0, [r3, r2, lsl #2]
 80006e2:	4770      	bx	lr
 80006e4:	e000e100 	.word	0xe000e100

080006e8 <HAL_SYSTICK_Config>:
           function <b>SysTick_Config</b> is not included. In this case, the file <b><i>device</i>.h</b>
           must contain a vendor-specific implementation of this function.
 */
__STATIC_INLINE uint32_t SysTick_Config(uint32_t ticks)
{
  if ((ticks - 1UL) > SysTick_LOAD_RELOAD_Msk)
 80006e8:	3801      	subs	r0, #1
 80006ea:	f1b0 7f80 	cmp.w	r0, #16777216	; 0x1000000
 80006ee:	d20a      	bcs.n	8000706 <HAL_SYSTICK_Config+0x1e>
  {
    return (1UL);                                                   /* Reload value impossible */
  }

  SysTick->LOAD  = (uint32_t)(ticks - 1UL);                         /* set reload register */
 80006f0:	4b06      	ldr	r3, [pc, #24]	; (800070c <HAL_SYSTICK_Config+0x24>)
    SCB->SHP[(((uint32_t)(int32_t)IRQn) & 0xFUL)-4UL] = (uint8_t)((priority << (8U - __NVIC_PRIO_BITS)) & (uint32_t)0xFFUL);
 80006f2:	4a07      	ldr	r2, [pc, #28]	; (8000710 <HAL_SYSTICK_Config+0x28>)
  SysTick->LOAD  = (uint32_t)(ticks - 1UL);                         /* set reload register */
 80006f4:	6058      	str	r0, [r3, #4]
    SCB->SHP[(((uint32_t)(int32_t)IRQn) & 0xFUL)-4UL] = (uint8_t)((priority << (8U - __NVIC_PRIO_BITS)) & (uint32_t)0xFFUL);
 80006f6:	21f0      	movs	r1, #240	; 0xf0
 80006f8:	f882 1023 	strb.w	r1, [r2, #35]	; 0x23
  NVIC_SetPriority (SysTick_IRQn, (1UL << __NVIC_PRIO_BITS) - 1UL); /* set Priority for Systick Interrupt */
  SysTick->VAL   = 0UL;                                             /* Load the SysTick Counter Value */
 80006fc:	2000      	movs	r0, #0
  SysTick->CTRL  = SysTick_CTRL_CLKSOURCE_Msk |
 80006fe:	2207      	movs	r2, #7
  SysTick->VAL   = 0UL;                                             /* Load the SysTick Counter Value */
 8000700:	6098      	str	r0, [r3, #8]
  SysTick->CTRL  = SysTick_CTRL_CLKSOURCE_Msk |
 8000702:	601a      	str	r2, [r3, #0]
 8000704:	4770      	bx	lr
    return (1UL);                                                   /* Reload value impossible */
 8000706:	2001      	movs	r0, #1
  *                  - 1  Function failed.
  */
uint32_t HAL_SYSTICK_Config(uint32_t TicksNumb)
{
   return SysTick_Config(TicksNumb);
}
 8000708:	4770      	bx	lr
 800070a:	bf00      	nop
 800070c:	e000e010 	.word	0xe000e010
 8000710:	e000ed00 	.word	0xe000ed00

08000714 <HAL_SYSTICK_CLKSourceConfig>:
  *             @arg SYSTICK_CLKSOURCE_HCLK_DIV8: AHB clock divided by 8 selected as SysTick clock source.
  *             @arg SYSTICK_CLKSOURCE_HCLK: AHB clock selected as SysTick clock source.
  * @retval None
  */
void HAL_SYSTICK_CLKSourceConfig(uint32_t CLKSource)
{
 8000714:	4b04      	ldr	r3, [pc, #16]	; (8000728 <HAL_SYSTICK_CLKSourceConfig+0x14>)
  /* Check the parameters */
  assert_param(IS_SYSTICK_CLK_SOURCE(CLKSource));
  if (CLKSource == SYSTICK_CLKSOURCE_HCLK)
  {
    SysTick->CTRL |= SYSTICK_CLKSOURCE_HCLK;
 8000716:	681a      	ldr	r2, [r3, #0]
  if (CLKSource == SYSTICK_CLKSOURCE_HCLK)
 8000718:	2804      	cmp	r0, #4
    SysTick->CTRL |= SYSTICK_CLKSOURCE_HCLK;
 800071a:	bf0c      	ite	eq
 800071c:	f042 0204 	orreq.w	r2, r2, #4
  }
  else
  {
    SysTick->CTRL &= ~SYSTICK_CLKSOURCE_HCLK;
 8000720:	f022 0204 	bicne.w	r2, r2, #4
 8000724:	601a      	str	r2, [r3, #0]
 8000726:	4770      	bx	lr
 8000728:	e000e010 	.word	0xe000e010

0800072c <HAL_SYSTICK_IRQHandler>:
/**
  * @brief  This function handles SYSTICK interrupt request.
  * @retval None
  */
void HAL_SYSTICK_IRQHandler(void)
{
 800072c:	b508      	push	{r3, lr}
  HAL_SYSTICK_Callback();
 800072e:	f002 fd79 	bl	8003224 <HAL_SYSTICK_Callback>
 8000732:	bd08      	pop	{r3, pc}

08000734 <HAL_GPIO_Init>:
  * @param  GPIO_Init pointer to a GPIO_InitTypeDef structure that contains
  *         the configuration information for the specified GPIO peripheral.
  * @retval None
  */
void HAL_GPIO_Init(GPIO_TypeDef  *GPIOx, GPIO_InitTypeDef *GPIO_Init)
{
 8000734:	e92d 4ff0 	stmdb	sp!, {r4, r5, r6, r7, r8, r9, sl, fp, lr}
 8000738:	b085      	sub	sp, #20
  for(position = 0U; position < GPIO_NUMBER; position++)
  {
    /* Get the IO position */
    ioposition = 0x01U << position;
    /* Get the current IO position */
    iocurrent = (uint32_t)(GPIO_Init->Pin) & ioposition;
 800073a:	680b      	ldr	r3, [r1, #0]
      /*--------------------- EXTI Mode Configuration ------------------------*/
      /* Configure the External Interrupt or event for the current IO */
      if((GPIO_Init->Mode & EXTI_MODE) == EXTI_MODE)
      {
        /* Enable SYSCFG Clock */
        __HAL_RCC_SYSCFG_CLK_ENABLE();
 800073c:	f8df 819c 	ldr.w	r8, [pc, #412]	; 80008dc <HAL_GPIO_Init+0x1a8>
        temp &= ~(0x0FU << (4U * (position & 0x03U)));
        temp |= ((uint32_t)(GPIO_GET_INDEX(GPIOx)) << (4U * (position & 0x03U)));
        SYSCFG->EXTICR[position >> 2U] = temp;

        /* Clear EXTI line configuration */
        temp = EXTI->IMR;
 8000740:	4a64      	ldr	r2, [pc, #400]	; (80008d4 <HAL_GPIO_Init+0x1a0>)
    iocurrent = (uint32_t)(GPIO_Init->Pin) & ioposition;
 8000742:	9301      	str	r3, [sp, #4]
    ioposition = 0x01U << position;
 8000744:	f04f 0901 	mov.w	r9, #1
  for(position = 0U; position < GPIO_NUMBER; position++)
 8000748:	2300      	movs	r3, #0
    iocurrent = (uint32_t)(GPIO_Init->Pin) & ioposition;
 800074a:	9c01      	ldr	r4, [sp, #4]
    ioposition = 0x01U << position;
 800074c:	fa09 f703 	lsl.w	r7, r9, r3
    iocurrent = (uint32_t)(GPIO_Init->Pin) & ioposition;
 8000750:	ea07 0604 	and.w	r6, r7, r4
    if(iocurrent == ioposition)
 8000754:	42b7      	cmp	r7, r6
 8000756:	f040 80ad 	bne.w	80008b4 <HAL_GPIO_Init+0x180>
      if((GPIO_Init->Mode == GPIO_MODE_AF_PP) || (GPIO_Init->Mode == GPIO_MODE_AF_OD))
 800075a:	684c      	ldr	r4, [r1, #4]
 800075c:	f024 0a10 	bic.w	sl, r4, #16
 8000760:	f1ba 0f02 	cmp.w	sl, #2
 8000764:	d116      	bne.n	8000794 <HAL_GPIO_Init+0x60>
        temp = GPIOx->AFR[position >> 3U];
 8000766:	ea4f 0cd3 	mov.w	ip, r3, lsr #3
 800076a:	eb00 0c8c 	add.w	ip, r0, ip, lsl #2
        temp &= ~(0xFU << ((uint32_t)(position & 0x07U) * 4U)) ;
 800076e:	f003 0b07 	and.w	fp, r3, #7
        temp = GPIOx->AFR[position >> 3U];
 8000772:	f8dc 5020 	ldr.w	r5, [ip, #32]
        temp &= ~(0xFU << ((uint32_t)(position & 0x07U) * 4U)) ;
 8000776:	ea4f 0b8b 	mov.w	fp, fp, lsl #2
 800077a:	f04f 0e0f 	mov.w	lr, #15
 800077e:	fa0e fe0b 	lsl.w	lr, lr, fp
 8000782:	ea25 0e0e 	bic.w	lr, r5, lr
        temp |= ((uint32_t)(GPIO_Init->Alternate) << (((uint32_t)position & 0x07U) * 4U));
 8000786:	690d      	ldr	r5, [r1, #16]
 8000788:	fa05 f50b 	lsl.w	r5, r5, fp
 800078c:	ea45 050e 	orr.w	r5, r5, lr
        GPIOx->AFR[position >> 3U] = temp;
 8000790:	f8cc 5020 	str.w	r5, [ip, #32]
 8000794:	ea4f 0c43 	mov.w	ip, r3, lsl #1
      temp &= ~(GPIO_MODER_MODER0 << (position * 2U));
 8000798:	2503      	movs	r5, #3
      temp = GPIOx->MODER;
 800079a:	f8d0 b000 	ldr.w	fp, [r0]
      temp &= ~(GPIO_MODER_MODER0 << (position * 2U));
 800079e:	fa05 f50c 	lsl.w	r5, r5, ip
 80007a2:	43ed      	mvns	r5, r5
      temp |= ((GPIO_Init->Mode & GPIO_MODE) << (position * 2U));
 80007a4:	f004 0e03 	and.w	lr, r4, #3
      temp &= ~(GPIO_MODER_MODER0 << (position * 2U));
 80007a8:	ea0b 0b05 	and.w	fp, fp, r5
      temp |= ((GPIO_Init->Mode & GPIO_MODE) << (position * 2U));
 80007ac:	fa0e fe0c 	lsl.w	lr, lr, ip
      if((GPIO_Init->Mode == GPIO_MODE_OUTPUT_PP) || (GPIO_Init->Mode == GPIO_MODE_AF_PP) ||
 80007b0:	f10a 3aff 	add.w	sl, sl, #4294967295
      temp |= ((GPIO_Init->Mode & GPIO_MODE) << (position * 2U));
 80007b4:	ea4e 0e0b 	orr.w	lr, lr, fp
      if((GPIO_Init->Mode == GPIO_MODE_OUTPUT_PP) || (GPIO_Init->Mode == GPIO_MODE_AF_PP) ||
 80007b8:	f1ba 0f01 	cmp.w	sl, #1
      temp &= ~(GPIO_MODER_MODER0 << (position * 2U));
 80007bc:	9500      	str	r5, [sp, #0]
      GPIOx->MODER = temp;
 80007be:	f8c0 e000 	str.w	lr, [r0]
      if((GPIO_Init->Mode == GPIO_MODE_OUTPUT_PP) || (GPIO_Init->Mode == GPIO_MODE_AF_PP) ||
 80007c2:	d815      	bhi.n	80007f0 <HAL_GPIO_Init+0xbc>
        temp = GPIOx->OSPEEDR; 
 80007c4:	f8d0 e008 	ldr.w	lr, [r0, #8]
        temp &= ~(GPIO_OSPEEDER_OSPEEDR0 << (position * 2U));
 80007c8:	ea05 0e0e 	and.w	lr, r5, lr
        temp |= (GPIO_Init->Speed << (position * 2U));
 80007cc:	68cd      	ldr	r5, [r1, #12]
 80007ce:	fa05 fa0c 	lsl.w	sl, r5, ip
 80007d2:	ea4a 0e0e 	orr.w	lr, sl, lr
        GPIOx->OSPEEDR = temp;
 80007d6:	f8c0 e008 	str.w	lr, [r0, #8]
        temp = GPIOx->OTYPER;
 80007da:	f8d0 e004 	ldr.w	lr, [r0, #4]
        temp &= ~(GPIO_OTYPER_OT_0 << position) ;
 80007de:	ea2e 0707 	bic.w	r7, lr, r7
        temp |= (((GPIO_Init->Mode & GPIO_OUTPUT_TYPE) >> 4U) << position);
 80007e2:	f3c4 1e00 	ubfx	lr, r4, #4, #1
 80007e6:	fa0e fe03 	lsl.w	lr, lr, r3
 80007ea:	ea4e 0707 	orr.w	r7, lr, r7
        GPIOx->OTYPER = temp;
 80007ee:	6047      	str	r7, [r0, #4]
      temp = GPIOx->PUPDR;
 80007f0:	68c7      	ldr	r7, [r0, #12]
      temp &= ~(GPIO_PUPDR_PUPDR0 << (position * 2U));
 80007f2:	9d00      	ldr	r5, [sp, #0]
 80007f4:	403d      	ands	r5, r7
      temp |= ((GPIO_Init->Pull) << (position * 2U));
 80007f6:	688f      	ldr	r7, [r1, #8]
 80007f8:	fa07 f70c 	lsl.w	r7, r7, ip
 80007fc:	433d      	orrs	r5, r7
      GPIOx->PUPDR = temp;
 80007fe:	60c5      	str	r5, [r0, #12]
      if((GPIO_Init->Mode & EXTI_MODE) == EXTI_MODE)
 8000800:	00e5      	lsls	r5, r4, #3
 8000802:	d557      	bpl.n	80008b4 <HAL_GPIO_Init+0x180>
        __HAL_RCC_SYSCFG_CLK_ENABLE();
 8000804:	f04f 0b00 	mov.w	fp, #0
 8000808:	f8cd b00c 	str.w	fp, [sp, #12]
 800080c:	f8d8 7044 	ldr.w	r7, [r8, #68]	; 0x44
        temp |= ((uint32_t)(GPIO_GET_INDEX(GPIOx)) << (4U * (position & 0x03U)));
 8000810:	4d31      	ldr	r5, [pc, #196]	; (80008d8 <HAL_GPIO_Init+0x1a4>)
        __HAL_RCC_SYSCFG_CLK_ENABLE();
 8000812:	f447 4780 	orr.w	r7, r7, #16384	; 0x4000
 8000816:	f8c8 7044 	str.w	r7, [r8, #68]	; 0x44
 800081a:	f8d8 7044 	ldr.w	r7, [r8, #68]	; 0x44
 800081e:	f407 4780 	and.w	r7, r7, #16384	; 0x4000
 8000822:	9703      	str	r7, [sp, #12]
 8000824:	9f03      	ldr	r7, [sp, #12]
 8000826:	f023 0703 	bic.w	r7, r3, #3
 800082a:	f107 4780 	add.w	r7, r7, #1073741824	; 0x40000000
 800082e:	f507 379c 	add.w	r7, r7, #79872	; 0x13800
        temp &= ~(0x0FU << (4U * (position & 0x03U)));
 8000832:	f003 0c03 	and.w	ip, r3, #3
        temp = SYSCFG->EXTICR[position >> 2U];
 8000836:	f8d7 a008 	ldr.w	sl, [r7, #8]
        temp &= ~(0x0FU << (4U * (position & 0x03U)));
 800083a:	ea4f 0c8c 	mov.w	ip, ip, lsl #2
 800083e:	f04f 0e0f 	mov.w	lr, #15
 8000842:	fa0e fe0c 	lsl.w	lr, lr, ip
        temp |= ((uint32_t)(GPIO_GET_INDEX(GPIOx)) << (4U * (position & 0x03U)));
 8000846:	42a8      	cmp	r0, r5
        temp &= ~(0x0FU << (4U * (position & 0x03U)));
 8000848:	ea2a 0e0e 	bic.w	lr, sl, lr
        temp |= ((uint32_t)(GPIO_GET_INDEX(GPIOx)) << (4U * (position & 0x03U)));
 800084c:	d039      	beq.n	80008c2 <HAL_GPIO_Init+0x18e>
 800084e:	f505 6580 	add.w	r5, r5, #1024	; 0x400
 8000852:	42a8      	cmp	r0, r5
 8000854:	d037      	beq.n	80008c6 <HAL_GPIO_Init+0x192>
 8000856:	f505 6580 	add.w	r5, r5, #1024	; 0x400
 800085a:	42a8      	cmp	r0, r5
 800085c:	d035      	beq.n	80008ca <HAL_GPIO_Init+0x196>
 800085e:	f505 6580 	add.w	r5, r5, #1024	; 0x400
 8000862:	42a8      	cmp	r0, r5
 8000864:	d033      	beq.n	80008ce <HAL_GPIO_Init+0x19a>
 8000866:	f505 6580 	add.w	r5, r5, #1024	; 0x400
 800086a:	42a8      	cmp	r0, r5
 800086c:	bf14      	ite	ne
 800086e:	2507      	movne	r5, #7
 8000870:	2504      	moveq	r5, #4
 8000872:	fa05 f50c 	lsl.w	r5, r5, ip
 8000876:	ea45 050e 	orr.w	r5, r5, lr
        SYSCFG->EXTICR[position >> 2U] = temp;
 800087a:	60bd      	str	r5, [r7, #8]
        temp = EXTI->IMR;
 800087c:	6815      	ldr	r5, [r2, #0]
        temp &= ~((uint32_t)iocurrent);
 800087e:	43f7      	mvns	r7, r6
        if((GPIO_Init->Mode & GPIO_MODE_IT) == GPIO_MODE_IT)
 8000880:	f414 3f80 	tst.w	r4, #65536	; 0x10000
        temp &= ~((uint32_t)iocurrent);
 8000884:	bf0c      	ite	eq
 8000886:	403d      	andeq	r5, r7
        {
          temp |= iocurrent;
 8000888:	4335      	orrne	r5, r6
        }
        EXTI->IMR = temp;
 800088a:	6015      	str	r5, [r2, #0]

        temp = EXTI->EMR;
 800088c:	6855      	ldr	r5, [r2, #4]
        temp &= ~((uint32_t)iocurrent);
        if((GPIO_Init->Mode & GPIO_MODE_EVT) == GPIO_MODE_EVT)
 800088e:	f414 3f00 	tst.w	r4, #131072	; 0x20000
        temp &= ~((uint32_t)iocurrent);
 8000892:	bf0c      	ite	eq
 8000894:	403d      	andeq	r5, r7
        {
          temp |= iocurrent;
 8000896:	4335      	orrne	r5, r6
        }
        EXTI->EMR = temp;
 8000898:	6055      	str	r5, [r2, #4]

        /* Clear Rising Falling edge configuration */
        temp = EXTI->RTSR;
 800089a:	6895      	ldr	r5, [r2, #8]
        temp &= ~((uint32_t)iocurrent);
        if((GPIO_Init->Mode & RISING_EDGE) == RISING_EDGE)
 800089c:	f414 1f80 	tst.w	r4, #1048576	; 0x100000
        temp &= ~((uint32_t)iocurrent);
 80008a0:	bf0c      	ite	eq
 80008a2:	403d      	andeq	r5, r7
        {
          temp |= iocurrent;
 80008a4:	4335      	orrne	r5, r6
        }
        EXTI->RTSR = temp;
 80008a6:	6095      	str	r5, [r2, #8]

        temp = EXTI->FTSR;
 80008a8:	68d5      	ldr	r5, [r2, #12]
        temp &= ~((uint32_t)iocurrent);
        if((GPIO_Init->Mode & FALLING_EDGE) == FALLING_EDGE)
 80008aa:	02a4      	lsls	r4, r4, #10
        temp &= ~((uint32_t)iocurrent);
 80008ac:	bf54      	ite	pl
 80008ae:	403d      	andpl	r5, r7
        {
          temp |= iocurrent;
 80008b0:	4335      	orrmi	r5, r6
        }
        EXTI->FTSR = temp;
 80008b2:	60d5      	str	r5, [r2, #12]
  for(position = 0U; position < GPIO_NUMBER; position++)
 80008b4:	3301      	adds	r3, #1
 80008b6:	2b10      	cmp	r3, #16
 80008b8:	f47f af47 	bne.w	800074a <HAL_GPIO_Init+0x16>
      }
    }
  }
}
 80008bc:	b005      	add	sp, #20
 80008be:	e8bd 8ff0 	ldmia.w	sp!, {r4, r5, r6, r7, r8, r9, sl, fp, pc}
        temp |= ((uint32_t)(GPIO_GET_INDEX(GPIOx)) << (4U * (position & 0x03U)));
 80008c2:	465d      	mov	r5, fp
 80008c4:	e7d5      	b.n	8000872 <HAL_GPIO_Init+0x13e>
 80008c6:	2501      	movs	r5, #1
 80008c8:	e7d3      	b.n	8000872 <HAL_GPIO_Init+0x13e>
 80008ca:	2502      	movs	r5, #2
 80008cc:	e7d1      	b.n	8000872 <HAL_GPIO_Init+0x13e>
 80008ce:	2503      	movs	r5, #3
 80008d0:	e7cf      	b.n	8000872 <HAL_GPIO_Init+0x13e>
 80008d2:	bf00      	nop
 80008d4:	40013c00 	.word	0x40013c00
 80008d8:	40020000 	.word	0x40020000
 80008dc:	40023800 	.word	0x40023800

080008e0 <HAL_PCD_Init>:
  *         parameters in the PCD_InitTypeDef and initialize the associated handle.
  * @param  hpcd PCD handle
  * @retval HAL status
  */
HAL_StatusTypeDef HAL_PCD_Init(PCD_HandleTypeDef *hpcd)
{ 
 80008e0:	b5f0      	push	{r4, r5, r6, r7, lr}
  uint32_t i = 0U;
  
  /* Check the PCD handle allocation */
  if(hpcd == NULL)
 80008e2:	4606      	mov	r6, r0
{ 
 80008e4:	b08b      	sub	sp, #44	; 0x2c
  if(hpcd == NULL)
 80008e6:	2800      	cmp	r0, #0
 80008e8:	d064      	beq.n	80009b4 <HAL_PCD_Init+0xd4>
  }
  
  /* Check the parameters */
  assert_param(IS_PCD_ALL_INSTANCE(hpcd->Instance));

  hpcd->State = HAL_PCD_STATE_BUSY;
 80008ea:	2303      	movs	r3, #3
  
  /* Init the low level hardware : GPIO, CLOCK, NVIC... */
  HAL_PCD_MspInit(hpcd);

  /* Disable the Interrupts */
 __HAL_PCD_DISABLE(hpcd);
 80008ec:	4634      	mov	r4, r6
  hpcd->State = HAL_PCD_STATE_BUSY;
 80008ee:	f880 33b9 	strb.w	r3, [r0, #953]	; 0x3b9
  HAL_PCD_MspInit(hpcd);
 80008f2:	f001 fab1 	bl	8001e58 <HAL_PCD_MspInit>
 __HAL_PCD_DISABLE(hpcd);
 80008f6:	f854 0b10 	ldr.w	r0, [r4], #16
 80008fa:	f000 fec1 	bl	8001680 <USB_DisableGlobalInt>
 
 /*Init the Core (common init.) */
 USB_CoreInit(hpcd->Instance, hpcd->Init);
 80008fe:	cc0f      	ldmia	r4!, {r0, r1, r2, r3}
 8000900:	466d      	mov	r5, sp
 8000902:	c50f      	stmia	r5!, {r0, r1, r2, r3}
 8000904:	cc0f      	ldmia	r4!, {r0, r1, r2, r3}
 8000906:	c50f      	stmia	r5!, {r0, r1, r2, r3}
 8000908:	e894 0003 	ldmia.w	r4, {r0, r1}
 800090c:	e885 0003 	stmia.w	r5, {r0, r1}
 8000910:	1d37      	adds	r7, r6, #4
 8000912:	e897 000e 	ldmia.w	r7, {r1, r2, r3}
 8000916:	6830      	ldr	r0, [r6, #0]
 8000918:	f000 fe72 	bl	8001600 <USB_CoreInit>
 
 /* Force Device Mode*/
 USB_SetCurrentMode(hpcd->Instance , USB_OTG_DEVICE_MODE);
 800091c:	2100      	movs	r1, #0
 800091e:	6830      	ldr	r0, [r6, #0]
 8000920:	f000 feb4 	bl	800168c <USB_SetCurrentMode>
 
 /* Init endpoints structures */
 for (i = 0U; i < 15U; i++)
 8000924:	2100      	movs	r1, #0
 8000926:	4633      	mov	r3, r6
 USB_SetCurrentMode(hpcd->Instance , USB_OTG_DEVICE_MODE);
 8000928:	4632      	mov	r2, r6
 800092a:	f106 0410 	add.w	r4, r6, #16
 {
   /* Init ep structure */
   hpcd->IN_ep[i].is_in = 1U;
 800092e:	2501      	movs	r5, #1
   hpcd->IN_ep[i].num = i;
   hpcd->IN_ep[i].tx_fifo_num = i;
   /* Control until ep is activated */
   hpcd->IN_ep[i].type = EP_TYPE_CTRL;
 8000930:	4608      	mov	r0, r1
   hpcd->IN_ep[i].num = i;
 8000932:	f882 1038 	strb.w	r1, [r2, #56]	; 0x38
   hpcd->IN_ep[i].tx_fifo_num = i;
 8000936:	87d1      	strh	r1, [r2, #62]	; 0x3e
 for (i = 0U; i < 15U; i++)
 8000938:	3101      	adds	r1, #1
 800093a:	290f      	cmp	r1, #15
   hpcd->IN_ep[i].is_in = 1U;
 800093c:	f882 5039 	strb.w	r5, [r2, #57]	; 0x39
   hpcd->IN_ep[i].type = EP_TYPE_CTRL;
 8000940:	f882 003b 	strb.w	r0, [r2, #59]	; 0x3b
   hpcd->IN_ep[i].maxpacket = 0U;
 8000944:	6410      	str	r0, [r2, #64]	; 0x40
   hpcd->IN_ep[i].xfer_buff = 0U;
 8000946:	6450      	str	r0, [r2, #68]	; 0x44
   hpcd->IN_ep[i].xfer_len = 0U;
 8000948:	64d0      	str	r0, [r2, #76]	; 0x4c
 800094a:	f102 021c 	add.w	r2, r2, #28
 for (i = 0U; i < 15U; i++)
 800094e:	d1f0      	bne.n	8000932 <HAL_PCD_Init+0x52>
   hpcd->OUT_ep[i].type = EP_TYPE_CTRL;
   hpcd->OUT_ep[i].maxpacket = 0U;
   hpcd->OUT_ep[i].xfer_buff = 0U;
   hpcd->OUT_ep[i].xfer_len = 0U;
   
   hpcd->Instance->DIEPTXF[i] = 0U;
 8000950:	2200      	movs	r2, #0
 8000952:	f8d6 e000 	ldr.w	lr, [r6]
   hpcd->OUT_ep[i].is_in = 0U;
 8000956:	4611      	mov	r1, r2
   hpcd->Instance->DIEPTXF[i] = 0U;
 8000958:	f102 0040 	add.w	r0, r2, #64	; 0x40
   hpcd->OUT_ep[i].num = i;
 800095c:	f883 21f8 	strb.w	r2, [r3, #504]	; 0x1f8
   hpcd->IN_ep[i].tx_fifo_num = i;
 8000960:	87da      	strh	r2, [r3, #62]	; 0x3e
   hpcd->Instance->DIEPTXF[i] = 0U;
 8000962:	eb0e 0080 	add.w	r0, lr, r0, lsl #2
 for (i = 0U; i < 15U; i++)
 8000966:	3201      	adds	r2, #1
 8000968:	2a0f      	cmp	r2, #15
   hpcd->OUT_ep[i].is_in = 0U;
 800096a:	f883 11f9 	strb.w	r1, [r3, #505]	; 0x1f9
   hpcd->OUT_ep[i].type = EP_TYPE_CTRL;
 800096e:	f883 11fb 	strb.w	r1, [r3, #507]	; 0x1fb
   hpcd->OUT_ep[i].maxpacket = 0U;
 8000972:	f8c3 1200 	str.w	r1, [r3, #512]	; 0x200
   hpcd->OUT_ep[i].xfer_buff = 0U;
 8000976:	f8c3 1204 	str.w	r1, [r3, #516]	; 0x204
   hpcd->OUT_ep[i].xfer_len = 0U;
 800097a:	f8c3 120c 	str.w	r1, [r3, #524]	; 0x20c
   hpcd->Instance->DIEPTXF[i] = 0U;
 800097e:	6041      	str	r1, [r0, #4]
 8000980:	f103 031c 	add.w	r3, r3, #28
 for (i = 0U; i < 15U; i++)
 8000984:	d1e8      	bne.n	8000958 <HAL_PCD_Init+0x78>
 }
 
 /* Init Device */
 USB_DevInit(hpcd->Instance, hpcd->Init);
 8000986:	cc0f      	ldmia	r4!, {r0, r1, r2, r3}
 8000988:	466d      	mov	r5, sp
 800098a:	c50f      	stmia	r5!, {r0, r1, r2, r3}
 800098c:	cc0f      	ldmia	r4!, {r0, r1, r2, r3}
 800098e:	c50f      	stmia	r5!, {r0, r1, r2, r3}
 8000990:	e894 0003 	ldmia.w	r4, {r0, r1}
 8000994:	e885 0003 	stmia.w	r5, {r0, r1}
 8000998:	4670      	mov	r0, lr
 800099a:	e897 000e 	ldmia.w	r7, {r1, r2, r3}
 800099e:	f000 fe8d 	bl	80016bc <USB_DevInit>
 
 hpcd->State= HAL_PCD_STATE_READY;
 80009a2:	2301      	movs	r3, #1
 80009a4:	f886 33b9 	strb.w	r3, [r6, #953]	; 0x3b9
 {
   HAL_PCDEx_ActivateBCD(hpcd);
 }
#endif /* USB_OTG_GCCFG_BCDEN */
 
 USB_DevDisconnect (hpcd->Instance);  
 80009a8:	6830      	ldr	r0, [r6, #0]
 80009aa:	f001 f9aa 	bl	8001d02 <USB_DevDisconnect>
 return HAL_OK;
 80009ae:	2000      	movs	r0, #0
}
 80009b0:	b00b      	add	sp, #44	; 0x2c
 80009b2:	bdf0      	pop	{r4, r5, r6, r7, pc}
    return HAL_ERROR;
 80009b4:	2001      	movs	r0, #1
 80009b6:	e7fb      	b.n	80009b0 <HAL_PCD_Init+0xd0>

080009b8 <HAL_PCD_Start>:
  * @param  hpcd PCD handle
  * @retval HAL status
  */
HAL_StatusTypeDef HAL_PCD_Start(PCD_HandleTypeDef *hpcd)
{ 
  __HAL_LOCK(hpcd); 
 80009b8:	f890 33b8 	ldrb.w	r3, [r0, #952]	; 0x3b8
 80009bc:	2b01      	cmp	r3, #1
{ 
 80009be:	b510      	push	{r4, lr}
 80009c0:	4604      	mov	r4, r0
  __HAL_LOCK(hpcd); 
 80009c2:	d00c      	beq.n	80009de <HAL_PCD_Start+0x26>
 80009c4:	2301      	movs	r3, #1
 80009c6:	f880 33b8 	strb.w	r3, [r0, #952]	; 0x3b8
  USB_DevConnect (hpcd->Instance);  
 80009ca:	6800      	ldr	r0, [r0, #0]
 80009cc:	f001 f98d 	bl	8001cea <USB_DevConnect>
  __HAL_PCD_ENABLE(hpcd);
 80009d0:	6820      	ldr	r0, [r4, #0]
 80009d2:	f000 fe4f 	bl	8001674 <USB_EnableGlobalInt>
  __HAL_UNLOCK(hpcd); 
 80009d6:	2000      	movs	r0, #0
 80009d8:	f884 03b8 	strb.w	r0, [r4, #952]	; 0x3b8
  return HAL_OK;
 80009dc:	bd10      	pop	{r4, pc}
  __HAL_LOCK(hpcd); 
 80009de:	2002      	movs	r0, #2
}
 80009e0:	bd10      	pop	{r4, pc}
	...

080009e4 <HAL_PCD_IRQHandler>:
  * @brief  Handles PCD interrupt request.
  * @param  hpcd PCD handle
  * @retval HAL status
  */
void HAL_PCD_IRQHandler(PCD_HandleTypeDef *hpcd)
{
 80009e4:	e92d 4ff0 	stmdb	sp!, {r4, r5, r6, r7, r8, r9, sl, fp, lr}
  USB_OTG_GlobalTypeDef *USBx = hpcd->Instance;
 80009e8:	f8d0 9000 	ldr.w	r9, [r0]
{
 80009ec:	b087      	sub	sp, #28
 80009ee:	4604      	mov	r4, r0
  uint32_t fifoemptymsk = 0U, temp = 0U;
  USB_OTG_EPTypeDef *ep;
  uint32_t hclk = 180000000U;
  
  /* ensure that we are in device mode */
  if (USB_GetMode(hpcd->Instance) == USB_OTG_MODE_DEVICE)
 80009f0:	4648      	mov	r0, r9
 80009f2:	f001 f9c0 	bl	8001d76 <USB_GetMode>
 80009f6:	9002      	str	r0, [sp, #8]
 80009f8:	2800      	cmp	r0, #0
 80009fa:	f040 812e 	bne.w	8000c5a <HAL_PCD_IRQHandler+0x276>
  {    
    /* avoid spurious interrupt */
    if(__HAL_PCD_IS_INVALID_INTERRUPT(hpcd)) 
 80009fe:	6820      	ldr	r0, [r4, #0]
 8000a00:	f001 f98b 	bl	8001d1a <USB_ReadInterrupts>
 8000a04:	2800      	cmp	r0, #0
 8000a06:	f000 8128 	beq.w	8000c5a <HAL_PCD_IRQHandler+0x276>
    {
      return;
    }
    
    if(__HAL_PCD_GET_FLAG(hpcd, USB_OTG_GINTSTS_MMIS))
 8000a0a:	6820      	ldr	r0, [r4, #0]
 8000a0c:	f001 f985 	bl	8001d1a <USB_ReadInterrupts>
 8000a10:	0785      	lsls	r5, r0, #30
    {
     /* incorrect mode, acknowledge the interrupt */
      __HAL_PCD_CLEAR_FLAG(hpcd, USB_OTG_GINTSTS_MMIS);
 8000a12:	bf48      	it	mi
 8000a14:	6822      	ldrmi	r2, [r4, #0]
    }
    
    if(__HAL_PCD_GET_FLAG(hpcd, USB_OTG_GINTSTS_OEPINT))
 8000a16:	6820      	ldr	r0, [r4, #0]
      __HAL_PCD_CLEAR_FLAG(hpcd, USB_OTG_GINTSTS_MMIS);
 8000a18:	bf42      	ittt	mi
 8000a1a:	6953      	ldrmi	r3, [r2, #20]
 8000a1c:	f003 0302 	andmi.w	r3, r3, #2
 8000a20:	6153      	strmi	r3, [r2, #20]
    if(__HAL_PCD_GET_FLAG(hpcd, USB_OTG_GINTSTS_OEPINT))
 8000a22:	f001 f97a 	bl	8001d1a <USB_ReadInterrupts>
 8000a26:	f410 2500 	ands.w	r5, r0, #524288	; 0x80000
 8000a2a:	d00a      	beq.n	8000a42 <HAL_PCD_IRQHandler+0x5e>
    {
      epnum = 0U;
      
      /* Read in the device interrupt bits */
      ep_intr = USB_ReadDevAllOutEpInterrupt(hpcd->Instance);
 8000a2c:	6820      	ldr	r0, [r4, #0]
 8000a2e:	f001 f978 	bl	8001d22 <USB_ReadDevAllOutEpInterrupt>
 8000a32:	f509 6630 	add.w	r6, r9, #2816	; 0xb00
 8000a36:	4607      	mov	r7, r0
 8000a38:	46a2      	mov	sl, r4
      epnum = 0U;
 8000a3a:	2500      	movs	r5, #0
      
      while ( ep_intr )
 8000a3c:	2f00      	cmp	r7, #0
 8000a3e:	f040 810f 	bne.w	8000c60 <HAL_PCD_IRQHandler+0x27c>
        epnum++;
        ep_intr >>= 1U;
      }
    }
    
    if(__HAL_PCD_GET_FLAG(hpcd, USB_OTG_GINTSTS_IEPINT))
 8000a42:	6820      	ldr	r0, [r4, #0]
 8000a44:	f001 f969 	bl	8001d1a <USB_ReadInterrupts>
 8000a48:	0341      	lsls	r1, r0, #13
 8000a4a:	d50b      	bpl.n	8000a64 <HAL_PCD_IRQHandler+0x80>
    {
      /* Read in the device interrupt bits */
      ep_intr = USB_ReadDevAllInEpInterrupt(hpcd->Instance);
 8000a4c:	6820      	ldr	r0, [r4, #0]
 8000a4e:	f001 f970 	bl	8001d32 <USB_ReadDevAllInEpInterrupt>
 8000a52:	4626      	mov	r6, r4
 8000a54:	9003      	str	r0, [sp, #12]
 8000a56:	f509 6810 	add.w	r8, r9, #2304	; 0x900
      
      epnum = 0U;
 8000a5a:	2500      	movs	r5, #0
      
      while ( ep_intr )
 8000a5c:	9b03      	ldr	r3, [sp, #12]
 8000a5e:	2b00      	cmp	r3, #0
 8000a60:	f040 813f 	bne.w	8000ce2 <HAL_PCD_IRQHandler+0x2fe>
        ep_intr >>= 1U;
      }
    }
    
    /* Handle Resume Interrupt */
    if(__HAL_PCD_GET_FLAG(hpcd, USB_OTG_GINTSTS_WKUINT))
 8000a64:	6820      	ldr	r0, [r4, #0]
 8000a66:	f001 f958 	bl	8001d1a <USB_ReadInterrupts>
 8000a6a:	2800      	cmp	r0, #0
 8000a6c:	da0d      	bge.n	8000a8a <HAL_PCD_IRQHandler+0xa6>
    {    
      /* Clear the Remote Wake-up Signaling */
      USBx_DEVICE->DCTL &= ~USB_OTG_DCTL_RWUSIG;
 8000a6e:	f8d9 3804 	ldr.w	r3, [r9, #2052]	; 0x804
 8000a72:	f023 0301 	bic.w	r3, r3, #1
 8000a76:	f8c9 3804 	str.w	r3, [r9, #2052]	; 0x804
        HAL_PCDEx_LPM_Callback(hpcd, PCD_LPM_L0_ACTIVE);
      }
      else
#endif /* USB_OTG_GLPMCFG_LPMEN */
      {
        HAL_PCD_ResumeCallback(hpcd);
 8000a7a:	4620      	mov	r0, r4
 8000a7c:	f001 fa60 	bl	8001f40 <HAL_PCD_ResumeCallback>
      }
      
      __HAL_PCD_CLEAR_FLAG(hpcd, USB_OTG_GINTSTS_WKUINT);
 8000a80:	6822      	ldr	r2, [r4, #0]
 8000a82:	6953      	ldr	r3, [r2, #20]
 8000a84:	f003 4300 	and.w	r3, r3, #2147483648	; 0x80000000
 8000a88:	6153      	str	r3, [r2, #20]
    }
    
    /* Handle Suspend Interrupt */
    if(__HAL_PCD_GET_FLAG(hpcd, USB_OTG_GINTSTS_USBSUSP))
 8000a8a:	6820      	ldr	r0, [r4, #0]
 8000a8c:	f001 f945 	bl	8001d1a <USB_ReadInterrupts>
 8000a90:	0506      	lsls	r6, r0, #20
 8000a92:	d50b      	bpl.n	8000aac <HAL_PCD_IRQHandler+0xc8>
    {
      if((USBx_DEVICE->DSTS & USB_OTG_DSTS_SUSPSTS) == USB_OTG_DSTS_SUSPSTS)
 8000a94:	f8d9 3808 	ldr.w	r3, [r9, #2056]	; 0x808
 8000a98:	07d8      	lsls	r0, r3, #31
 8000a9a:	d502      	bpl.n	8000aa2 <HAL_PCD_IRQHandler+0xbe>
      {
        
        HAL_PCD_SuspendCallback(hpcd);
 8000a9c:	4620      	mov	r0, r4
 8000a9e:	f001 fa3f 	bl	8001f20 <HAL_PCD_SuspendCallback>
      }
      __HAL_PCD_CLEAR_FLAG(hpcd, USB_OTG_GINTSTS_USBSUSP);
 8000aa2:	6822      	ldr	r2, [r4, #0]
 8000aa4:	6953      	ldr	r3, [r2, #20]
 8000aa6:	f403 6300 	and.w	r3, r3, #2048	; 0x800
 8000aaa:	6153      	str	r3, [r2, #20]
      }
    }
#endif /* USB_OTG_GLPMCFG_LPMEN */

    /* Handle Reset Interrupt */
    if(__HAL_PCD_GET_FLAG(hpcd, USB_OTG_GINTSTS_USBRST))
 8000aac:	6820      	ldr	r0, [r4, #0]
 8000aae:	f001 f934 	bl	8001d1a <USB_ReadInterrupts>
 8000ab2:	04c1      	lsls	r1, r0, #19
 8000ab4:	d537      	bpl.n	8000b26 <HAL_PCD_IRQHandler+0x142>
    {
      USBx_DEVICE->DCTL &= ~USB_OTG_DCTL_RWUSIG; 
 8000ab6:	f509 6600 	add.w	r6, r9, #2048	; 0x800
 8000aba:	6873      	ldr	r3, [r6, #4]
      USB_FlushTxFifo(hpcd->Instance , 0x10U);
 8000abc:	6820      	ldr	r0, [r4, #0]
      USBx_DEVICE->DCTL &= ~USB_OTG_DCTL_RWUSIG; 
 8000abe:	f023 0301 	bic.w	r3, r3, #1
 8000ac2:	6073      	str	r3, [r6, #4]
      USB_FlushTxFifo(hpcd->Instance , 0x10U);
 8000ac4:	2110      	movs	r1, #16
 8000ac6:	f000 fe95 	bl	80017f4 <USB_FlushTxFifo>
      
      for (i = 0U; i < hpcd->Init.dev_endpoints; i++)
 8000aca:	6861      	ldr	r1, [r4, #4]
 8000acc:	f509 6310 	add.w	r3, r9, #2304	; 0x900
      {
        USBx_INEP(i)->DIEPINT = 0xFFU;
 8000ad0:	22ff      	movs	r2, #255	; 0xff
      for (i = 0U; i < hpcd->Init.dev_endpoints; i++)
 8000ad2:	9802      	ldr	r0, [sp, #8]
 8000ad4:	4288      	cmp	r0, r1
 8000ad6:	f040 8192 	bne.w	8000dfe <HAL_PCD_IRQHandler+0x41a>
        USBx_OUTEP(i)->DOEPINT = 0xFFU;
      }
      USBx_DEVICE->DAINT = 0xFFFFFFFFU;
 8000ada:	f04f 33ff 	mov.w	r3, #4294967295
 8000ade:	61b3      	str	r3, [r6, #24]
      USBx_DEVICE->DAINTMSK |= 0x10001U;
 8000ae0:	69f3      	ldr	r3, [r6, #28]
 8000ae2:	f043 1301 	orr.w	r3, r3, #65537	; 0x10001
 8000ae6:	61f3      	str	r3, [r6, #28]
      
      if(hpcd->Init.use_dedicated_ep1)
 8000ae8:	6b23      	ldr	r3, [r4, #48]	; 0x30
 8000aea:	2b00      	cmp	r3, #0
 8000aec:	f000 818f 	beq.w	8000e0e <HAL_PCD_IRQHandler+0x42a>
      {
        USBx_DEVICE->DOUTEP1MSK |= (USB_OTG_DOEPMSK_STUPM | USB_OTG_DOEPMSK_XFRCM | USB_OTG_DOEPMSK_EPDM); 
 8000af0:	f8d6 3084 	ldr.w	r3, [r6, #132]	; 0x84
 8000af4:	f043 030b 	orr.w	r3, r3, #11
 8000af8:	f8c6 3084 	str.w	r3, [r6, #132]	; 0x84
        USBx_DEVICE->DINEP1MSK |= (USB_OTG_DIEPMSK_TOM | USB_OTG_DIEPMSK_XFRCM | USB_OTG_DIEPMSK_EPDM);  
 8000afc:	6c73      	ldr	r3, [r6, #68]	; 0x44
 8000afe:	f043 030b 	orr.w	r3, r3, #11
 8000b02:	6473      	str	r3, [r6, #68]	; 0x44
#endif /* USB_OTG_DOEPINT_OTEPSPR */
        USBx_DEVICE->DIEPMSK |= (USB_OTG_DIEPMSK_TOM | USB_OTG_DIEPMSK_XFRCM | USB_OTG_DIEPMSK_EPDM);
      }
      
      /* Set Default Address to 0 */
      USBx_DEVICE->DCFG &= ~USB_OTG_DCFG_DAD;
 8000b04:	f8d9 3800 	ldr.w	r3, [r9, #2048]	; 0x800
      
      /* setup EP0 to receive SETUP packets */
      USB_EP0_OutStart(hpcd->Instance, hpcd->Init.dma_enable, (uint8_t *)hpcd->Setup);
 8000b08:	7c21      	ldrb	r1, [r4, #16]
 8000b0a:	6820      	ldr	r0, [r4, #0]
      USBx_DEVICE->DCFG &= ~USB_OTG_DCFG_DAD;
 8000b0c:	f423 63fe 	bic.w	r3, r3, #2032	; 0x7f0
 8000b10:	f8c9 3800 	str.w	r3, [r9, #2048]	; 0x800
      USB_EP0_OutStart(hpcd->Instance, hpcd->Init.dma_enable, (uint8_t *)hpcd->Setup);
 8000b14:	f504 726f 	add.w	r2, r4, #956	; 0x3bc
 8000b18:	f001 f94c 	bl	8001db4 <USB_EP0_OutStart>
        
      __HAL_PCD_CLEAR_FLAG(hpcd, USB_OTG_GINTSTS_USBRST);
 8000b1c:	6822      	ldr	r2, [r4, #0]
 8000b1e:	6953      	ldr	r3, [r2, #20]
 8000b20:	f403 5380 	and.w	r3, r3, #4096	; 0x1000
 8000b24:	6153      	str	r3, [r2, #20]
    }
    
    /* Handle Enumeration done Interrupt */
    if(__HAL_PCD_GET_FLAG(hpcd, USB_OTG_GINTSTS_ENUMDNE))
 8000b26:	6820      	ldr	r0, [r4, #0]
 8000b28:	f001 f8f7 	bl	8001d1a <USB_ReadInterrupts>
 8000b2c:	0482      	lsls	r2, r0, #18
 8000b2e:	d51d      	bpl.n	8000b6c <HAL_PCD_IRQHandler+0x188>
    {
      USB_ActivateSetup(hpcd->Instance);
 8000b30:	6820      	ldr	r0, [r4, #0]
 8000b32:	f001 f924 	bl	8001d7e <USB_ActivateSetup>
      hpcd->Instance->GUSBCFG &= ~USB_OTG_GUSBCFG_TRDT;
 8000b36:	6820      	ldr	r0, [r4, #0]
 8000b38:	68c3      	ldr	r3, [r0, #12]
 8000b3a:	f423 5370 	bic.w	r3, r3, #15360	; 0x3c00
 8000b3e:	60c3      	str	r3, [r0, #12]
      
      if ( USB_GetDevSpeed(hpcd->Instance) == USB_OTG_SPEED_HIGH)
 8000b40:	f000 fe81 	bl	8001846 <USB_GetDevSpeed>
 8000b44:	2800      	cmp	r0, #0
 8000b46:	f040 816b 	bne.w	8000e20 <HAL_PCD_IRQHandler+0x43c>
      {
        hpcd->Init.speed            = USB_OTG_SPEED_HIGH;
        hpcd->Init.ep0_mps          = USB_OTG_HS_MAX_PACKET_SIZE ;    
        hpcd->Instance->GUSBCFG |= (uint32_t)((USBD_HS_TRDT_VALUE << 10U) & USB_OTG_GUSBCFG_TRDT);
 8000b4a:	6822      	ldr	r2, [r4, #0]
        hpcd->Init.speed            = USB_OTG_SPEED_HIGH;
 8000b4c:	60e0      	str	r0, [r4, #12]
        hpcd->Init.ep0_mps          = USB_OTG_HS_MAX_PACKET_SIZE ;    
 8000b4e:	f44f 7300 	mov.w	r3, #512	; 0x200
 8000b52:	6163      	str	r3, [r4, #20]
        hpcd->Instance->GUSBCFG |= (uint32_t)((USBD_HS_TRDT_VALUE << 10U) & USB_OTG_GUSBCFG_TRDT);
 8000b54:	68d3      	ldr	r3, [r2, #12]
 8000b56:	f443 5310 	orr.w	r3, r3, #9216	; 0x2400
 8000b5a:	60d3      	str	r3, [r2, #12]
          /* hclk Clock Range between 32-180 MHz */
          hpcd->Instance->GUSBCFG |= (uint32_t)((0x6U << 10U) & USB_OTG_GUSBCFG_TRDT);
        }  
      }
      
      HAL_PCD_ResetCallback(hpcd);
 8000b5c:	4620      	mov	r0, r4
 8000b5e:	f001 f9d2 	bl	8001f06 <HAL_PCD_ResetCallback>
      
      __HAL_PCD_CLEAR_FLAG(hpcd, USB_OTG_GINTSTS_ENUMDNE);
 8000b62:	6822      	ldr	r2, [r4, #0]
 8000b64:	6953      	ldr	r3, [r2, #20]
 8000b66:	f403 5300 	and.w	r3, r3, #8192	; 0x2000
 8000b6a:	6153      	str	r3, [r2, #20]
    }

    /* Handle RxQLevel Interrupt */
    if(__HAL_PCD_GET_FLAG(hpcd, USB_OTG_GINTSTS_RXFLVL))
 8000b6c:	6820      	ldr	r0, [r4, #0]
 8000b6e:	f001 f8d4 	bl	8001d1a <USB_ReadInterrupts>
 8000b72:	06c3      	lsls	r3, r0, #27
 8000b74:	d52b      	bpl.n	8000bce <HAL_PCD_IRQHandler+0x1ea>
    {
      USB_MASK_INTERRUPT(hpcd->Instance, USB_OTG_GINTSTS_RXFLVL);
 8000b76:	6822      	ldr	r2, [r4, #0]
 8000b78:	6993      	ldr	r3, [r2, #24]
 8000b7a:	f023 0310 	bic.w	r3, r3, #16
 8000b7e:	6193      	str	r3, [r2, #24]
      
      temp = USBx->GRXSTSP;
 8000b80:	f8d9 6020 	ldr.w	r6, [r9, #32]
      
      ep = &hpcd->OUT_ep[temp & USB_OTG_GRXSTSP_EPNUM];
      
      if(((temp & USB_OTG_GRXSTSP_PKTSTS) >> 17U) ==  STS_DATA_UPDT)
 8000b84:	f3c6 4343 	ubfx	r3, r6, #17, #4
 8000b88:	2b02      	cmp	r3, #2
      ep = &hpcd->OUT_ep[temp & USB_OTG_GRXSTSP_EPNUM];
 8000b8a:	f006 080f 	and.w	r8, r6, #15
      if(((temp & USB_OTG_GRXSTSP_PKTSTS) >> 17U) ==  STS_DATA_UPDT)
 8000b8e:	f040 81a8 	bne.w	8000ee2 <HAL_PCD_IRQHandler+0x4fe>
      {
        if((temp & USB_OTG_GRXSTSP_BCNT) != 0U)
 8000b92:	f647 73f0 	movw	r3, #32752	; 0x7ff0
 8000b96:	421e      	tst	r6, r3
 8000b98:	d014      	beq.n	8000bc4 <HAL_PCD_IRQHandler+0x1e0>
        {
          USB_ReadPacket(USBx, ep->xfer_buff, (temp & USB_OTG_GRXSTSP_BCNT) >> 4U);
 8000b9a:	271c      	movs	r7, #28
 8000b9c:	fb07 4708 	mla	r7, r7, r8, r4
 8000ba0:	f3c6 160a 	ubfx	r6, r6, #4, #11
 8000ba4:	4632      	mov	r2, r6
 8000ba6:	f8d7 1204 	ldr.w	r1, [r7, #516]	; 0x204
 8000baa:	4648      	mov	r0, r9
 8000bac:	f001 f847 	bl	8001c3e <USB_ReadPacket>
          ep->xfer_buff += (temp & USB_OTG_GRXSTSP_BCNT) >> 4U;
 8000bb0:	f8d7 3204 	ldr.w	r3, [r7, #516]	; 0x204
 8000bb4:	4433      	add	r3, r6
 8000bb6:	f8c7 3204 	str.w	r3, [r7, #516]	; 0x204
        }
      }
      else if (((temp & USB_OTG_GRXSTSP_PKTSTS) >> 17U) ==  STS_SETUP_UPDT)
      {
        USB_ReadPacket(USBx, (uint8_t *)hpcd->Setup, 8U);
        ep->xfer_count += (temp & USB_OTG_GRXSTSP_BCNT) >> 4U;
 8000bba:	f8d7 3210 	ldr.w	r3, [r7, #528]	; 0x210
 8000bbe:	441e      	add	r6, r3
 8000bc0:	f8c7 6210 	str.w	r6, [r7, #528]	; 0x210
      }
      USB_UNMASK_INTERRUPT(hpcd->Instance, USB_OTG_GINTSTS_RXFLVL);
 8000bc4:	6822      	ldr	r2, [r4, #0]
 8000bc6:	6993      	ldr	r3, [r2, #24]
 8000bc8:	f043 0310 	orr.w	r3, r3, #16
 8000bcc:	6193      	str	r3, [r2, #24]
    }
    
    /* Handle SOF Interrupt */
    if(__HAL_PCD_GET_FLAG(hpcd, USB_OTG_GINTSTS_SOF))
 8000bce:	6820      	ldr	r0, [r4, #0]
 8000bd0:	f001 f8a3 	bl	8001d1a <USB_ReadInterrupts>
 8000bd4:	0707      	lsls	r7, r0, #28
 8000bd6:	d507      	bpl.n	8000be8 <HAL_PCD_IRQHandler+0x204>
    {
      HAL_PCD_SOFCallback(hpcd);
 8000bd8:	4620      	mov	r0, r4
 8000bda:	f001 f990 	bl	8001efe <HAL_PCD_SOFCallback>
      __HAL_PCD_CLEAR_FLAG(hpcd, USB_OTG_GINTSTS_SOF);
 8000bde:	6822      	ldr	r2, [r4, #0]
 8000be0:	6953      	ldr	r3, [r2, #20]
 8000be2:	f003 0308 	and.w	r3, r3, #8
 8000be6:	6153      	str	r3, [r2, #20]
    }
    
    /* Handle Incomplete ISO IN Interrupt */
    if(__HAL_PCD_GET_FLAG(hpcd, USB_OTG_GINTSTS_IISOIXFR))
 8000be8:	6820      	ldr	r0, [r4, #0]
 8000bea:	f001 f896 	bl	8001d1a <USB_ReadInterrupts>
 8000bee:	02c6      	lsls	r6, r0, #11
 8000bf0:	d508      	bpl.n	8000c04 <HAL_PCD_IRQHandler+0x220>
    {
      HAL_PCD_ISOINIncompleteCallback(hpcd, epnum);
 8000bf2:	b2e9      	uxtb	r1, r5
 8000bf4:	4620      	mov	r0, r4
 8000bf6:	f001 f9ab 	bl	8001f50 <HAL_PCD_ISOINIncompleteCallback>
      __HAL_PCD_CLEAR_FLAG(hpcd, USB_OTG_GINTSTS_IISOIXFR);
 8000bfa:	6822      	ldr	r2, [r4, #0]
 8000bfc:	6953      	ldr	r3, [r2, #20]
 8000bfe:	f403 1380 	and.w	r3, r3, #1048576	; 0x100000
 8000c02:	6153      	str	r3, [r2, #20]
    } 
    
    /* Handle Incomplete ISO OUT Interrupt */
    if(__HAL_PCD_GET_FLAG(hpcd, USB_OTG_GINTSTS_PXFR_INCOMPISOOUT))
 8000c04:	6820      	ldr	r0, [r4, #0]
 8000c06:	f001 f888 	bl	8001d1a <USB_ReadInterrupts>
 8000c0a:	0280      	lsls	r0, r0, #10
 8000c0c:	d508      	bpl.n	8000c20 <HAL_PCD_IRQHandler+0x23c>
    {
      HAL_PCD_ISOOUTIncompleteCallback(hpcd, epnum);
 8000c0e:	b2e9      	uxtb	r1, r5
 8000c10:	4620      	mov	r0, r4
 8000c12:	f001 f999 	bl	8001f48 <HAL_PCD_ISOOUTIncompleteCallback>
      __HAL_PCD_CLEAR_FLAG(hpcd, USB_OTG_GINTSTS_PXFR_INCOMPISOOUT);
 8000c16:	6822      	ldr	r2, [r4, #0]
 8000c18:	6953      	ldr	r3, [r2, #20]
 8000c1a:	f403 1300 	and.w	r3, r3, #2097152	; 0x200000
 8000c1e:	6153      	str	r3, [r2, #20]
    } 
    
    /* Handle Connection event Interrupt */
    if(__HAL_PCD_GET_FLAG(hpcd, USB_OTG_GINTSTS_SRQINT))
 8000c20:	6820      	ldr	r0, [r4, #0]
 8000c22:	f001 f87a 	bl	8001d1a <USB_ReadInterrupts>
 8000c26:	0041      	lsls	r1, r0, #1
 8000c28:	d507      	bpl.n	8000c3a <HAL_PCD_IRQHandler+0x256>
    {
      HAL_PCD_ConnectCallback(hpcd);
 8000c2a:	4620      	mov	r0, r4
 8000c2c:	f001 f994 	bl	8001f58 <HAL_PCD_ConnectCallback>
      __HAL_PCD_CLEAR_FLAG(hpcd, USB_OTG_GINTSTS_SRQINT);
 8000c30:	6822      	ldr	r2, [r4, #0]
 8000c32:	6953      	ldr	r3, [r2, #20]
 8000c34:	f003 4380 	and.w	r3, r3, #1073741824	; 0x40000000
 8000c38:	6153      	str	r3, [r2, #20]
    } 
    
    /* Handle Disconnection event Interrupt */
    if(__HAL_PCD_GET_FLAG(hpcd, USB_OTG_GINTSTS_OTGINT))
 8000c3a:	6820      	ldr	r0, [r4, #0]
 8000c3c:	f001 f86d 	bl	8001d1a <USB_ReadInterrupts>
 8000c40:	0742      	lsls	r2, r0, #29
 8000c42:	d50a      	bpl.n	8000c5a <HAL_PCD_IRQHandler+0x276>
    {
      temp = hpcd->Instance->GOTGINT;
 8000c44:	6823      	ldr	r3, [r4, #0]
 8000c46:	685d      	ldr	r5, [r3, #4]
      
      if((temp & USB_OTG_GOTGINT_SEDET) == USB_OTG_GOTGINT_SEDET)
 8000c48:	076b      	lsls	r3, r5, #29
 8000c4a:	d502      	bpl.n	8000c52 <HAL_PCD_IRQHandler+0x26e>
      {
        HAL_PCD_DisconnectCallback(hpcd);
 8000c4c:	4620      	mov	r0, r4
 8000c4e:	f001 f987 	bl	8001f60 <HAL_PCD_DisconnectCallback>
      }
      hpcd->Instance->GOTGINT |= temp;
 8000c52:	6823      	ldr	r3, [r4, #0]
 8000c54:	685a      	ldr	r2, [r3, #4]
 8000c56:	4315      	orrs	r5, r2
 8000c58:	605d      	str	r5, [r3, #4]
    }
  }
}
 8000c5a:	b007      	add	sp, #28
 8000c5c:	e8bd 8ff0 	ldmia.w	sp!, {r4, r5, r6, r7, r8, r9, sl, fp, pc}
        if (ep_intr & 0x1U)
 8000c60:	07f8      	lsls	r0, r7, #31
 8000c62:	d538      	bpl.n	8000cd6 <HAL_PCD_IRQHandler+0x2f2>
          epint = USB_ReadDevOutEPInterrupt(hpcd->Instance, epnum);
 8000c64:	fa5f fb85 	uxtb.w	fp, r5
 8000c68:	4659      	mov	r1, fp
 8000c6a:	6820      	ldr	r0, [r4, #0]
 8000c6c:	f001 f869 	bl	8001d42 <USB_ReadDevOutEPInterrupt>
          if(( epint & USB_OTG_DOEPINT_XFRC) == USB_OTG_DOEPINT_XFRC)
 8000c70:	f010 0f01 	tst.w	r0, #1
          epint = USB_ReadDevOutEPInterrupt(hpcd->Instance, epnum);
 8000c74:	4680      	mov	r8, r0
          if(( epint & USB_OTG_DOEPINT_XFRC) == USB_OTG_DOEPINT_XFRC)
 8000c76:	d021      	beq.n	8000cbc <HAL_PCD_IRQHandler+0x2d8>
            if(hpcd->Init.dma_enable == 1U)
 8000c78:	6921      	ldr	r1, [r4, #16]
            CLEAR_OUT_EP_INTR(epnum, USB_OTG_DOEPINT_XFRC);
 8000c7a:	2301      	movs	r3, #1
            if(hpcd->Init.dma_enable == 1U)
 8000c7c:	4299      	cmp	r1, r3
            CLEAR_OUT_EP_INTR(epnum, USB_OTG_DOEPINT_XFRC);
 8000c7e:	60b3      	str	r3, [r6, #8]
            if(hpcd->Init.dma_enable == 1U)
 8000c80:	d10c      	bne.n	8000c9c <HAL_PCD_IRQHandler+0x2b8>
              hpcd->OUT_ep[epnum].xfer_count = hpcd->OUT_ep[epnum].maxpacket- (USBx_OUTEP(epnum)->DOEPTSIZ & USB_OTG_DOEPTSIZ_XFRSIZ); 
 8000c82:	6931      	ldr	r1, [r6, #16]
 8000c84:	f8da 0200 	ldr.w	r0, [sl, #512]	; 0x200
 8000c88:	f3c1 0112 	ubfx	r1, r1, #0, #19
 8000c8c:	1a41      	subs	r1, r0, r1
 8000c8e:	f8ca 1210 	str.w	r1, [sl, #528]	; 0x210
              hpcd->OUT_ep[epnum].xfer_buff += hpcd->OUT_ep[epnum].maxpacket;            
 8000c92:	f8da 1204 	ldr.w	r1, [sl, #516]	; 0x204
 8000c96:	4408      	add	r0, r1
 8000c98:	f8ca 0204 	str.w	r0, [sl, #516]	; 0x204
            HAL_PCD_DataOutStageCallback(hpcd, epnum);
 8000c9c:	4659      	mov	r1, fp
 8000c9e:	4620      	mov	r0, r4
 8000ca0:	f001 f91c 	bl	8001edc <HAL_PCD_DataOutStageCallback>
            if(hpcd->Init.dma_enable == 1U)
 8000ca4:	6921      	ldr	r1, [r4, #16]
 8000ca6:	2901      	cmp	r1, #1
 8000ca8:	d108      	bne.n	8000cbc <HAL_PCD_IRQHandler+0x2d8>
              if((epnum == 0U) && (hpcd->OUT_ep[epnum].xfer_len == 0U))
 8000caa:	b93d      	cbnz	r5, 8000cbc <HAL_PCD_IRQHandler+0x2d8>
 8000cac:	f8d4 220c 	ldr.w	r2, [r4, #524]	; 0x20c
 8000cb0:	b922      	cbnz	r2, 8000cbc <HAL_PCD_IRQHandler+0x2d8>
                USB_EP0_OutStart(hpcd->Instance, 1U, (uint8_t *)hpcd->Setup);
 8000cb2:	f504 726f 	add.w	r2, r4, #956	; 0x3bc
 8000cb6:	6820      	ldr	r0, [r4, #0]
 8000cb8:	f001 f87c 	bl	8001db4 <USB_EP0_OutStart>
          if(( epint & USB_OTG_DOEPINT_STUP) == USB_OTG_DOEPINT_STUP)
 8000cbc:	f018 0f08 	tst.w	r8, #8
 8000cc0:	d004      	beq.n	8000ccc <HAL_PCD_IRQHandler+0x2e8>
            HAL_PCD_SetupStageCallback(hpcd);
 8000cc2:	4620      	mov	r0, r4
 8000cc4:	f001 f904 	bl	8001ed0 <HAL_PCD_SetupStageCallback>
            CLEAR_OUT_EP_INTR(epnum, USB_OTG_DOEPINT_STUP);
 8000cc8:	2308      	movs	r3, #8
 8000cca:	60b3      	str	r3, [r6, #8]
          if(( epint & USB_OTG_DOEPINT_OTEPDIS) == USB_OTG_DOEPINT_OTEPDIS)
 8000ccc:	f018 0f10 	tst.w	r8, #16
            CLEAR_OUT_EP_INTR(epnum, USB_OTG_DOEPINT_OTEPDIS);
 8000cd0:	bf1c      	itt	ne
 8000cd2:	2310      	movne	r3, #16
 8000cd4:	60b3      	strne	r3, [r6, #8]
        epnum++;
 8000cd6:	3501      	adds	r5, #1
        ep_intr >>= 1U;
 8000cd8:	087f      	lsrs	r7, r7, #1
 8000cda:	3620      	adds	r6, #32
 8000cdc:	f10a 0a1c 	add.w	sl, sl, #28
 8000ce0:	e6ac      	b.n	8000a3c <HAL_PCD_IRQHandler+0x58>
        if (ep_intr & 0x1U) /* In ITR */
 8000ce2:	9b03      	ldr	r3, [sp, #12]
 8000ce4:	07da      	lsls	r2, r3, #31
 8000ce6:	d558      	bpl.n	8000d9a <HAL_PCD_IRQHandler+0x3b6>
          epint = USB_ReadDevInEPInterrupt(hpcd->Instance, epnum);
 8000ce8:	fa5f fb85 	uxtb.w	fp, r5
 8000cec:	4659      	mov	r1, fp
 8000cee:	6820      	ldr	r0, [r4, #0]
 8000cf0:	f001 f831 	bl	8001d56 <USB_ReadDevInEPInterrupt>
           if(( epint & USB_OTG_DIEPINT_XFRC) == USB_OTG_DIEPINT_XFRC)
 8000cf4:	07c3      	lsls	r3, r0, #31
          epint = USB_ReadDevInEPInterrupt(hpcd->Instance, epnum);
 8000cf6:	4607      	mov	r7, r0
           if(( epint & USB_OTG_DIEPINT_XFRC) == USB_OTG_DIEPINT_XFRC)
 8000cf8:	d520      	bpl.n	8000d3c <HAL_PCD_IRQHandler+0x358>
            USBx_DEVICE->DIEPEMPMSK &= ~fifoemptymsk;
 8000cfa:	f8d9 3834 	ldr.w	r3, [r9, #2100]	; 0x834
            fifoemptymsk = 0x1U << epnum;
 8000cfe:	2101      	movs	r1, #1
 8000d00:	40a9      	lsls	r1, r5
            USBx_DEVICE->DIEPEMPMSK &= ~fifoemptymsk;
 8000d02:	ea23 0301 	bic.w	r3, r3, r1
 8000d06:	f8c9 3834 	str.w	r3, [r9, #2100]	; 0x834
            CLEAR_IN_EP_INTR(epnum, USB_OTG_DIEPINT_XFRC);
 8000d0a:	2301      	movs	r3, #1
 8000d0c:	f8c8 3008 	str.w	r3, [r8, #8]
            if (hpcd->Init.dma_enable == 1U)
 8000d10:	6923      	ldr	r3, [r4, #16]
 8000d12:	2b01      	cmp	r3, #1
              hpcd->IN_ep[epnum].xfer_buff += hpcd->IN_ep[epnum].maxpacket; 
 8000d14:	bf01      	itttt	eq
 8000d16:	6c73      	ldreq	r3, [r6, #68]	; 0x44
 8000d18:	6c32      	ldreq	r2, [r6, #64]	; 0x40
 8000d1a:	189b      	addeq	r3, r3, r2
 8000d1c:	6473      	streq	r3, [r6, #68]	; 0x44
            HAL_PCD_DataInStageCallback(hpcd, epnum);
 8000d1e:	4659      	mov	r1, fp
 8000d20:	4620      	mov	r0, r4
 8000d22:	f001 f8e4 	bl	8001eee <HAL_PCD_DataInStageCallback>
            if (hpcd->Init.dma_enable == 1U)
 8000d26:	6921      	ldr	r1, [r4, #16]
 8000d28:	2901      	cmp	r1, #1
 8000d2a:	d107      	bne.n	8000d3c <HAL_PCD_IRQHandler+0x358>
              if((epnum == 0U) && (hpcd->IN_ep[epnum].xfer_len == 0U))
 8000d2c:	b935      	cbnz	r5, 8000d3c <HAL_PCD_IRQHandler+0x358>
 8000d2e:	6ce3      	ldr	r3, [r4, #76]	; 0x4c
 8000d30:	b923      	cbnz	r3, 8000d3c <HAL_PCD_IRQHandler+0x358>
                USB_EP0_OutStart(hpcd->Instance, 1U, (uint8_t *)hpcd->Setup);
 8000d32:	f504 726f 	add.w	r2, r4, #956	; 0x3bc
 8000d36:	6820      	ldr	r0, [r4, #0]
 8000d38:	f001 f83c 	bl	8001db4 <USB_EP0_OutStart>
           if(( epint & USB_OTG_DIEPINT_TOC) == USB_OTG_DIEPINT_TOC)
 8000d3c:	0738      	lsls	r0, r7, #28
            CLEAR_IN_EP_INTR(epnum, USB_OTG_DIEPINT_TOC);
 8000d3e:	bf44      	itt	mi
 8000d40:	2308      	movmi	r3, #8
 8000d42:	f8c8 3008 	strmi.w	r3, [r8, #8]
          if(( epint & USB_OTG_DIEPINT_ITTXFE) == USB_OTG_DIEPINT_ITTXFE)
 8000d46:	06f9      	lsls	r1, r7, #27
            CLEAR_IN_EP_INTR(epnum, USB_OTG_DIEPINT_ITTXFE);
 8000d48:	bf44      	itt	mi
 8000d4a:	2310      	movmi	r3, #16
 8000d4c:	f8c8 3008 	strmi.w	r3, [r8, #8]
          if(( epint & USB_OTG_DIEPINT_INEPNE) == USB_OTG_DIEPINT_INEPNE)
 8000d50:	067a      	lsls	r2, r7, #25
            CLEAR_IN_EP_INTR(epnum, USB_OTG_DIEPINT_INEPNE);
 8000d52:	bf44      	itt	mi
 8000d54:	2340      	movmi	r3, #64	; 0x40
 8000d56:	f8c8 3008 	strmi.w	r3, [r8, #8]
          if(( epint & USB_OTG_DIEPINT_EPDISD) == USB_OTG_DIEPINT_EPDISD)
 8000d5a:	07bb      	lsls	r3, r7, #30
            CLEAR_IN_EP_INTR(epnum, USB_OTG_DIEPINT_EPDISD);
 8000d5c:	bf44      	itt	mi
 8000d5e:	2302      	movmi	r3, #2
 8000d60:	f8c8 3008 	strmi.w	r3, [r8, #8]
          if(( epint & USB_OTG_DIEPINT_TXFE) == USB_OTG_DIEPINT_TXFE)
 8000d64:	063f      	lsls	r7, r7, #24
 8000d66:	d518      	bpl.n	8000d9a <HAL_PCD_IRQHandler+0x3b6>
  * @param  epnum  endpoint number   
  * @retval HAL status
  */
static HAL_StatusTypeDef PCD_WriteEmptyTxFifo(PCD_HandleTypeDef *hpcd, uint32_t epnum)
{
  USB_OTG_GlobalTypeDef *USBx = hpcd->Instance;  
 8000d68:	6823      	ldr	r3, [r4, #0]
 8000d6a:	9304      	str	r3, [sp, #16]
  int32_t len = 0U;
  uint32_t len32b;
  uint32_t fifoemptymsk = 0U;

  ep = &hpcd->IN_ep[epnum];
  len = ep->xfer_len - ep->xfer_count;
 8000d6c:	6cf7      	ldr	r7, [r6, #76]	; 0x4c
 8000d6e:	6d33      	ldr	r3, [r6, #80]	; 0x50
 8000d70:	1aff      	subs	r7, r7, r3
 8000d72:	6c33      	ldr	r3, [r6, #64]	; 0x40
 8000d74:	429f      	cmp	r7, r3
 8000d76:	bf28      	it	cs
 8000d78:	461f      	movcs	r7, r3
  }
  
  
  len32b = (len + 3U) / 4U;
 
  while  (((USBx_INEP(epnum)->DTXFSTS & USB_OTG_DTXFSTS_INEPTFSAV) > len32b) &&
 8000d7a:	9b04      	ldr	r3, [sp, #16]
 8000d7c:	f503 6310 	add.w	r3, r3, #2304	; 0x900
  len32b = (len + 3U) / 4U;
 8000d80:	f107 0a03 	add.w	sl, r7, #3
  while  (((USBx_INEP(epnum)->DTXFSTS & USB_OTG_DTXFSTS_INEPTFSAV) > len32b) &&
 8000d84:	eb03 1345 	add.w	r3, r3, r5, lsl #5
  len32b = (len + 3U) / 4U;
 8000d88:	ea4f 0a9a 	mov.w	sl, sl, lsr #2
  while  (((USBx_INEP(epnum)->DTXFSTS & USB_OTG_DTXFSTS_INEPTFSAV) > len32b) &&
 8000d8c:	9305      	str	r3, [sp, #20]
 8000d8e:	9b05      	ldr	r3, [sp, #20]
 8000d90:	699b      	ldr	r3, [r3, #24]
 8000d92:	b29b      	uxth	r3, r3
 8000d94:	4553      	cmp	r3, sl
 8000d96:	d808      	bhi.n	8000daa <HAL_PCD_IRQHandler+0x3c6>
    
    ep->xfer_buff  += len;
    ep->xfer_count += len;
  }
  
  if(len <= 0U)
 8000d98:	b32f      	cbz	r7, 8000de6 <HAL_PCD_IRQHandler+0x402>
        ep_intr >>= 1U;
 8000d9a:	9b03      	ldr	r3, [sp, #12]
 8000d9c:	085b      	lsrs	r3, r3, #1
        epnum++;
 8000d9e:	3501      	adds	r5, #1
        ep_intr >>= 1U;
 8000da0:	9303      	str	r3, [sp, #12]
 8000da2:	361c      	adds	r6, #28
 8000da4:	f108 0820 	add.w	r8, r8, #32
 8000da8:	e658      	b.n	8000a5c <HAL_PCD_IRQHandler+0x78>
          (ep->xfer_count < ep->xfer_len) &&
 8000daa:	6d32      	ldr	r2, [r6, #80]	; 0x50
 8000dac:	6cf3      	ldr	r3, [r6, #76]	; 0x4c
  while  (((USBx_INEP(epnum)->DTXFSTS & USB_OTG_DTXFSTS_INEPTFSAV) > len32b) &&
 8000dae:	4293      	cmp	r3, r2
 8000db0:	d9f2      	bls.n	8000d98 <HAL_PCD_IRQHandler+0x3b4>
          (ep->xfer_count < ep->xfer_len) &&
 8000db2:	2b00      	cmp	r3, #0
 8000db4:	d0f0      	beq.n	8000d98 <HAL_PCD_IRQHandler+0x3b4>
 8000db6:	6c37      	ldr	r7, [r6, #64]	; 0x40
    USB_WritePacket(USBx, ep->xfer_buff, epnum, len, hpcd->Init.dma_enable); 
 8000db8:	9804      	ldr	r0, [sp, #16]
    len = ep->xfer_len - ep->xfer_count;
 8000dba:	1a9b      	subs	r3, r3, r2
 8000dbc:	429f      	cmp	r7, r3
 8000dbe:	bf28      	it	cs
 8000dc0:	461f      	movcs	r7, r3
    USB_WritePacket(USBx, ep->xfer_buff, epnum, len, hpcd->Init.dma_enable); 
 8000dc2:	7c23      	ldrb	r3, [r4, #16]
 8000dc4:	9300      	str	r3, [sp, #0]
 8000dc6:	465a      	mov	r2, fp
 8000dc8:	b2bb      	uxth	r3, r7
 8000dca:	6c71      	ldr	r1, [r6, #68]	; 0x44
 8000dcc:	f000 ff23 	bl	8001c16 <USB_WritePacket>
    ep->xfer_buff  += len;
 8000dd0:	6c73      	ldr	r3, [r6, #68]	; 0x44
 8000dd2:	443b      	add	r3, r7
 8000dd4:	6473      	str	r3, [r6, #68]	; 0x44
    ep->xfer_count += len;
 8000dd6:	6d33      	ldr	r3, [r6, #80]	; 0x50
    len32b = (len + 3U) / 4U;
 8000dd8:	f107 0a03 	add.w	sl, r7, #3
    ep->xfer_count += len;
 8000ddc:	443b      	add	r3, r7
    len32b = (len + 3U) / 4U;
 8000dde:	ea4f 0a9a 	mov.w	sl, sl, lsr #2
    ep->xfer_count += len;
 8000de2:	6533      	str	r3, [r6, #80]	; 0x50
 8000de4:	e7d3      	b.n	8000d8e <HAL_PCD_IRQHandler+0x3aa>
  {
    fifoemptymsk = 0x1U << epnum;
    USBx_DEVICE->DIEPEMPMSK &= ~fifoemptymsk;
 8000de6:	9b04      	ldr	r3, [sp, #16]
    fifoemptymsk = 0x1U << epnum;
 8000de8:	2201      	movs	r2, #1
    USBx_DEVICE->DIEPEMPMSK &= ~fifoemptymsk;
 8000dea:	f503 6b00 	add.w	fp, r3, #2048	; 0x800
 8000dee:	f8d3 3834 	ldr.w	r3, [r3, #2100]	; 0x834
    fifoemptymsk = 0x1U << epnum;
 8000df2:	40aa      	lsls	r2, r5
    USBx_DEVICE->DIEPEMPMSK &= ~fifoemptymsk;
 8000df4:	ea23 0302 	bic.w	r3, r3, r2
 8000df8:	f8cb 3034 	str.w	r3, [fp, #52]	; 0x34
 8000dfc:	e7cd      	b.n	8000d9a <HAL_PCD_IRQHandler+0x3b6>
      for (i = 0U; i < hpcd->Init.dev_endpoints; i++)
 8000dfe:	9802      	ldr	r0, [sp, #8]
        USBx_INEP(i)->DIEPINT = 0xFFU;
 8000e00:	609a      	str	r2, [r3, #8]
      for (i = 0U; i < hpcd->Init.dev_endpoints; i++)
 8000e02:	3001      	adds	r0, #1
        USBx_OUTEP(i)->DOEPINT = 0xFFU;
 8000e04:	f8c3 2208 	str.w	r2, [r3, #520]	; 0x208
      for (i = 0U; i < hpcd->Init.dev_endpoints; i++)
 8000e08:	9002      	str	r0, [sp, #8]
 8000e0a:	3320      	adds	r3, #32
 8000e0c:	e661      	b.n	8000ad2 <HAL_PCD_IRQHandler+0xee>
        USBx_DEVICE->DOEPMSK |= (USB_OTG_DOEPMSK_STUPM | USB_OTG_DOEPMSK_XFRCM | USB_OTG_DOEPMSK_EPDM);
 8000e0e:	6973      	ldr	r3, [r6, #20]
 8000e10:	f043 030b 	orr.w	r3, r3, #11
 8000e14:	6173      	str	r3, [r6, #20]
        USBx_DEVICE->DIEPMSK |= (USB_OTG_DIEPMSK_TOM | USB_OTG_DIEPMSK_XFRCM | USB_OTG_DIEPMSK_EPDM);
 8000e16:	6933      	ldr	r3, [r6, #16]
 8000e18:	f043 030b 	orr.w	r3, r3, #11
 8000e1c:	6133      	str	r3, [r6, #16]
 8000e1e:	e671      	b.n	8000b04 <HAL_PCD_IRQHandler+0x120>
        hpcd->Init.speed            = USB_OTG_SPEED_FULL;
 8000e20:	2303      	movs	r3, #3
 8000e22:	60e3      	str	r3, [r4, #12]
        hpcd->Init.ep0_mps          = USB_OTG_FS_MAX_PACKET_SIZE ;  
 8000e24:	2340      	movs	r3, #64	; 0x40
 8000e26:	6163      	str	r3, [r4, #20]
        hclk = HAL_RCC_GetHCLKFreq();
 8000e28:	f000 fbe4 	bl	80015f4 <HAL_RCC_GetHCLKFreq>
        if((hclk >= 14200000U)&&(hclk < 15000000U))
 8000e2c:	4b34      	ldr	r3, [pc, #208]	; (8000f00 <HAL_PCD_IRQHandler+0x51c>)
 8000e2e:	4a35      	ldr	r2, [pc, #212]	; (8000f04 <HAL_PCD_IRQHandler+0x520>)
 8000e30:	4403      	add	r3, r0
 8000e32:	4293      	cmp	r3, r2
 8000e34:	6823      	ldr	r3, [r4, #0]
 8000e36:	d804      	bhi.n	8000e42 <HAL_PCD_IRQHandler+0x45e>
          hpcd->Instance->GUSBCFG |= (uint32_t)((0xFU << 10U) & USB_OTG_GUSBCFG_TRDT);
 8000e38:	68da      	ldr	r2, [r3, #12]
 8000e3a:	f442 5270 	orr.w	r2, r2, #15360	; 0x3c00
          hpcd->Instance->GUSBCFG |= (uint32_t)((0x6U << 10U) & USB_OTG_GUSBCFG_TRDT);
 8000e3e:	60da      	str	r2, [r3, #12]
 8000e40:	e68c      	b.n	8000b5c <HAL_PCD_IRQHandler+0x178>
        else if((hclk >= 15000000U)&&(hclk < 16000000U))
 8000e42:	4a31      	ldr	r2, [pc, #196]	; (8000f08 <HAL_PCD_IRQHandler+0x524>)
 8000e44:	4931      	ldr	r1, [pc, #196]	; (8000f0c <HAL_PCD_IRQHandler+0x528>)
 8000e46:	4402      	add	r2, r0
 8000e48:	428a      	cmp	r2, r1
 8000e4a:	d803      	bhi.n	8000e54 <HAL_PCD_IRQHandler+0x470>
          hpcd->Instance->GUSBCFG |= (uint32_t)((0xEU << 10U) & USB_OTG_GUSBCFG_TRDT);
 8000e4c:	68da      	ldr	r2, [r3, #12]
 8000e4e:	f442 5260 	orr.w	r2, r2, #14336	; 0x3800
 8000e52:	e7f4      	b.n	8000e3e <HAL_PCD_IRQHandler+0x45a>
        else if((hclk >= 16000000U)&&(hclk < 17200000U))
 8000e54:	f5a0 0274 	sub.w	r2, r0, #15990784	; 0xf40000
 8000e58:	492d      	ldr	r1, [pc, #180]	; (8000f10 <HAL_PCD_IRQHandler+0x52c>)
 8000e5a:	f5a2 5210 	sub.w	r2, r2, #9216	; 0x2400
 8000e5e:	428a      	cmp	r2, r1
 8000e60:	d803      	bhi.n	8000e6a <HAL_PCD_IRQHandler+0x486>
          hpcd->Instance->GUSBCFG |= (uint32_t)((0xDU << 10U) & USB_OTG_GUSBCFG_TRDT);
 8000e62:	68da      	ldr	r2, [r3, #12]
 8000e64:	f442 5250 	orr.w	r2, r2, #13312	; 0x3400
 8000e68:	e7e9      	b.n	8000e3e <HAL_PCD_IRQHandler+0x45a>
        else if((hclk >= 17200000U)&&(hclk < 18500000U))
 8000e6a:	f1a0 7283 	sub.w	r2, r0, #17170432	; 0x1060000
 8000e6e:	4929      	ldr	r1, [pc, #164]	; (8000f14 <HAL_PCD_IRQHandler+0x530>)
 8000e70:	f5a2 42e7 	sub.w	r2, r2, #29568	; 0x7380
 8000e74:	428a      	cmp	r2, r1
 8000e76:	d803      	bhi.n	8000e80 <HAL_PCD_IRQHandler+0x49c>
          hpcd->Instance->GUSBCFG |= (uint32_t)((0xCU << 10U) & USB_OTG_GUSBCFG_TRDT);
 8000e78:	68da      	ldr	r2, [r3, #12]
 8000e7a:	f442 5240 	orr.w	r2, r2, #12288	; 0x3000
 8000e7e:	e7de      	b.n	8000e3e <HAL_PCD_IRQHandler+0x45a>
        else if((hclk >= 18500000U)&&(hclk < 20000000U))
 8000e80:	4a25      	ldr	r2, [pc, #148]	; (8000f18 <HAL_PCD_IRQHandler+0x534>)
 8000e82:	4926      	ldr	r1, [pc, #152]	; (8000f1c <HAL_PCD_IRQHandler+0x538>)
 8000e84:	4402      	add	r2, r0
 8000e86:	428a      	cmp	r2, r1
 8000e88:	d803      	bhi.n	8000e92 <HAL_PCD_IRQHandler+0x4ae>
          hpcd->Instance->GUSBCFG |= (uint32_t)((0xBU << 10U) & USB_OTG_GUSBCFG_TRDT);
 8000e8a:	68da      	ldr	r2, [r3, #12]
 8000e8c:	f442 5230 	orr.w	r2, r2, #11264	; 0x2c00
 8000e90:	e7d5      	b.n	8000e3e <HAL_PCD_IRQHandler+0x45a>
        else if((hclk >= 20000000U)&&(hclk < 21800000U))
 8000e92:	4a23      	ldr	r2, [pc, #140]	; (8000f20 <HAL_PCD_IRQHandler+0x53c>)
 8000e94:	4923      	ldr	r1, [pc, #140]	; (8000f24 <HAL_PCD_IRQHandler+0x540>)
 8000e96:	4402      	add	r2, r0
 8000e98:	428a      	cmp	r2, r1
 8000e9a:	d803      	bhi.n	8000ea4 <HAL_PCD_IRQHandler+0x4c0>
          hpcd->Instance->GUSBCFG |= (uint32_t)((0xAU << 10U) & USB_OTG_GUSBCFG_TRDT);
 8000e9c:	68da      	ldr	r2, [r3, #12]
 8000e9e:	f442 5220 	orr.w	r2, r2, #10240	; 0x2800
 8000ea2:	e7cc      	b.n	8000e3e <HAL_PCD_IRQHandler+0x45a>
        else if((hclk >= 21800000U)&&(hclk < 24000000U))
 8000ea4:	4a20      	ldr	r2, [pc, #128]	; (8000f28 <HAL_PCD_IRQHandler+0x544>)
 8000ea6:	4921      	ldr	r1, [pc, #132]	; (8000f2c <HAL_PCD_IRQHandler+0x548>)
 8000ea8:	4402      	add	r2, r0
 8000eaa:	428a      	cmp	r2, r1
 8000eac:	d803      	bhi.n	8000eb6 <HAL_PCD_IRQHandler+0x4d2>
          hpcd->Instance->GUSBCFG |= (uint32_t)((0x9U << 10U) & USB_OTG_GUSBCFG_TRDT);
 8000eae:	68da      	ldr	r2, [r3, #12]
 8000eb0:	f442 5210 	orr.w	r2, r2, #9216	; 0x2400
 8000eb4:	e7c3      	b.n	8000e3e <HAL_PCD_IRQHandler+0x45a>
        else if((hclk >= 24000000U)&&(hclk < 27700000U))
 8000eb6:	f1a0 72b7 	sub.w	r2, r0, #23986176	; 0x16e0000
 8000eba:	491d      	ldr	r1, [pc, #116]	; (8000f30 <HAL_PCD_IRQHandler+0x54c>)
 8000ebc:	f5a2 5258 	sub.w	r2, r2, #13824	; 0x3600
 8000ec0:	428a      	cmp	r2, r1
 8000ec2:	d803      	bhi.n	8000ecc <HAL_PCD_IRQHandler+0x4e8>
          hpcd->Instance->GUSBCFG |= (uint32_t)((0x8U << 10U) & USB_OTG_GUSBCFG_TRDT);
 8000ec4:	68da      	ldr	r2, [r3, #12]
 8000ec6:	f442 5200 	orr.w	r2, r2, #8192	; 0x2000
 8000eca:	e7b8      	b.n	8000e3e <HAL_PCD_IRQHandler+0x45a>
        else if((hclk >= 27700000U)&&(hclk < 32000000U))
 8000ecc:	4a19      	ldr	r2, [pc, #100]	; (8000f34 <HAL_PCD_IRQHandler+0x550>)
 8000ece:	491a      	ldr	r1, [pc, #104]	; (8000f38 <HAL_PCD_IRQHandler+0x554>)
 8000ed0:	4402      	add	r2, r0
 8000ed2:	428a      	cmp	r2, r1
          hpcd->Instance->GUSBCFG |= (uint32_t)((0x7U << 10U) & USB_OTG_GUSBCFG_TRDT);
 8000ed4:	68da      	ldr	r2, [r3, #12]
 8000ed6:	bf94      	ite	ls
 8000ed8:	f442 52e0 	orrls.w	r2, r2, #7168	; 0x1c00
          hpcd->Instance->GUSBCFG |= (uint32_t)((0x6U << 10U) & USB_OTG_GUSBCFG_TRDT);
 8000edc:	f442 52c0 	orrhi.w	r2, r2, #6144	; 0x1800
 8000ee0:	e7ad      	b.n	8000e3e <HAL_PCD_IRQHandler+0x45a>
      else if (((temp & USB_OTG_GRXSTSP_PKTSTS) >> 17U) ==  STS_SETUP_UPDT)
 8000ee2:	2b06      	cmp	r3, #6
 8000ee4:	f47f ae6e 	bne.w	8000bc4 <HAL_PCD_IRQHandler+0x1e0>
        USB_ReadPacket(USBx, (uint8_t *)hpcd->Setup, 8U);
 8000ee8:	2208      	movs	r2, #8
 8000eea:	f504 716f 	add.w	r1, r4, #956	; 0x3bc
 8000eee:	4648      	mov	r0, r9
        ep->xfer_count += (temp & USB_OTG_GRXSTSP_BCNT) >> 4U;
 8000ef0:	271c      	movs	r7, #28
        USB_ReadPacket(USBx, (uint8_t *)hpcd->Setup, 8U);
 8000ef2:	f000 fea4 	bl	8001c3e <USB_ReadPacket>
        ep->xfer_count += (temp & USB_OTG_GRXSTSP_BCNT) >> 4U;
 8000ef6:	fb07 4708 	mla	r7, r7, r8, r4
 8000efa:	f3c6 160a 	ubfx	r6, r6, #4, #11
 8000efe:	e65c      	b.n	8000bba <HAL_PCD_IRQHandler+0x1d6>
 8000f00:	ff275340 	.word	0xff275340
 8000f04:	000c34ff 	.word	0x000c34ff
 8000f08:	ff1b1e40 	.word	0xff1b1e40
 8000f0c:	000f423f 	.word	0x000f423f
 8000f10:	00124f7f 	.word	0x00124f7f
 8000f14:	0013d61f 	.word	0x0013d61f
 8000f18:	fee5b660 	.word	0xfee5b660
 8000f1c:	0016e35f 	.word	0x0016e35f
 8000f20:	feced300 	.word	0xfeced300
 8000f24:	001b773f 	.word	0x001b773f
 8000f28:	feb35bc0 	.word	0xfeb35bc0
 8000f2c:	002191bf 	.word	0x002191bf
 8000f30:	0038751f 	.word	0x0038751f
 8000f34:	fe5954e0 	.word	0xfe5954e0
 8000f38:	00419cdf 	.word	0x00419cdf

08000f3c <HAL_PCD_SetAddress>:
  __HAL_LOCK(hpcd); 
 8000f3c:	f890 33b8 	ldrb.w	r3, [r0, #952]	; 0x3b8
 8000f40:	2b01      	cmp	r3, #1
{
 8000f42:	b510      	push	{r4, lr}
 8000f44:	4604      	mov	r4, r0
  __HAL_LOCK(hpcd); 
 8000f46:	d009      	beq.n	8000f5c <HAL_PCD_SetAddress+0x20>
 8000f48:	2301      	movs	r3, #1
 8000f4a:	f880 33b8 	strb.w	r3, [r0, #952]	; 0x3b8
  USB_SetDevAddress(hpcd->Instance, address);
 8000f4e:	6800      	ldr	r0, [r0, #0]
 8000f50:	f000 febb 	bl	8001cca <USB_SetDevAddress>
  __HAL_UNLOCK(hpcd);   
 8000f54:	2000      	movs	r0, #0
 8000f56:	f884 03b8 	strb.w	r0, [r4, #952]	; 0x3b8
  return HAL_OK;
 8000f5a:	bd10      	pop	{r4, pc}
  __HAL_LOCK(hpcd); 
 8000f5c:	2002      	movs	r0, #2
}
 8000f5e:	bd10      	pop	{r4, pc}

08000f60 <HAL_PCD_EP_Open>:
{
 8000f60:	b570      	push	{r4, r5, r6, lr}
  if ((ep_addr & 0x80) == 0x80)
 8000f62:	b24e      	sxtb	r6, r1
 8000f64:	2e00      	cmp	r6, #0
{
 8000f66:	4604      	mov	r4, r0
 8000f68:	f04f 051c 	mov.w	r5, #28
 8000f6c:	f001 007f 	and.w	r0, r1, #127	; 0x7f
    ep = &hpcd->IN_ep[ep_addr & 0x7F];
 8000f70:	bfb5      	itete	lt
 8000f72:	fb05 4100 	mlalt	r1, r5, r0, r4
    ep = &hpcd->OUT_ep[ep_addr & 0x7F];
 8000f76:	fb05 4101 	mlage	r1, r5, r1, r4
    ep = &hpcd->IN_ep[ep_addr & 0x7F];
 8000f7a:	3138      	addlt	r1, #56	; 0x38
    ep = &hpcd->OUT_ep[ep_addr & 0x7F];
 8000f7c:	f501 71fc 	addge.w	r1, r1, #504	; 0x1f8
  ep->num   = ep_addr & 0x7F;
 8000f80:	b2c0      	uxtb	r0, r0
  if (ep->is_in)
 8000f82:	2e00      	cmp	r6, #0
    ep->tx_fifo_num = ep->num;
 8000f84:	bfb8      	it	lt
 8000f86:	80c8      	strhlt	r0, [r1, #6]
  if (ep_type == EP_TYPE_BULK )
 8000f88:	2b02      	cmp	r3, #2
  ep->type = ep_type;
 8000f8a:	70cb      	strb	r3, [r1, #3]
  ep->is_in = (0x80 & ep_addr) != 0;
 8000f8c:	ea4f 75d6 	mov.w	r5, r6, lsr #31
    ep->data_pid_start = 0U;
 8000f90:	bf04      	itt	eq
 8000f92:	2300      	moveq	r3, #0
 8000f94:	710b      	strbeq	r3, [r1, #4]
  ep->num   = ep_addr & 0x7F;
 8000f96:	7008      	strb	r0, [r1, #0]
  ep->is_in = (0x80 & ep_addr) != 0;
 8000f98:	704d      	strb	r5, [r1, #1]
  __HAL_LOCK(hpcd); 
 8000f9a:	f894 33b8 	ldrb.w	r3, [r4, #952]	; 0x3b8
  ep->maxpacket = ep_mps;
 8000f9e:	608a      	str	r2, [r1, #8]
  __HAL_LOCK(hpcd); 
 8000fa0:	2b01      	cmp	r3, #1
 8000fa2:	d009      	beq.n	8000fb8 <HAL_PCD_EP_Open+0x58>
 8000fa4:	2301      	movs	r3, #1
 8000fa6:	f884 33b8 	strb.w	r3, [r4, #952]	; 0x3b8
  USB_ActivateEndpoint(hpcd->Instance , ep);
 8000faa:	6820      	ldr	r0, [r4, #0]
 8000fac:	f000 fc66 	bl	800187c <USB_ActivateEndpoint>
  __HAL_UNLOCK(hpcd);   
 8000fb0:	2000      	movs	r0, #0
 8000fb2:	f884 03b8 	strb.w	r0, [r4, #952]	; 0x3b8
  return ret;
 8000fb6:	bd70      	pop	{r4, r5, r6, pc}
  __HAL_LOCK(hpcd); 
 8000fb8:	2002      	movs	r0, #2
}
 8000fba:	bd70      	pop	{r4, r5, r6, pc}

08000fbc <HAL_PCD_EP_Close>:
  if ((ep_addr & 0x80) == 0x80)
 8000fbc:	b24b      	sxtb	r3, r1
 8000fbe:	2b00      	cmp	r3, #0
{  
 8000fc0:	b510      	push	{r4, lr}
 8000fc2:	f04f 021c 	mov.w	r2, #28
 8000fc6:	4604      	mov	r4, r0
 8000fc8:	f001 007f 	and.w	r0, r1, #127	; 0x7f
    ep = &hpcd->IN_ep[ep_addr & 0x7F];
 8000fcc:	bfb5      	itete	lt
 8000fce:	fb02 4100 	mlalt	r1, r2, r0, r4
    ep = &hpcd->OUT_ep[ep_addr & 0x7F];
 8000fd2:	fb02 4101 	mlage	r1, r2, r1, r4
    ep = &hpcd->IN_ep[ep_addr & 0x7F];
 8000fd6:	3138      	addlt	r1, #56	; 0x38
    ep = &hpcd->OUT_ep[ep_addr & 0x7F];
 8000fd8:	f501 71fc 	addge.w	r1, r1, #504	; 0x1f8
  ep->is_in = (0x80 & ep_addr) != 0;
 8000fdc:	0fdb      	lsrs	r3, r3, #31
  ep->num   = ep_addr & 0x7F;
 8000fde:	7008      	strb	r0, [r1, #0]
  ep->is_in = (0x80 & ep_addr) != 0;
 8000fe0:	704b      	strb	r3, [r1, #1]
  __HAL_LOCK(hpcd); 
 8000fe2:	f894 33b8 	ldrb.w	r3, [r4, #952]	; 0x3b8
 8000fe6:	2b01      	cmp	r3, #1
 8000fe8:	d009      	beq.n	8000ffe <HAL_PCD_EP_Close+0x42>
 8000fea:	2301      	movs	r3, #1
 8000fec:	f884 33b8 	strb.w	r3, [r4, #952]	; 0x3b8
  USB_DeactivateEndpoint(hpcd->Instance , ep);
 8000ff0:	6820      	ldr	r0, [r4, #0]
 8000ff2:	f000 fc82 	bl	80018fa <USB_DeactivateEndpoint>
  __HAL_UNLOCK(hpcd);   
 8000ff6:	2000      	movs	r0, #0
 8000ff8:	f884 03b8 	strb.w	r0, [r4, #952]	; 0x3b8
  return HAL_OK;
 8000ffc:	bd10      	pop	{r4, pc}
  __HAL_LOCK(hpcd); 
 8000ffe:	2002      	movs	r0, #2
}
 8001000:	bd10      	pop	{r4, pc}

08001002 <HAL_PCD_EP_Receive>:
{
 8001002:	b538      	push	{r3, r4, r5, lr}
 8001004:	f001 057f 	and.w	r5, r1, #127	; 0x7f
  ep = &hpcd->OUT_ep[ep_addr & 0x7F];
 8001008:	241c      	movs	r4, #28
 800100a:	fb04 0105 	mla	r1, r4, r5, r0
  ep->xfer_buff = pBuf;  
 800100e:	fb04 0405 	mla	r4, r4, r5, r0
  ep = &hpcd->OUT_ep[ep_addr & 0x7F];
 8001012:	f501 71fc 	add.w	r1, r1, #504	; 0x1f8
  ep->xfer_len = len;
 8001016:	f8c4 320c 	str.w	r3, [r4, #524]	; 0x20c
  ep->xfer_count = 0U;
 800101a:	2300      	movs	r3, #0
  ep->xfer_buff = pBuf;  
 800101c:	f8c4 2204 	str.w	r2, [r4, #516]	; 0x204
  ep->xfer_count = 0U;
 8001020:	f8c4 3210 	str.w	r3, [r4, #528]	; 0x210
  ep->is_in = 0U;
 8001024:	f884 31f9 	strb.w	r3, [r4, #505]	; 0x1f9
  ep->num = ep_addr & 0x7F;
 8001028:	f884 51f8 	strb.w	r5, [r4, #504]	; 0x1f8
  if (hpcd->Init.dma_enable == 1U)
 800102c:	6903      	ldr	r3, [r0, #16]
    USB_EP0StartXfer(hpcd->Instance , ep, hpcd->Init.dma_enable);
 800102e:	6800      	ldr	r0, [r0, #0]
  if (hpcd->Init.dma_enable == 1U)
 8001030:	2b01      	cmp	r3, #1
    ep->dma_addr = (uint32_t)pBuf;  
 8001032:	bf08      	it	eq
 8001034:	f8c4 2208 	streq.w	r2, [r4, #520]	; 0x208
 8001038:	b2da      	uxtb	r2, r3
  if ((ep_addr & 0x7F) == 0)
 800103a:	b91d      	cbnz	r5, 8001044 <HAL_PCD_EP_Receive+0x42>
    USB_EP0StartXfer(hpcd->Instance , ep, hpcd->Init.dma_enable);
 800103c:	f000 fd7e 	bl	8001b3c <USB_EP0StartXfer>
}
 8001040:	2000      	movs	r0, #0
 8001042:	bd38      	pop	{r3, r4, r5, pc}
    USB_EPStartXfer(hpcd->Instance , ep, hpcd->Init.dma_enable);
 8001044:	f000 fcb4 	bl	80019b0 <USB_EPStartXfer>
 8001048:	e7fa      	b.n	8001040 <HAL_PCD_EP_Receive+0x3e>

0800104a <HAL_PCD_EP_Transmit>:
{
 800104a:	b538      	push	{r3, r4, r5, lr}
 800104c:	f001 057f 	and.w	r5, r1, #127	; 0x7f
  ep = &hpcd->IN_ep[ep_addr & 0x7F];
 8001050:	241c      	movs	r4, #28
 8001052:	fb04 0105 	mla	r1, r4, r5, r0
  ep->xfer_buff = pBuf;  
 8001056:	fb04 0405 	mla	r4, r4, r5, r0
  ep = &hpcd->IN_ep[ep_addr & 0x7F];
 800105a:	3138      	adds	r1, #56	; 0x38
  ep->xfer_len = len;
 800105c:	64e3      	str	r3, [r4, #76]	; 0x4c
  ep->xfer_count = 0U;
 800105e:	2300      	movs	r3, #0
 8001060:	6523      	str	r3, [r4, #80]	; 0x50
  ep->is_in = 1U;
 8001062:	2301      	movs	r3, #1
  ep->xfer_buff = pBuf;  
 8001064:	6462      	str	r2, [r4, #68]	; 0x44
  ep->is_in = 1U;
 8001066:	f884 3039 	strb.w	r3, [r4, #57]	; 0x39
  ep->num = ep_addr & 0x7F;
 800106a:	f884 5038 	strb.w	r5, [r4, #56]	; 0x38
  if (hpcd->Init.dma_enable == 1U)
 800106e:	6903      	ldr	r3, [r0, #16]
    USB_EP0StartXfer(hpcd->Instance , ep, hpcd->Init.dma_enable);
 8001070:	6800      	ldr	r0, [r0, #0]
  if (hpcd->Init.dma_enable == 1U)
 8001072:	2b01      	cmp	r3, #1
    ep->dma_addr = (uint32_t)pBuf;  
 8001074:	bf08      	it	eq
 8001076:	64a2      	streq	r2, [r4, #72]	; 0x48
 8001078:	b2da      	uxtb	r2, r3
  if ((ep_addr & 0x7F) == 0)
 800107a:	b91d      	cbnz	r5, 8001084 <HAL_PCD_EP_Transmit+0x3a>
    USB_EP0StartXfer(hpcd->Instance , ep, hpcd->Init.dma_enable);
 800107c:	f000 fd5e 	bl	8001b3c <USB_EP0StartXfer>
}
 8001080:	2000      	movs	r0, #0
 8001082:	bd38      	pop	{r3, r4, r5, pc}
    USB_EPStartXfer(hpcd->Instance , ep, hpcd->Init.dma_enable);
 8001084:	f000 fc94 	bl	80019b0 <USB_EPStartXfer>
 8001088:	e7fa      	b.n	8001080 <HAL_PCD_EP_Transmit+0x36>

0800108a <HAL_PCD_EP_SetStall>:
{
 800108a:	b538      	push	{r3, r4, r5, lr}
  if ((0x80 & ep_addr) == 0x80)
 800108c:	b24b      	sxtb	r3, r1
 800108e:	2b00      	cmp	r3, #0
 8001090:	f001 057f 	and.w	r5, r1, #127	; 0x7f
 8001094:	f04f 021c 	mov.w	r2, #28
    ep = &hpcd->IN_ep[ep_addr & 0x7F];
 8001098:	bfb5      	itete	lt
 800109a:	fb02 0105 	mlalt	r1, r2, r5, r0
    ep = &hpcd->OUT_ep[ep_addr];
 800109e:	fb02 0101 	mlage	r1, r2, r1, r0
    ep = &hpcd->IN_ep[ep_addr & 0x7F];
 80010a2:	3138      	addlt	r1, #56	; 0x38
    ep = &hpcd->OUT_ep[ep_addr];
 80010a4:	f501 71fc 	addge.w	r1, r1, #504	; 0x1f8
  ep->is_stall = 1U;
 80010a8:	2201      	movs	r2, #1
  ep->is_in = ((ep_addr & 0x80) == 0x80);
 80010aa:	0fdb      	lsrs	r3, r3, #31
  ep->num   = ep_addr & 0x7F;
 80010ac:	b2ed      	uxtb	r5, r5
  ep->is_stall = 1U;
 80010ae:	708a      	strb	r2, [r1, #2]
  ep->num   = ep_addr & 0x7F;
 80010b0:	700d      	strb	r5, [r1, #0]
  ep->is_in = ((ep_addr & 0x80) == 0x80);
 80010b2:	704b      	strb	r3, [r1, #1]
  __HAL_LOCK(hpcd); 
 80010b4:	f890 33b8 	ldrb.w	r3, [r0, #952]	; 0x3b8
 80010b8:	4293      	cmp	r3, r2
{
 80010ba:	4604      	mov	r4, r0
  __HAL_LOCK(hpcd); 
 80010bc:	d00f      	beq.n	80010de <HAL_PCD_EP_SetStall+0x54>
 80010be:	f880 23b8 	strb.w	r2, [r0, #952]	; 0x3b8
  USB_EPSetStall(hpcd->Instance , ep);
 80010c2:	6800      	ldr	r0, [r0, #0]
 80010c4:	f000 fdc9 	bl	8001c5a <USB_EPSetStall>
  if((ep_addr & 0x7F) == 0)
 80010c8:	b92d      	cbnz	r5, 80010d6 <HAL_PCD_EP_SetStall+0x4c>
    USB_EP0_OutStart(hpcd->Instance, hpcd->Init.dma_enable, (uint8_t *)hpcd->Setup);
 80010ca:	f504 726f 	add.w	r2, r4, #956	; 0x3bc
 80010ce:	7c21      	ldrb	r1, [r4, #16]
 80010d0:	6820      	ldr	r0, [r4, #0]
 80010d2:	f000 fe6f 	bl	8001db4 <USB_EP0_OutStart>
  __HAL_UNLOCK(hpcd); 
 80010d6:	2000      	movs	r0, #0
 80010d8:	f884 03b8 	strb.w	r0, [r4, #952]	; 0x3b8
  return HAL_OK;
 80010dc:	bd38      	pop	{r3, r4, r5, pc}
  __HAL_LOCK(hpcd); 
 80010de:	2002      	movs	r0, #2
}
 80010e0:	bd38      	pop	{r3, r4, r5, pc}

080010e2 <HAL_PCD_EP_ClrStall>:
{
 80010e2:	b538      	push	{r3, r4, r5, lr}
  if ((0x80 & ep_addr) == 0x80)
 80010e4:	b24b      	sxtb	r3, r1
 80010e6:	2b00      	cmp	r3, #0
{
 80010e8:	4605      	mov	r5, r0
 80010ea:	f04f 021c 	mov.w	r2, #28
 80010ee:	f001 007f 	and.w	r0, r1, #127	; 0x7f
    ep = &hpcd->IN_ep[ep_addr & 0x7F];
 80010f2:	bfb5      	itete	lt
 80010f4:	fb02 5100 	mlalt	r1, r2, r0, r5
    ep = &hpcd->OUT_ep[ep_addr];
 80010f8:	fb02 5101 	mlage	r1, r2, r1, r5
    ep = &hpcd->IN_ep[ep_addr & 0x7F];
 80010fc:	3138      	addlt	r1, #56	; 0x38
    ep = &hpcd->OUT_ep[ep_addr];
 80010fe:	f501 71fc 	addge.w	r1, r1, #504	; 0x1f8
  ep->is_in = ((ep_addr & 0x80) == 0x80);
 8001102:	0fdb      	lsrs	r3, r3, #31
  ep->is_stall = 0U;
 8001104:	2400      	movs	r4, #0
 8001106:	708c      	strb	r4, [r1, #2]
  ep->num   = ep_addr & 0x7F;
 8001108:	7008      	strb	r0, [r1, #0]
  ep->is_in = ((ep_addr & 0x80) == 0x80);
 800110a:	704b      	strb	r3, [r1, #1]
  __HAL_LOCK(hpcd); 
 800110c:	f895 33b8 	ldrb.w	r3, [r5, #952]	; 0x3b8
 8001110:	2b01      	cmp	r3, #1
 8001112:	d009      	beq.n	8001128 <HAL_PCD_EP_ClrStall+0x46>
 8001114:	2301      	movs	r3, #1
 8001116:	f885 33b8 	strb.w	r3, [r5, #952]	; 0x3b8
  USB_EPClearStall(hpcd->Instance , ep);
 800111a:	6828      	ldr	r0, [r5, #0]
 800111c:	f000 fdbc 	bl	8001c98 <USB_EPClearStall>
  __HAL_UNLOCK(hpcd); 
 8001120:	f885 43b8 	strb.w	r4, [r5, #952]	; 0x3b8
  return HAL_OK;
 8001124:	4620      	mov	r0, r4
 8001126:	bd38      	pop	{r3, r4, r5, pc}
  __HAL_LOCK(hpcd); 
 8001128:	2002      	movs	r0, #2
}
 800112a:	bd38      	pop	{r3, r4, r5, pc}

0800112c <HAL_PCDEx_SetTxFiFo>:
         --> Txn should be configured with the minimum space of 16 words
     The FIFO is used optimally when used TxFIFOs are allocated in the top 
         of the FIFO.Ex: use EP1 and EP2 as IN instead of EP1 and EP3 as IN ones.
     When DMA is used 3n * FIFO locations should be reserved for internal DMA registers */
  
  Tx_Offset = hpcd->Instance->GRXFSIZ;
 800112c:	6800      	ldr	r0, [r0, #0]
{
 800112e:	b570      	push	{r4, r5, r6, lr}
  Tx_Offset = hpcd->Instance->GRXFSIZ;
 8001130:	6a43      	ldr	r3, [r0, #36]	; 0x24
  
  if(fifo == 0)
 8001132:	b921      	cbnz	r1, 800113e <HAL_PCDEx_SetTxFiFo+0x12>
  {
    hpcd->Instance->DIEPTXF0_HNPTXFSIZ = (uint32_t)(((uint32_t)size << 16U) | Tx_Offset);
 8001134:	ea43 4302 	orr.w	r3, r3, r2, lsl #16
 8001138:	6283      	str	r3, [r0, #40]	; 0x28
    /* Multiply Tx_Size by 2 to get higher performance */
    hpcd->Instance->DIEPTXF[fifo - 1] = (uint32_t)(((uint32_t)size << 16U) | Tx_Offset);        
  }
  
  return HAL_OK;
}
 800113a:	2000      	movs	r0, #0
 800113c:	bd70      	pop	{r4, r5, r6, pc}
    Tx_Offset += (hpcd->Instance->DIEPTXF0_HNPTXFSIZ) >> 16U;
 800113e:	6a84      	ldr	r4, [r0, #40]	; 0x28
    for (i = 0; i < (fifo - 1); i++)
 8001140:	2500      	movs	r5, #0
    Tx_Offset += (hpcd->Instance->DIEPTXF0_HNPTXFSIZ) >> 16U;
 8001142:	eb03 4314 	add.w	r3, r3, r4, lsr #16
    for (i = 0; i < (fifo - 1); i++)
 8001146:	1e4e      	subs	r6, r1, #1
 8001148:	b2ec      	uxtb	r4, r5
 800114a:	42b4      	cmp	r4, r6
 800114c:	f105 0501 	add.w	r5, r5, #1
 8001150:	db06      	blt.n	8001160 <HAL_PCDEx_SetTxFiFo+0x34>
    hpcd->Instance->DIEPTXF[fifo - 1] = (uint32_t)(((uint32_t)size << 16U) | Tx_Offset);        
 8001152:	313f      	adds	r1, #63	; 0x3f
 8001154:	eb00 0081 	add.w	r0, r0, r1, lsl #2
 8001158:	ea43 4302 	orr.w	r3, r3, r2, lsl #16
 800115c:	6043      	str	r3, [r0, #4]
 800115e:	e7ec      	b.n	800113a <HAL_PCDEx_SetTxFiFo+0xe>
      Tx_Offset += (hpcd->Instance->DIEPTXF[i] >> 16U);
 8001160:	3440      	adds	r4, #64	; 0x40
 8001162:	eb00 0484 	add.w	r4, r0, r4, lsl #2
 8001166:	6864      	ldr	r4, [r4, #4]
 8001168:	eb03 4314 	add.w	r3, r3, r4, lsr #16
 800116c:	e7ec      	b.n	8001148 <HAL_PCDEx_SetTxFiFo+0x1c>

0800116e <HAL_PCDEx_SetRxFiFo>:
  * @param  size Size of Rx fifo
  * @retval HAL status
  */
HAL_StatusTypeDef HAL_PCDEx_SetRxFiFo(PCD_HandleTypeDef *hpcd, uint16_t size)
{
  hpcd->Instance->GRXFSIZ = size;
 800116e:	6803      	ldr	r3, [r0, #0]
  
  return HAL_OK;
}
 8001170:	2000      	movs	r0, #0
  hpcd->Instance->GRXFSIZ = size;
 8001172:	6259      	str	r1, [r3, #36]	; 0x24
}
 8001174:	4770      	bx	lr
	...

08001178 <HAL_RCC_OscConfig>:
  *         supported by this API. User should request a transition to HSE Off
  *         first and then HSE On or HSE Bypass.
  * @retval HAL status
  */
__weak HAL_StatusTypeDef HAL_RCC_OscConfig(RCC_OscInitTypeDef  *RCC_OscInitStruct)
{
 8001178:	b5f7      	push	{r0, r1, r2, r4, r5, r6, r7, lr}
  uint32_t tickstart;

  /* Check Null pointer */
  if(RCC_OscInitStruct == NULL)
 800117a:	4604      	mov	r4, r0
 800117c:	b910      	cbnz	r0, 8001184 <HAL_RCC_OscConfig+0xc>
  {
    return HAL_ERROR;
 800117e:	2001      	movs	r0, #1
    {
      return HAL_ERROR;
    }
  }
  return HAL_OK;
}
 8001180:	b003      	add	sp, #12
 8001182:	bdf0      	pop	{r4, r5, r6, r7, pc}
  if(((RCC_OscInitStruct->OscillatorType) & RCC_OSCILLATORTYPE_HSE) == RCC_OSCILLATORTYPE_HSE)
 8001184:	6803      	ldr	r3, [r0, #0]
 8001186:	07d8      	lsls	r0, r3, #31
 8001188:	d43b      	bmi.n	8001202 <HAL_RCC_OscConfig+0x8a>
  if(((RCC_OscInitStruct->OscillatorType) & RCC_OSCILLATORTYPE_HSI) == RCC_OSCILLATORTYPE_HSI)
 800118a:	6823      	ldr	r3, [r4, #0]
 800118c:	0799      	lsls	r1, r3, #30
 800118e:	f100 8084 	bmi.w	800129a <HAL_RCC_OscConfig+0x122>
  if(((RCC_OscInitStruct->OscillatorType) & RCC_OSCILLATORTYPE_LSI) == RCC_OSCILLATORTYPE_LSI)
 8001192:	6823      	ldr	r3, [r4, #0]
 8001194:	071e      	lsls	r6, r3, #28
 8001196:	f100 80c6 	bmi.w	8001326 <HAL_RCC_OscConfig+0x1ae>
  if(((RCC_OscInitStruct->OscillatorType) & RCC_OSCILLATORTYPE_LSE) == RCC_OSCILLATORTYPE_LSE)
 800119a:	6823      	ldr	r3, [r4, #0]
 800119c:	075d      	lsls	r5, r3, #29
 800119e:	d52a      	bpl.n	80011f6 <HAL_RCC_OscConfig+0x7e>
    __HAL_RCC_PWR_CLK_ENABLE();
 80011a0:	2300      	movs	r3, #0
 80011a2:	9301      	str	r3, [sp, #4]
 80011a4:	4baa      	ldr	r3, [pc, #680]	; (8001450 <HAL_RCC_OscConfig+0x2d8>)
    PWR->CR |= PWR_CR_DBP;
 80011a6:	4dab      	ldr	r5, [pc, #684]	; (8001454 <HAL_RCC_OscConfig+0x2dc>)
    __HAL_RCC_PWR_CLK_ENABLE();
 80011a8:	6c1a      	ldr	r2, [r3, #64]	; 0x40
 80011aa:	f042 5280 	orr.w	r2, r2, #268435456	; 0x10000000
 80011ae:	641a      	str	r2, [r3, #64]	; 0x40
 80011b0:	6c1b      	ldr	r3, [r3, #64]	; 0x40
 80011b2:	f003 5380 	and.w	r3, r3, #268435456	; 0x10000000
 80011b6:	9301      	str	r3, [sp, #4]
 80011b8:	9b01      	ldr	r3, [sp, #4]
    PWR->CR |= PWR_CR_DBP;
 80011ba:	682b      	ldr	r3, [r5, #0]
 80011bc:	f443 7380 	orr.w	r3, r3, #256	; 0x100
 80011c0:	602b      	str	r3, [r5, #0]
    tickstart = HAL_GetTick();
 80011c2:	f7ff fa29 	bl	8000618 <HAL_GetTick>
 80011c6:	4606      	mov	r6, r0
    while((PWR->CR & PWR_CR_DBP) == RESET)
 80011c8:	682b      	ldr	r3, [r5, #0]
 80011ca:	05da      	lsls	r2, r3, #23
 80011cc:	f140 80cd 	bpl.w	800136a <HAL_RCC_OscConfig+0x1f2>
    __HAL_RCC_LSE_CONFIG(RCC_OscInitStruct->LSEState);
 80011d0:	68a3      	ldr	r3, [r4, #8]
 80011d2:	4d9f      	ldr	r5, [pc, #636]	; (8001450 <HAL_RCC_OscConfig+0x2d8>)
 80011d4:	2b01      	cmp	r3, #1
 80011d6:	f040 80cf 	bne.w	8001378 <HAL_RCC_OscConfig+0x200>
 80011da:	6f2b      	ldr	r3, [r5, #112]	; 0x70
 80011dc:	f043 0301 	orr.w	r3, r3, #1
 80011e0:	672b      	str	r3, [r5, #112]	; 0x70
      tickstart = HAL_GetTick();
 80011e2:	f7ff fa19 	bl	8000618 <HAL_GetTick>
      while(__HAL_RCC_GET_FLAG(RCC_FLAG_LSERDY) == RESET)
 80011e6:	4d9a      	ldr	r5, [pc, #616]	; (8001450 <HAL_RCC_OscConfig+0x2d8>)
      tickstart = HAL_GetTick();
 80011e8:	4606      	mov	r6, r0
        if((HAL_GetTick() - tickstart ) > RCC_LSE_TIMEOUT_VALUE)
 80011ea:	f241 3788 	movw	r7, #5000	; 0x1388
      while(__HAL_RCC_GET_FLAG(RCC_FLAG_LSERDY) == RESET)
 80011ee:	6f2b      	ldr	r3, [r5, #112]	; 0x70
 80011f0:	079b      	lsls	r3, r3, #30
 80011f2:	f140 80e2 	bpl.w	80013ba <HAL_RCC_OscConfig+0x242>
  if ((RCC_OscInitStruct->PLL.PLLState) != RCC_PLL_NONE)
 80011f6:	69a2      	ldr	r2, [r4, #24]
 80011f8:	2a00      	cmp	r2, #0
 80011fa:	f040 80e5 	bne.w	80013c8 <HAL_RCC_OscConfig+0x250>
  return HAL_OK;
 80011fe:	2000      	movs	r0, #0
 8001200:	e7be      	b.n	8001180 <HAL_RCC_OscConfig+0x8>
    if((__HAL_RCC_GET_SYSCLK_SOURCE() == RCC_CFGR_SWS_HSE) ||\
 8001202:	4b93      	ldr	r3, [pc, #588]	; (8001450 <HAL_RCC_OscConfig+0x2d8>)
 8001204:	689a      	ldr	r2, [r3, #8]
 8001206:	f002 020c 	and.w	r2, r2, #12
 800120a:	2a04      	cmp	r2, #4
 800120c:	d007      	beq.n	800121e <HAL_RCC_OscConfig+0xa6>
      ((__HAL_RCC_GET_SYSCLK_SOURCE() == RCC_CFGR_SWS_PLL) && ((RCC->PLLCFGR & RCC_PLLCFGR_PLLSRC) == RCC_PLLCFGR_PLLSRC_HSE)))
 800120e:	689a      	ldr	r2, [r3, #8]
 8001210:	f002 020c 	and.w	r2, r2, #12
    if((__HAL_RCC_GET_SYSCLK_SOURCE() == RCC_CFGR_SWS_HSE) ||\
 8001214:	2a08      	cmp	r2, #8
 8001216:	d10a      	bne.n	800122e <HAL_RCC_OscConfig+0xb6>
      ((__HAL_RCC_GET_SYSCLK_SOURCE() == RCC_CFGR_SWS_PLL) && ((RCC->PLLCFGR & RCC_PLLCFGR_PLLSRC) == RCC_PLLCFGR_PLLSRC_HSE)))
 8001218:	685b      	ldr	r3, [r3, #4]
 800121a:	025a      	lsls	r2, r3, #9
 800121c:	d507      	bpl.n	800122e <HAL_RCC_OscConfig+0xb6>
      if((__HAL_RCC_GET_FLAG(RCC_FLAG_HSERDY) != RESET) && (RCC_OscInitStruct->HSEState == RCC_HSE_OFF))
 800121e:	4b8c      	ldr	r3, [pc, #560]	; (8001450 <HAL_RCC_OscConfig+0x2d8>)
 8001220:	681b      	ldr	r3, [r3, #0]
 8001222:	039b      	lsls	r3, r3, #14
 8001224:	d5b1      	bpl.n	800118a <HAL_RCC_OscConfig+0x12>
 8001226:	6863      	ldr	r3, [r4, #4]
 8001228:	2b00      	cmp	r3, #0
 800122a:	d1ae      	bne.n	800118a <HAL_RCC_OscConfig+0x12>
 800122c:	e7a7      	b.n	800117e <HAL_RCC_OscConfig+0x6>
      __HAL_RCC_HSE_CONFIG(RCC_OscInitStruct->HSEState);
 800122e:	6863      	ldr	r3, [r4, #4]
 8001230:	4d87      	ldr	r5, [pc, #540]	; (8001450 <HAL_RCC_OscConfig+0x2d8>)
 8001232:	f5b3 3f80 	cmp.w	r3, #65536	; 0x10000
 8001236:	d111      	bne.n	800125c <HAL_RCC_OscConfig+0xe4>
 8001238:	682b      	ldr	r3, [r5, #0]
 800123a:	f443 3380 	orr.w	r3, r3, #65536	; 0x10000
 800123e:	602b      	str	r3, [r5, #0]
        tickstart = HAL_GetTick();
 8001240:	f7ff f9ea 	bl	8000618 <HAL_GetTick>
        while(__HAL_RCC_GET_FLAG(RCC_FLAG_HSERDY) == RESET)
 8001244:	4d82      	ldr	r5, [pc, #520]	; (8001450 <HAL_RCC_OscConfig+0x2d8>)
        tickstart = HAL_GetTick();
 8001246:	4606      	mov	r6, r0
        while(__HAL_RCC_GET_FLAG(RCC_FLAG_HSERDY) == RESET)
 8001248:	682b      	ldr	r3, [r5, #0]
 800124a:	039f      	lsls	r7, r3, #14
 800124c:	d49d      	bmi.n	800118a <HAL_RCC_OscConfig+0x12>
          if((HAL_GetTick() - tickstart ) > HSE_TIMEOUT_VALUE)
 800124e:	f7ff f9e3 	bl	8000618 <HAL_GetTick>
 8001252:	1b80      	subs	r0, r0, r6
 8001254:	2864      	cmp	r0, #100	; 0x64
 8001256:	d9f7      	bls.n	8001248 <HAL_RCC_OscConfig+0xd0>
            return HAL_TIMEOUT;
 8001258:	2003      	movs	r0, #3
 800125a:	e791      	b.n	8001180 <HAL_RCC_OscConfig+0x8>
      __HAL_RCC_HSE_CONFIG(RCC_OscInitStruct->HSEState);
 800125c:	f5b3 2fa0 	cmp.w	r3, #327680	; 0x50000
 8001260:	d104      	bne.n	800126c <HAL_RCC_OscConfig+0xf4>
 8001262:	682b      	ldr	r3, [r5, #0]
 8001264:	f443 2380 	orr.w	r3, r3, #262144	; 0x40000
 8001268:	602b      	str	r3, [r5, #0]
 800126a:	e7e5      	b.n	8001238 <HAL_RCC_OscConfig+0xc0>
 800126c:	682a      	ldr	r2, [r5, #0]
 800126e:	f422 3280 	bic.w	r2, r2, #65536	; 0x10000
 8001272:	602a      	str	r2, [r5, #0]
 8001274:	682a      	ldr	r2, [r5, #0]
 8001276:	f422 2280 	bic.w	r2, r2, #262144	; 0x40000
 800127a:	602a      	str	r2, [r5, #0]
      if((RCC_OscInitStruct->HSEState) != RCC_HSE_OFF)
 800127c:	2b00      	cmp	r3, #0
 800127e:	d1df      	bne.n	8001240 <HAL_RCC_OscConfig+0xc8>
        tickstart = HAL_GetTick();
 8001280:	f7ff f9ca 	bl	8000618 <HAL_GetTick>
 8001284:	4606      	mov	r6, r0
        while(__HAL_RCC_GET_FLAG(RCC_FLAG_HSERDY) != RESET)
 8001286:	682b      	ldr	r3, [r5, #0]
 8001288:	0398      	lsls	r0, r3, #14
 800128a:	f57f af7e 	bpl.w	800118a <HAL_RCC_OscConfig+0x12>
          if((HAL_GetTick() - tickstart ) > HSE_TIMEOUT_VALUE)
 800128e:	f7ff f9c3 	bl	8000618 <HAL_GetTick>
 8001292:	1b80      	subs	r0, r0, r6
 8001294:	2864      	cmp	r0, #100	; 0x64
 8001296:	d9f6      	bls.n	8001286 <HAL_RCC_OscConfig+0x10e>
 8001298:	e7de      	b.n	8001258 <HAL_RCC_OscConfig+0xe0>
    if((__HAL_RCC_GET_SYSCLK_SOURCE() == RCC_CFGR_SWS_HSI) ||\
 800129a:	4b6d      	ldr	r3, [pc, #436]	; (8001450 <HAL_RCC_OscConfig+0x2d8>)
 800129c:	689a      	ldr	r2, [r3, #8]
 800129e:	f012 0f0c 	tst.w	r2, #12
 80012a2:	d007      	beq.n	80012b4 <HAL_RCC_OscConfig+0x13c>
      ((__HAL_RCC_GET_SYSCLK_SOURCE() == RCC_CFGR_SWS_PLL) && ((RCC->PLLCFGR & RCC_PLLCFGR_PLLSRC) == RCC_PLLCFGR_PLLSRC_HSI)))
 80012a4:	689a      	ldr	r2, [r3, #8]
 80012a6:	f002 020c 	and.w	r2, r2, #12
    if((__HAL_RCC_GET_SYSCLK_SOURCE() == RCC_CFGR_SWS_HSI) ||\
 80012aa:	2a08      	cmp	r2, #8
 80012ac:	d112      	bne.n	80012d4 <HAL_RCC_OscConfig+0x15c>
      ((__HAL_RCC_GET_SYSCLK_SOURCE() == RCC_CFGR_SWS_PLL) && ((RCC->PLLCFGR & RCC_PLLCFGR_PLLSRC) == RCC_PLLCFGR_PLLSRC_HSI)))
 80012ae:	685b      	ldr	r3, [r3, #4]
 80012b0:	0259      	lsls	r1, r3, #9
 80012b2:	d40f      	bmi.n	80012d4 <HAL_RCC_OscConfig+0x15c>
      if((__HAL_RCC_GET_FLAG(RCC_FLAG_HSIRDY) != RESET) && (RCC_OscInitStruct->HSIState != RCC_HSI_ON))
 80012b4:	4b66      	ldr	r3, [pc, #408]	; (8001450 <HAL_RCC_OscConfig+0x2d8>)
 80012b6:	681a      	ldr	r2, [r3, #0]
 80012b8:	0792      	lsls	r2, r2, #30
 80012ba:	d503      	bpl.n	80012c4 <HAL_RCC_OscConfig+0x14c>
 80012bc:	68e2      	ldr	r2, [r4, #12]
 80012be:	2a01      	cmp	r2, #1
 80012c0:	f47f af5d 	bne.w	800117e <HAL_RCC_OscConfig+0x6>
        __HAL_RCC_HSI_CALIBRATIONVALUE_ADJUST(RCC_OscInitStruct->HSICalibrationValue);
 80012c4:	681a      	ldr	r2, [r3, #0]
 80012c6:	6921      	ldr	r1, [r4, #16]
 80012c8:	f022 02f8 	bic.w	r2, r2, #248	; 0xf8
 80012cc:	ea42 02c1 	orr.w	r2, r2, r1, lsl #3
 80012d0:	601a      	str	r2, [r3, #0]
      if((__HAL_RCC_GET_FLAG(RCC_FLAG_HSIRDY) != RESET) && (RCC_OscInitStruct->HSIState != RCC_HSI_ON))
 80012d2:	e75e      	b.n	8001192 <HAL_RCC_OscConfig+0x1a>
      if((RCC_OscInitStruct->HSIState)!= RCC_HSI_OFF)
 80012d4:	68e2      	ldr	r2, [r4, #12]
 80012d6:	4b60      	ldr	r3, [pc, #384]	; (8001458 <HAL_RCC_OscConfig+0x2e0>)
 80012d8:	b1b2      	cbz	r2, 8001308 <HAL_RCC_OscConfig+0x190>
        __HAL_RCC_HSI_ENABLE();
 80012da:	2201      	movs	r2, #1
 80012dc:	601a      	str	r2, [r3, #0]
        tickstart = HAL_GetTick();
 80012de:	f7ff f99b 	bl	8000618 <HAL_GetTick>
        while(__HAL_RCC_GET_FLAG(RCC_FLAG_HSIRDY) == RESET)
 80012e2:	4d5b      	ldr	r5, [pc, #364]	; (8001450 <HAL_RCC_OscConfig+0x2d8>)
        tickstart = HAL_GetTick();
 80012e4:	4606      	mov	r6, r0
        while(__HAL_RCC_GET_FLAG(RCC_FLAG_HSIRDY) == RESET)
 80012e6:	682b      	ldr	r3, [r5, #0]
 80012e8:	079b      	lsls	r3, r3, #30
 80012ea:	d507      	bpl.n	80012fc <HAL_RCC_OscConfig+0x184>
        __HAL_RCC_HSI_CALIBRATIONVALUE_ADJUST(RCC_OscInitStruct->HSICalibrationValue);
 80012ec:	682b      	ldr	r3, [r5, #0]
 80012ee:	6922      	ldr	r2, [r4, #16]
 80012f0:	f023 03f8 	bic.w	r3, r3, #248	; 0xf8
 80012f4:	ea43 03c2 	orr.w	r3, r3, r2, lsl #3
 80012f8:	602b      	str	r3, [r5, #0]
 80012fa:	e74a      	b.n	8001192 <HAL_RCC_OscConfig+0x1a>
          if((HAL_GetTick() - tickstart ) > HSI_TIMEOUT_VALUE)
 80012fc:	f7ff f98c 	bl	8000618 <HAL_GetTick>
 8001300:	1b80      	subs	r0, r0, r6
 8001302:	2802      	cmp	r0, #2
 8001304:	d9ef      	bls.n	80012e6 <HAL_RCC_OscConfig+0x16e>
 8001306:	e7a7      	b.n	8001258 <HAL_RCC_OscConfig+0xe0>
        __HAL_RCC_HSI_DISABLE();
 8001308:	601a      	str	r2, [r3, #0]
        tickstart = HAL_GetTick();
 800130a:	f7ff f985 	bl	8000618 <HAL_GetTick>
        while(__HAL_RCC_GET_FLAG(RCC_FLAG_HSIRDY) != RESET)
 800130e:	4d50      	ldr	r5, [pc, #320]	; (8001450 <HAL_RCC_OscConfig+0x2d8>)
        tickstart = HAL_GetTick();
 8001310:	4606      	mov	r6, r0
        while(__HAL_RCC_GET_FLAG(RCC_FLAG_HSIRDY) != RESET)
 8001312:	682b      	ldr	r3, [r5, #0]
 8001314:	079f      	lsls	r7, r3, #30
 8001316:	f57f af3c 	bpl.w	8001192 <HAL_RCC_OscConfig+0x1a>
          if((HAL_GetTick() - tickstart ) > HSI_TIMEOUT_VALUE)
 800131a:	f7ff f97d 	bl	8000618 <HAL_GetTick>
 800131e:	1b80      	subs	r0, r0, r6
 8001320:	2802      	cmp	r0, #2
 8001322:	d9f6      	bls.n	8001312 <HAL_RCC_OscConfig+0x19a>
 8001324:	e798      	b.n	8001258 <HAL_RCC_OscConfig+0xe0>
    if((RCC_OscInitStruct->LSIState)!= RCC_LSI_OFF)
 8001326:	6962      	ldr	r2, [r4, #20]
 8001328:	4b4c      	ldr	r3, [pc, #304]	; (800145c <HAL_RCC_OscConfig+0x2e4>)
 800132a:	b17a      	cbz	r2, 800134c <HAL_RCC_OscConfig+0x1d4>
      __HAL_RCC_LSI_ENABLE();
 800132c:	2201      	movs	r2, #1
 800132e:	601a      	str	r2, [r3, #0]
      tickstart = HAL_GetTick();
 8001330:	f7ff f972 	bl	8000618 <HAL_GetTick>
      while(__HAL_RCC_GET_FLAG(RCC_FLAG_LSIRDY) == RESET)
 8001334:	4d46      	ldr	r5, [pc, #280]	; (8001450 <HAL_RCC_OscConfig+0x2d8>)
      tickstart = HAL_GetTick();
 8001336:	4606      	mov	r6, r0
      while(__HAL_RCC_GET_FLAG(RCC_FLAG_LSIRDY) == RESET)
 8001338:	6f6b      	ldr	r3, [r5, #116]	; 0x74
 800133a:	0798      	lsls	r0, r3, #30
 800133c:	f53f af2d 	bmi.w	800119a <HAL_RCC_OscConfig+0x22>
        if((HAL_GetTick() - tickstart ) > LSI_TIMEOUT_VALUE)
 8001340:	f7ff f96a 	bl	8000618 <HAL_GetTick>
 8001344:	1b80      	subs	r0, r0, r6
 8001346:	2802      	cmp	r0, #2
 8001348:	d9f6      	bls.n	8001338 <HAL_RCC_OscConfig+0x1c0>
 800134a:	e785      	b.n	8001258 <HAL_RCC_OscConfig+0xe0>
      __HAL_RCC_LSI_DISABLE();
 800134c:	601a      	str	r2, [r3, #0]
      tickstart = HAL_GetTick();
 800134e:	f7ff f963 	bl	8000618 <HAL_GetTick>
      while(__HAL_RCC_GET_FLAG(RCC_FLAG_LSIRDY) != RESET)
 8001352:	4d3f      	ldr	r5, [pc, #252]	; (8001450 <HAL_RCC_OscConfig+0x2d8>)
      tickstart = HAL_GetTick();
 8001354:	4606      	mov	r6, r0
      while(__HAL_RCC_GET_FLAG(RCC_FLAG_LSIRDY) != RESET)
 8001356:	6f6b      	ldr	r3, [r5, #116]	; 0x74
 8001358:	0799      	lsls	r1, r3, #30
 800135a:	f57f af1e 	bpl.w	800119a <HAL_RCC_OscConfig+0x22>
        if((HAL_GetTick() - tickstart ) > LSI_TIMEOUT_VALUE)
 800135e:	f7ff f95b 	bl	8000618 <HAL_GetTick>
 8001362:	1b80      	subs	r0, r0, r6
 8001364:	2802      	cmp	r0, #2
 8001366:	d9f6      	bls.n	8001356 <HAL_RCC_OscConfig+0x1de>
 8001368:	e776      	b.n	8001258 <HAL_RCC_OscConfig+0xe0>
      if((HAL_GetTick() - tickstart ) > RCC_DBP_TIMEOUT_VALUE)
 800136a:	f7ff f955 	bl	8000618 <HAL_GetTick>
 800136e:	1b80      	subs	r0, r0, r6
 8001370:	2802      	cmp	r0, #2
 8001372:	f67f af29 	bls.w	80011c8 <HAL_RCC_OscConfig+0x50>
 8001376:	e76f      	b.n	8001258 <HAL_RCC_OscConfig+0xe0>
    __HAL_RCC_LSE_CONFIG(RCC_OscInitStruct->LSEState);
 8001378:	2b05      	cmp	r3, #5
 800137a:	d104      	bne.n	8001386 <HAL_RCC_OscConfig+0x20e>
 800137c:	6f2b      	ldr	r3, [r5, #112]	; 0x70
 800137e:	f043 0304 	orr.w	r3, r3, #4
 8001382:	672b      	str	r3, [r5, #112]	; 0x70
 8001384:	e729      	b.n	80011da <HAL_RCC_OscConfig+0x62>
 8001386:	6f2a      	ldr	r2, [r5, #112]	; 0x70
 8001388:	f022 0201 	bic.w	r2, r2, #1
 800138c:	672a      	str	r2, [r5, #112]	; 0x70
 800138e:	6f2a      	ldr	r2, [r5, #112]	; 0x70
 8001390:	f022 0204 	bic.w	r2, r2, #4
 8001394:	672a      	str	r2, [r5, #112]	; 0x70
    if((RCC_OscInitStruct->LSEState) != RCC_LSE_OFF)
 8001396:	2b00      	cmp	r3, #0
 8001398:	f47f af23 	bne.w	80011e2 <HAL_RCC_OscConfig+0x6a>
      tickstart = HAL_GetTick();
 800139c:	f7ff f93c 	bl	8000618 <HAL_GetTick>
        if((HAL_GetTick() - tickstart ) > RCC_LSE_TIMEOUT_VALUE)
 80013a0:	f241 3788 	movw	r7, #5000	; 0x1388
      tickstart = HAL_GetTick();
 80013a4:	4606      	mov	r6, r0
      while(__HAL_RCC_GET_FLAG(RCC_FLAG_LSERDY) != RESET)
 80013a6:	6f2b      	ldr	r3, [r5, #112]	; 0x70
 80013a8:	0798      	lsls	r0, r3, #30
 80013aa:	f57f af24 	bpl.w	80011f6 <HAL_RCC_OscConfig+0x7e>
        if((HAL_GetTick() - tickstart ) > RCC_LSE_TIMEOUT_VALUE)
 80013ae:	f7ff f933 	bl	8000618 <HAL_GetTick>
 80013b2:	1b80      	subs	r0, r0, r6
 80013b4:	42b8      	cmp	r0, r7
 80013b6:	d9f6      	bls.n	80013a6 <HAL_RCC_OscConfig+0x22e>
 80013b8:	e74e      	b.n	8001258 <HAL_RCC_OscConfig+0xe0>
        if((HAL_GetTick() - tickstart ) > RCC_LSE_TIMEOUT_VALUE)
 80013ba:	f7ff f92d 	bl	8000618 <HAL_GetTick>
 80013be:	1b80      	subs	r0, r0, r6
 80013c0:	42b8      	cmp	r0, r7
 80013c2:	f67f af14 	bls.w	80011ee <HAL_RCC_OscConfig+0x76>
 80013c6:	e747      	b.n	8001258 <HAL_RCC_OscConfig+0xe0>
    if(__HAL_RCC_GET_SYSCLK_SOURCE() != RCC_CFGR_SWS_PLL)
 80013c8:	4d21      	ldr	r5, [pc, #132]	; (8001450 <HAL_RCC_OscConfig+0x2d8>)
 80013ca:	68ab      	ldr	r3, [r5, #8]
 80013cc:	f003 030c 	and.w	r3, r3, #12
 80013d0:	2b08      	cmp	r3, #8
 80013d2:	f43f aed4 	beq.w	800117e <HAL_RCC_OscConfig+0x6>
 80013d6:	4e22      	ldr	r6, [pc, #136]	; (8001460 <HAL_RCC_OscConfig+0x2e8>)
 80013d8:	2300      	movs	r3, #0
      if((RCC_OscInitStruct->PLL.PLLState) == RCC_PLL_ON)
 80013da:	2a02      	cmp	r2, #2
        __HAL_RCC_PLL_DISABLE();
 80013dc:	6033      	str	r3, [r6, #0]
      if((RCC_OscInitStruct->PLL.PLLState) == RCC_PLL_ON)
 80013de:	d12a      	bne.n	8001436 <HAL_RCC_OscConfig+0x2be>
        tickstart = HAL_GetTick();
 80013e0:	f7ff f91a 	bl	8000618 <HAL_GetTick>
 80013e4:	4607      	mov	r7, r0
        while(__HAL_RCC_GET_FLAG(RCC_FLAG_PLLRDY) != RESET)
 80013e6:	682b      	ldr	r3, [r5, #0]
 80013e8:	0199      	lsls	r1, r3, #6
 80013ea:	d41e      	bmi.n	800142a <HAL_RCC_OscConfig+0x2b2>
        WRITE_REG(RCC->PLLCFGR, (RCC_OscInitStruct->PLL.PLLSource                                            | \
 80013ec:	6a22      	ldr	r2, [r4, #32]
 80013ee:	69e3      	ldr	r3, [r4, #28]
 80013f0:	4313      	orrs	r3, r2
 80013f2:	6a62      	ldr	r2, [r4, #36]	; 0x24
 80013f4:	ea43 1382 	orr.w	r3, r3, r2, lsl #6
 80013f8:	6ae2      	ldr	r2, [r4, #44]	; 0x2c
 80013fa:	ea43 6302 	orr.w	r3, r3, r2, lsl #24
 80013fe:	6aa2      	ldr	r2, [r4, #40]	; 0x28
        while(__HAL_RCC_GET_FLAG(RCC_FLAG_PLLRDY) == RESET)
 8001400:	4c13      	ldr	r4, [pc, #76]	; (8001450 <HAL_RCC_OscConfig+0x2d8>)
        WRITE_REG(RCC->PLLCFGR, (RCC_OscInitStruct->PLL.PLLSource                                            | \
 8001402:	0852      	lsrs	r2, r2, #1
 8001404:	3a01      	subs	r2, #1
 8001406:	ea43 4302 	orr.w	r3, r3, r2, lsl #16
 800140a:	606b      	str	r3, [r5, #4]
        __HAL_RCC_PLL_ENABLE();
 800140c:	2301      	movs	r3, #1
 800140e:	6033      	str	r3, [r6, #0]
        tickstart = HAL_GetTick();
 8001410:	f7ff f902 	bl	8000618 <HAL_GetTick>
 8001414:	4605      	mov	r5, r0
        while(__HAL_RCC_GET_FLAG(RCC_FLAG_PLLRDY) == RESET)
 8001416:	6823      	ldr	r3, [r4, #0]
 8001418:	019a      	lsls	r2, r3, #6
 800141a:	f53f aef0 	bmi.w	80011fe <HAL_RCC_OscConfig+0x86>
          if((HAL_GetTick() - tickstart ) > PLL_TIMEOUT_VALUE)
 800141e:	f7ff f8fb 	bl	8000618 <HAL_GetTick>
 8001422:	1b40      	subs	r0, r0, r5
 8001424:	2802      	cmp	r0, #2
 8001426:	d9f6      	bls.n	8001416 <HAL_RCC_OscConfig+0x29e>
 8001428:	e716      	b.n	8001258 <HAL_RCC_OscConfig+0xe0>
          if((HAL_GetTick() - tickstart ) > PLL_TIMEOUT_VALUE)
 800142a:	f7ff f8f5 	bl	8000618 <HAL_GetTick>
 800142e:	1bc0      	subs	r0, r0, r7
 8001430:	2802      	cmp	r0, #2
 8001432:	d9d8      	bls.n	80013e6 <HAL_RCC_OscConfig+0x26e>
 8001434:	e710      	b.n	8001258 <HAL_RCC_OscConfig+0xe0>
        tickstart = HAL_GetTick();
 8001436:	f7ff f8ef 	bl	8000618 <HAL_GetTick>
 800143a:	4604      	mov	r4, r0
        while(__HAL_RCC_GET_FLAG(RCC_FLAG_PLLRDY) != RESET)
 800143c:	682b      	ldr	r3, [r5, #0]
 800143e:	019b      	lsls	r3, r3, #6
 8001440:	f57f aedd 	bpl.w	80011fe <HAL_RCC_OscConfig+0x86>
          if((HAL_GetTick() - tickstart ) > PLL_TIMEOUT_VALUE)
 8001444:	f7ff f8e8 	bl	8000618 <HAL_GetTick>
 8001448:	1b00      	subs	r0, r0, r4
 800144a:	2802      	cmp	r0, #2
 800144c:	d9f6      	bls.n	800143c <HAL_RCC_OscConfig+0x2c4>
 800144e:	e703      	b.n	8001258 <HAL_RCC_OscConfig+0xe0>
 8001450:	40023800 	.word	0x40023800
 8001454:	40007000 	.word	0x40007000
 8001458:	42470000 	.word	0x42470000
 800145c:	42470e80 	.word	0x42470e80
 8001460:	42470060 	.word	0x42470060

08001464 <HAL_RCC_GetSysClockFreq>:
{
  uint32_t pllm = 0U, pllvco = 0U, pllp = 0U;
  uint32_t sysclockfreq = 0U;

  /* Get SYSCLK source -------------------------------------------------------*/
  switch (RCC->CFGR & RCC_CFGR_SWS)
 8001464:	4913      	ldr	r1, [pc, #76]	; (80014b4 <HAL_RCC_GetSysClockFreq+0x50>)
{
 8001466:	b508      	push	{r3, lr}
  switch (RCC->CFGR & RCC_CFGR_SWS)
 8001468:	688b      	ldr	r3, [r1, #8]
 800146a:	f003 030c 	and.w	r3, r3, #12
 800146e:	2b04      	cmp	r3, #4
 8001470:	d003      	beq.n	800147a <HAL_RCC_GetSysClockFreq+0x16>
 8001472:	2b08      	cmp	r3, #8
 8001474:	d003      	beq.n	800147e <HAL_RCC_GetSysClockFreq+0x1a>
  {
    case RCC_CFGR_SWS_HSI:  /* HSI used as system clock source */
    {
      sysclockfreq = HSI_VALUE;
 8001476:	4810      	ldr	r0, [pc, #64]	; (80014b8 <HAL_RCC_GetSysClockFreq+0x54>)
      sysclockfreq = HSI_VALUE;
      break;
    }
  }
  return sysclockfreq;
}
 8001478:	bd08      	pop	{r3, pc}
      sysclockfreq = HSE_VALUE;
 800147a:	4810      	ldr	r0, [pc, #64]	; (80014bc <HAL_RCC_GetSysClockFreq+0x58>)
 800147c:	bd08      	pop	{r3, pc}
      pllm = RCC->PLLCFGR & RCC_PLLCFGR_PLLM;
 800147e:	684a      	ldr	r2, [r1, #4]
      if(__HAL_RCC_GET_PLL_OSCSOURCE() != RCC_PLLSOURCE_HSI)
 8001480:	684b      	ldr	r3, [r1, #4]
        pllvco = (uint32_t) ((((uint64_t) HSE_VALUE * ((uint64_t) ((RCC->PLLCFGR & RCC_PLLCFGR_PLLN) >> RCC_PLLCFGR_PLLN_Pos)))) / (uint64_t)pllm);
 8001482:	6849      	ldr	r1, [r1, #4]
      if(__HAL_RCC_GET_PLL_OSCSOURCE() != RCC_PLLSOURCE_HSI)
 8001484:	f413 0380 	ands.w	r3, r3, #4194304	; 0x400000
        pllvco = (uint32_t) ((((uint64_t) HSE_VALUE * ((uint64_t) ((RCC->PLLCFGR & RCC_PLLCFGR_PLLN) >> RCC_PLLCFGR_PLLN_Pos)))) / (uint64_t)pllm);
 8001488:	bf14      	ite	ne
 800148a:	480c      	ldrne	r0, [pc, #48]	; (80014bc <HAL_RCC_GetSysClockFreq+0x58>)
        pllvco = (uint32_t) ((((uint64_t) HSI_VALUE * ((uint64_t) ((RCC->PLLCFGR & RCC_PLLCFGR_PLLN) >> RCC_PLLCFGR_PLLN_Pos)))) / (uint64_t)pllm);
 800148c:	480a      	ldreq	r0, [pc, #40]	; (80014b8 <HAL_RCC_GetSysClockFreq+0x54>)
        pllvco = (uint32_t) ((((uint64_t) HSE_VALUE * ((uint64_t) ((RCC->PLLCFGR & RCC_PLLCFGR_PLLN) >> RCC_PLLCFGR_PLLN_Pos)))) / (uint64_t)pllm);
 800148e:	f3c1 1188 	ubfx	r1, r1, #6, #9
 8001492:	bf18      	it	ne
 8001494:	2300      	movne	r3, #0
      pllm = RCC->PLLCFGR & RCC_PLLCFGR_PLLM;
 8001496:	f002 023f 	and.w	r2, r2, #63	; 0x3f
        pllvco = (uint32_t) ((((uint64_t) HSI_VALUE * ((uint64_t) ((RCC->PLLCFGR & RCC_PLLCFGR_PLLN) >> RCC_PLLCFGR_PLLN_Pos)))) / (uint64_t)pllm);
 800149a:	fba1 0100 	umull	r0, r1, r1, r0
 800149e:	f7fe fefd 	bl	800029c <__aeabi_uldivmod>
      pllp = ((((RCC->PLLCFGR & RCC_PLLCFGR_PLLP) >> RCC_PLLCFGR_PLLP_Pos) + 1U) *2U);
 80014a2:	4b04      	ldr	r3, [pc, #16]	; (80014b4 <HAL_RCC_GetSysClockFreq+0x50>)
 80014a4:	685b      	ldr	r3, [r3, #4]
 80014a6:	f3c3 4301 	ubfx	r3, r3, #16, #2
 80014aa:	3301      	adds	r3, #1
 80014ac:	005b      	lsls	r3, r3, #1
      sysclockfreq = pllvco/pllp;
 80014ae:	fbb0 f0f3 	udiv	r0, r0, r3
 80014b2:	bd08      	pop	{r3, pc}
 80014b4:	40023800 	.word	0x40023800
 80014b8:	00f42400 	.word	0x00f42400
 80014bc:	007a1200 	.word	0x007a1200

080014c0 <HAL_RCC_ClockConfig>:
{
 80014c0:	e92d 41f0 	stmdb	sp!, {r4, r5, r6, r7, r8, lr}
 80014c4:	460d      	mov	r5, r1
  if(RCC_ClkInitStruct == NULL)
 80014c6:	4604      	mov	r4, r0
 80014c8:	b910      	cbnz	r0, 80014d0 <HAL_RCC_ClockConfig+0x10>
    return HAL_ERROR;
 80014ca:	2001      	movs	r0, #1
 80014cc:	e8bd 81f0 	ldmia.w	sp!, {r4, r5, r6, r7, r8, pc}
  if(FLatency > __HAL_FLASH_GET_LATENCY())
 80014d0:	4b44      	ldr	r3, [pc, #272]	; (80015e4 <HAL_RCC_ClockConfig+0x124>)
 80014d2:	681a      	ldr	r2, [r3, #0]
 80014d4:	f002 020f 	and.w	r2, r2, #15
 80014d8:	428a      	cmp	r2, r1
 80014da:	d328      	bcc.n	800152e <HAL_RCC_ClockConfig+0x6e>
  if(((RCC_ClkInitStruct->ClockType) & RCC_CLOCKTYPE_HCLK) == RCC_CLOCKTYPE_HCLK)
 80014dc:	6821      	ldr	r1, [r4, #0]
 80014de:	078f      	lsls	r7, r1, #30
 80014e0:	d42d      	bmi.n	800153e <HAL_RCC_ClockConfig+0x7e>
  if(((RCC_ClkInitStruct->ClockType) & RCC_CLOCKTYPE_SYSCLK) == RCC_CLOCKTYPE_SYSCLK)
 80014e2:	07c8      	lsls	r0, r1, #31
 80014e4:	d440      	bmi.n	8001568 <HAL_RCC_ClockConfig+0xa8>
  if(FLatency < __HAL_FLASH_GET_LATENCY())
 80014e6:	4b3f      	ldr	r3, [pc, #252]	; (80015e4 <HAL_RCC_ClockConfig+0x124>)
 80014e8:	681a      	ldr	r2, [r3, #0]
 80014ea:	f002 020f 	and.w	r2, r2, #15
 80014ee:	4295      	cmp	r5, r2
 80014f0:	d366      	bcc.n	80015c0 <HAL_RCC_ClockConfig+0x100>
  if(((RCC_ClkInitStruct->ClockType) & RCC_CLOCKTYPE_PCLK1) == RCC_CLOCKTYPE_PCLK1)
 80014f2:	6822      	ldr	r2, [r4, #0]
 80014f4:	0751      	lsls	r1, r2, #29
 80014f6:	d46c      	bmi.n	80015d2 <HAL_RCC_ClockConfig+0x112>
  if(((RCC_ClkInitStruct->ClockType) & RCC_CLOCKTYPE_PCLK2) == RCC_CLOCKTYPE_PCLK2)
 80014f8:	0713      	lsls	r3, r2, #28
 80014fa:	d507      	bpl.n	800150c <HAL_RCC_ClockConfig+0x4c>
    MODIFY_REG(RCC->CFGR, RCC_CFGR_PPRE2, ((RCC_ClkInitStruct->APB2CLKDivider) << 3U));
 80014fc:	4a3a      	ldr	r2, [pc, #232]	; (80015e8 <HAL_RCC_ClockConfig+0x128>)
 80014fe:	6921      	ldr	r1, [r4, #16]
 8001500:	6893      	ldr	r3, [r2, #8]
 8001502:	f423 4360 	bic.w	r3, r3, #57344	; 0xe000
 8001506:	ea43 03c1 	orr.w	r3, r3, r1, lsl #3
 800150a:	6093      	str	r3, [r2, #8]
  SystemCoreClock = HAL_RCC_GetSysClockFreq() >> AHBPrescTable[(RCC->CFGR & RCC_CFGR_HPRE)>> RCC_CFGR_HPRE_Pos];
 800150c:	f7ff ffaa 	bl	8001464 <HAL_RCC_GetSysClockFreq>
 8001510:	4b35      	ldr	r3, [pc, #212]	; (80015e8 <HAL_RCC_ClockConfig+0x128>)
 8001512:	4a36      	ldr	r2, [pc, #216]	; (80015ec <HAL_RCC_ClockConfig+0x12c>)
 8001514:	689b      	ldr	r3, [r3, #8]
 8001516:	f3c3 1303 	ubfx	r3, r3, #4, #4
 800151a:	5cd3      	ldrb	r3, [r2, r3]
 800151c:	40d8      	lsrs	r0, r3
 800151e:	4b34      	ldr	r3, [pc, #208]	; (80015f0 <HAL_RCC_ClockConfig+0x130>)
 8001520:	6018      	str	r0, [r3, #0]
  HAL_InitTick (TICK_INT_PRIORITY);
 8001522:	2000      	movs	r0, #0
 8001524:	f7ff f842 	bl	80005ac <HAL_InitTick>
  return HAL_OK;
 8001528:	2000      	movs	r0, #0
 800152a:	e8bd 81f0 	ldmia.w	sp!, {r4, r5, r6, r7, r8, pc}
    __HAL_FLASH_SET_LATENCY(FLatency);
 800152e:	b2ca      	uxtb	r2, r1
 8001530:	701a      	strb	r2, [r3, #0]
    if(__HAL_FLASH_GET_LATENCY() != FLatency)
 8001532:	681b      	ldr	r3, [r3, #0]
 8001534:	f003 030f 	and.w	r3, r3, #15
 8001538:	4299      	cmp	r1, r3
 800153a:	d1c6      	bne.n	80014ca <HAL_RCC_ClockConfig+0xa>
 800153c:	e7ce      	b.n	80014dc <HAL_RCC_ClockConfig+0x1c>
 800153e:	4b2a      	ldr	r3, [pc, #168]	; (80015e8 <HAL_RCC_ClockConfig+0x128>)
    if(((RCC_ClkInitStruct->ClockType) & RCC_CLOCKTYPE_PCLK1) == RCC_CLOCKTYPE_PCLK1)
 8001540:	f011 0f04 	tst.w	r1, #4
      MODIFY_REG(RCC->CFGR, RCC_CFGR_PPRE1, RCC_HCLK_DIV16);
 8001544:	bf1e      	ittt	ne
 8001546:	689a      	ldrne	r2, [r3, #8]
 8001548:	f442 52e0 	orrne.w	r2, r2, #7168	; 0x1c00
 800154c:	609a      	strne	r2, [r3, #8]
    if(((RCC_ClkInitStruct->ClockType) & RCC_CLOCKTYPE_PCLK2) == RCC_CLOCKTYPE_PCLK2)
 800154e:	070e      	lsls	r6, r1, #28
      MODIFY_REG(RCC->CFGR, RCC_CFGR_PPRE2, (RCC_HCLK_DIV16 << 3));
 8001550:	bf42      	ittt	mi
 8001552:	689a      	ldrmi	r2, [r3, #8]
 8001554:	f442 4260 	orrmi.w	r2, r2, #57344	; 0xe000
 8001558:	609a      	strmi	r2, [r3, #8]
    MODIFY_REG(RCC->CFGR, RCC_CFGR_HPRE, RCC_ClkInitStruct->AHBCLKDivider);
 800155a:	689a      	ldr	r2, [r3, #8]
 800155c:	68a0      	ldr	r0, [r4, #8]
 800155e:	f022 02f0 	bic.w	r2, r2, #240	; 0xf0
 8001562:	4302      	orrs	r2, r0
 8001564:	609a      	str	r2, [r3, #8]
 8001566:	e7bc      	b.n	80014e2 <HAL_RCC_ClockConfig+0x22>
    if(RCC_ClkInitStruct->SYSCLKSource == RCC_SYSCLKSOURCE_HSE)
 8001568:	6862      	ldr	r2, [r4, #4]
 800156a:	4b1f      	ldr	r3, [pc, #124]	; (80015e8 <HAL_RCC_ClockConfig+0x128>)
 800156c:	2a01      	cmp	r2, #1
 800156e:	d11d      	bne.n	80015ac <HAL_RCC_ClockConfig+0xec>
      if(__HAL_RCC_GET_FLAG(RCC_FLAG_HSERDY) == RESET)
 8001570:	681b      	ldr	r3, [r3, #0]
 8001572:	f413 3f00 	tst.w	r3, #131072	; 0x20000
      if(__HAL_RCC_GET_FLAG(RCC_FLAG_HSIRDY) == RESET)
 8001576:	d0a8      	beq.n	80014ca <HAL_RCC_ClockConfig+0xa>
    __HAL_RCC_SYSCLK_CONFIG(RCC_ClkInitStruct->SYSCLKSource);
 8001578:	4e1b      	ldr	r6, [pc, #108]	; (80015e8 <HAL_RCC_ClockConfig+0x128>)
 800157a:	68b3      	ldr	r3, [r6, #8]
 800157c:	f023 0303 	bic.w	r3, r3, #3
 8001580:	4313      	orrs	r3, r2
 8001582:	60b3      	str	r3, [r6, #8]
    tickstart = HAL_GetTick();
 8001584:	f7ff f848 	bl	8000618 <HAL_GetTick>
      if ((HAL_GetTick() - tickstart) > CLOCKSWITCH_TIMEOUT_VALUE)
 8001588:	f241 3888 	movw	r8, #5000	; 0x1388
    tickstart = HAL_GetTick();
 800158c:	4607      	mov	r7, r0
    while (__HAL_RCC_GET_SYSCLK_SOURCE() != (RCC_ClkInitStruct->SYSCLKSource << RCC_CFGR_SWS_Pos))
 800158e:	68b3      	ldr	r3, [r6, #8]
 8001590:	6862      	ldr	r2, [r4, #4]
 8001592:	f003 030c 	and.w	r3, r3, #12
 8001596:	ebb3 0f82 	cmp.w	r3, r2, lsl #2
 800159a:	d0a4      	beq.n	80014e6 <HAL_RCC_ClockConfig+0x26>
      if ((HAL_GetTick() - tickstart) > CLOCKSWITCH_TIMEOUT_VALUE)
 800159c:	f7ff f83c 	bl	8000618 <HAL_GetTick>
 80015a0:	1bc0      	subs	r0, r0, r7
 80015a2:	4540      	cmp	r0, r8
 80015a4:	d9f3      	bls.n	800158e <HAL_RCC_ClockConfig+0xce>
        return HAL_TIMEOUT;
 80015a6:	2003      	movs	r0, #3
}
 80015a8:	e8bd 81f0 	ldmia.w	sp!, {r4, r5, r6, r7, r8, pc}
    else if((RCC_ClkInitStruct->SYSCLKSource == RCC_SYSCLKSOURCE_PLLCLK)   ||
 80015ac:	1e91      	subs	r1, r2, #2
 80015ae:	2901      	cmp	r1, #1
      if(__HAL_RCC_GET_FLAG(RCC_FLAG_PLLRDY) == RESET)
 80015b0:	681b      	ldr	r3, [r3, #0]
    else if((RCC_ClkInitStruct->SYSCLKSource == RCC_SYSCLKSOURCE_PLLCLK)   ||
 80015b2:	d802      	bhi.n	80015ba <HAL_RCC_ClockConfig+0xfa>
      if(__HAL_RCC_GET_FLAG(RCC_FLAG_PLLRDY) == RESET)
 80015b4:	f013 7f00 	tst.w	r3, #33554432	; 0x2000000
 80015b8:	e7dd      	b.n	8001576 <HAL_RCC_ClockConfig+0xb6>
      if(__HAL_RCC_GET_FLAG(RCC_FLAG_HSIRDY) == RESET)
 80015ba:	f013 0f02 	tst.w	r3, #2
 80015be:	e7da      	b.n	8001576 <HAL_RCC_ClockConfig+0xb6>
    __HAL_FLASH_SET_LATENCY(FLatency);
 80015c0:	b2ea      	uxtb	r2, r5
 80015c2:	701a      	strb	r2, [r3, #0]
    if(__HAL_FLASH_GET_LATENCY() != FLatency)
 80015c4:	681b      	ldr	r3, [r3, #0]
 80015c6:	f003 030f 	and.w	r3, r3, #15
 80015ca:	429d      	cmp	r5, r3
 80015cc:	f47f af7d 	bne.w	80014ca <HAL_RCC_ClockConfig+0xa>
 80015d0:	e78f      	b.n	80014f2 <HAL_RCC_ClockConfig+0x32>
    MODIFY_REG(RCC->CFGR, RCC_CFGR_PPRE1, RCC_ClkInitStruct->APB1CLKDivider);
 80015d2:	4905      	ldr	r1, [pc, #20]	; (80015e8 <HAL_RCC_ClockConfig+0x128>)
 80015d4:	68e0      	ldr	r0, [r4, #12]
 80015d6:	688b      	ldr	r3, [r1, #8]
 80015d8:	f423 53e0 	bic.w	r3, r3, #7168	; 0x1c00
 80015dc:	4303      	orrs	r3, r0
 80015de:	608b      	str	r3, [r1, #8]
 80015e0:	e78a      	b.n	80014f8 <HAL_RCC_ClockConfig+0x38>
 80015e2:	bf00      	nop
 80015e4:	40023c00 	.word	0x40023c00
 80015e8:	40023800 	.word	0x40023800
 80015ec:	08007d54 	.word	0x08007d54
 80015f0:	2000013c 	.word	0x2000013c

080015f4 <HAL_RCC_GetHCLKFreq>:
  * @retval HCLK frequency
  */
uint32_t HAL_RCC_GetHCLKFreq(void)
{
  return SystemCoreClock;
}
 80015f4:	4b01      	ldr	r3, [pc, #4]	; (80015fc <HAL_RCC_GetHCLKFreq+0x8>)
 80015f6:	6818      	ldr	r0, [r3, #0]
 80015f8:	4770      	bx	lr
 80015fa:	bf00      	nop
 80015fc:	2000013c 	.word	0x2000013c

08001600 <USB_CoreInit>:
  * @param  cfg  pointer to a USB_OTG_CfgTypeDef structure that contains
  *         the configuration information for the specified USBx peripheral.
  * @retval HAL status
  */
HAL_StatusTypeDef USB_CoreInit(USB_OTG_GlobalTypeDef *USBx, USB_OTG_CfgTypeDef cfg)
{
 8001600:	b084      	sub	sp, #16
 8001602:	b538      	push	{r3, r4, r5, lr}
 8001604:	ad05      	add	r5, sp, #20
 8001606:	e885 000e 	stmia.w	r5, {r1, r2, r3}
  if (cfg.phy_itface == USB_OTG_ULPI_PHY)
 800160a:	9b0a      	ldr	r3, [sp, #40]	; 0x28
 800160c:	2b01      	cmp	r3, #1
{
 800160e:	4604      	mov	r4, r0
  if (cfg.phy_itface == USB_OTG_ULPI_PHY)
 8001610:	d126      	bne.n	8001660 <USB_CoreInit+0x60>
  {
    
    USBx->GCCFG &= ~(USB_OTG_GCCFG_PWRDWN);
 8001612:	6b83      	ldr	r3, [r0, #56]	; 0x38
 8001614:	f423 3380 	bic.w	r3, r3, #65536	; 0x10000
 8001618:	6383      	str	r3, [r0, #56]	; 0x38

    /* Init The ULPI Interface */
    USBx->GUSBCFG &= ~(USB_OTG_GUSBCFG_TSDPS | USB_OTG_GUSBCFG_ULPIFSLS | USB_OTG_GUSBCFG_PHYSEL);
 800161a:	68c3      	ldr	r3, [r0, #12]
 800161c:	f423 0384 	bic.w	r3, r3, #4325376	; 0x420000
 8001620:	f023 0340 	bic.w	r3, r3, #64	; 0x40
 8001624:	60c3      	str	r3, [r0, #12]
   
    /* Select vbus source */
    USBx->GUSBCFG &= ~(USB_OTG_GUSBCFG_ULPIEVBUSD | USB_OTG_GUSBCFG_ULPIEVBUSI);
 8001626:	68c3      	ldr	r3, [r0, #12]
 8001628:	f423 1340 	bic.w	r3, r3, #3145728	; 0x300000
 800162c:	60c3      	str	r3, [r0, #12]
    if(cfg.use_external_vbus == 1U)
 800162e:	9b11      	ldr	r3, [sp, #68]	; 0x44
 8001630:	2b01      	cmp	r3, #1
    {
      USBx->GUSBCFG |= USB_OTG_GUSBCFG_ULPIEVBUSD;
 8001632:	bf02      	ittt	eq
 8001634:	68c3      	ldreq	r3, [r0, #12]
 8001636:	f443 1380 	orreq.w	r3, r3, #1048576	; 0x100000
 800163a:	60c3      	streq	r3, [r0, #12]
    }
    /* Reset after a PHY select  */
    USB_CoreReset(USBx); 
 800163c:	f000 fbde 	bl	8001dfc <USB_CoreReset>
    
    /* Deactivate the power down*/
    USBx->GCCFG = USB_OTG_GCCFG_PWRDWN;
  }
 
  if(cfg.dma_enable == ENABLE)
 8001640:	9b08      	ldr	r3, [sp, #32]
 8001642:	2b01      	cmp	r3, #1
 8001644:	d107      	bne.n	8001656 <USB_CoreInit+0x56>
  {
    USBx->GAHBCFG |= USB_OTG_GAHBCFG_HBSTLEN_2;
 8001646:	68a3      	ldr	r3, [r4, #8]
 8001648:	f043 0306 	orr.w	r3, r3, #6
 800164c:	60a3      	str	r3, [r4, #8]
    USBx->GAHBCFG |= USB_OTG_GAHBCFG_DMAEN;
 800164e:	68a3      	ldr	r3, [r4, #8]
 8001650:	f043 0320 	orr.w	r3, r3, #32
 8001654:	60a3      	str	r3, [r4, #8]
  }  

  return HAL_OK;
}
 8001656:	e8bd 4038 	ldmia.w	sp!, {r3, r4, r5, lr}
 800165a:	2000      	movs	r0, #0
 800165c:	b004      	add	sp, #16
 800165e:	4770      	bx	lr
    USBx->GUSBCFG |= USB_OTG_GUSBCFG_PHYSEL;
 8001660:	68c3      	ldr	r3, [r0, #12]
 8001662:	f043 0340 	orr.w	r3, r3, #64	; 0x40
 8001666:	60c3      	str	r3, [r0, #12]
    USB_CoreReset(USBx);
 8001668:	f000 fbc8 	bl	8001dfc <USB_CoreReset>
    USBx->GCCFG = USB_OTG_GCCFG_PWRDWN;
 800166c:	f44f 3380 	mov.w	r3, #65536	; 0x10000
 8001670:	63a3      	str	r3, [r4, #56]	; 0x38
 8001672:	e7e5      	b.n	8001640 <USB_CoreInit+0x40>

08001674 <USB_EnableGlobalInt>:
  * @param  USBx  Selected device
  * @retval HAL status
  */
HAL_StatusTypeDef USB_EnableGlobalInt(USB_OTG_GlobalTypeDef *USBx)
{
  USBx->GAHBCFG |= USB_OTG_GAHBCFG_GINT;
 8001674:	6883      	ldr	r3, [r0, #8]
 8001676:	f043 0301 	orr.w	r3, r3, #1
 800167a:	6083      	str	r3, [r0, #8]
  return HAL_OK;
}
 800167c:	2000      	movs	r0, #0
 800167e:	4770      	bx	lr

08001680 <USB_DisableGlobalInt>:
  * @param  USBx  Selected device
  * @retval HAL status
*/
HAL_StatusTypeDef USB_DisableGlobalInt(USB_OTG_GlobalTypeDef *USBx)
{
  USBx->GAHBCFG &= ~USB_OTG_GAHBCFG_GINT;
 8001680:	6883      	ldr	r3, [r0, #8]
 8001682:	f023 0301 	bic.w	r3, r3, #1
 8001686:	6083      	str	r3, [r0, #8]
  return HAL_OK;
}
 8001688:	2000      	movs	r0, #0
 800168a:	4770      	bx	lr

0800168c <USB_SetCurrentMode>:
  *            @arg USB_OTG_HOST_MODE: Host mode
  *            @arg USB_OTG_DRD_MODE: Dual Role Device mode  
  * @retval HAL status
  */
HAL_StatusTypeDef USB_SetCurrentMode(USB_OTG_GlobalTypeDef *USBx , USB_OTG_ModeTypeDef mode)
{
 800168c:	b508      	push	{r3, lr}
  USBx->GUSBCFG &= ~(USB_OTG_GUSBCFG_FHMOD | USB_OTG_GUSBCFG_FDMOD); 
 800168e:	68c3      	ldr	r3, [r0, #12]
  
  if ( mode == USB_OTG_HOST_MODE)
 8001690:	2901      	cmp	r1, #1
  USBx->GUSBCFG &= ~(USB_OTG_GUSBCFG_FHMOD | USB_OTG_GUSBCFG_FDMOD); 
 8001692:	f023 43c0 	bic.w	r3, r3, #1610612736	; 0x60000000
 8001696:	60c3      	str	r3, [r0, #12]
  if ( mode == USB_OTG_HOST_MODE)
 8001698:	d108      	bne.n	80016ac <USB_SetCurrentMode+0x20>
  {
    USBx->GUSBCFG |= USB_OTG_GUSBCFG_FHMOD; 
 800169a:	68c3      	ldr	r3, [r0, #12]
 800169c:	f043 5300 	orr.w	r3, r3, #536870912	; 0x20000000
 80016a0:	60c3      	str	r3, [r0, #12]
  }
  else if ( mode == USB_OTG_DEVICE_MODE)
  {
    USBx->GUSBCFG |= USB_OTG_GUSBCFG_FDMOD; 
  }
  HAL_Delay(50U);
 80016a2:	2032      	movs	r0, #50	; 0x32
 80016a4:	f7fe ffbe 	bl	8000624 <HAL_Delay>
  
  return HAL_OK;
}
 80016a8:	2000      	movs	r0, #0
 80016aa:	bd08      	pop	{r3, pc}
  else if ( mode == USB_OTG_DEVICE_MODE)
 80016ac:	2900      	cmp	r1, #0
 80016ae:	d1f8      	bne.n	80016a2 <USB_SetCurrentMode+0x16>
    USBx->GUSBCFG |= USB_OTG_GUSBCFG_FDMOD; 
 80016b0:	68c3      	ldr	r3, [r0, #12]
 80016b2:	f043 4380 	orr.w	r3, r3, #1073741824	; 0x40000000
 80016b6:	60c3      	str	r3, [r0, #12]
 80016b8:	e7f3      	b.n	80016a2 <USB_SetCurrentMode+0x16>
	...

080016bc <USB_DevInit>:
  * @param  cfg   pointer to a USB_OTG_CfgTypeDef structure that contains
  *         the configuration information for the specified USBx peripheral.
  * @retval HAL status
  */
HAL_StatusTypeDef USB_DevInit (USB_OTG_GlobalTypeDef *USBx, USB_OTG_CfgTypeDef cfg)
{
 80016bc:	b084      	sub	sp, #16
 80016be:	e92d 41f0 	stmdb	sp!, {r4, r5, r6, r7, r8, lr}
 80016c2:	4604      	mov	r4, r0
 80016c4:	a807      	add	r0, sp, #28
 80016c6:	e880 000e 	stmia.w	r0, {r1, r2, r3}
 80016ca:	9e11      	ldr	r6, [sp, #68]	; 0x44
 80016cc:	9f0a      	ldr	r7, [sp, #40]	; 0x28
    USBx->GOTGCTL |= USB_OTG_GOTGCTL_BVALOVAL;
  }
#else
  if (cfg.vbus_sensing_enable == 0U)
  {
    USBx->GCCFG |= USB_OTG_GCCFG_NOVBUSSENS;
 80016ce:	6ba3      	ldr	r3, [r4, #56]	; 0x38
 80016d0:	4688      	mov	r8, r1
  if (cfg.vbus_sensing_enable == 0U)
 80016d2:	b9a6      	cbnz	r6, 80016fe <USB_DevInit+0x42>
    USBx->GCCFG |= USB_OTG_GCCFG_NOVBUSSENS;
 80016d4:	f443 1300 	orr.w	r3, r3, #2097152	; 0x200000
 80016d8:	63a3      	str	r3, [r4, #56]	; 0x38
    USBx->GCCFG |= USB_OTG_GCCFG_VBUSBSEN;
  }
#endif /* STM32F446xx || STM32F469xx || STM32F479xx || STM32F412Zx || STM32F412Rx || STM32F412Vx || STM32F412Cx || STM32F413xx || STM32F423xx  */
  
  /* Restart the Phy Clock */
  USBx_PCGCCTL = 0U;
 80016da:	2300      	movs	r3, #0
 80016dc:	f8c4 3e00 	str.w	r3, [r4, #3584]	; 0xe00
  
  /* Device mode configuration */
  USBx_DEVICE->DCFG |= DCFG_FRAME_INTERVAL_80;
 80016e0:	f8d4 3800 	ldr.w	r3, [r4, #2048]	; 0x800
 80016e4:	f8c4 3800 	str.w	r3, [r4, #2048]	; 0x800
  
  if(cfg.phy_itface  == USB_OTG_ULPI_PHY)
 80016e8:	9b0c      	ldr	r3, [sp, #48]	; 0x30
 80016ea:	2b01      	cmp	r3, #1
  USBx_DEVICE->DCFG |= DCFG_FRAME_INTERVAL_80;
 80016ec:	f504 6500 	add.w	r5, r4, #2048	; 0x800
  if(cfg.phy_itface  == USB_OTG_ULPI_PHY)
 80016f0:	d15e      	bne.n	80017b0 <USB_DevInit+0xf4>
  {
    if(cfg.speed == USB_OTG_SPEED_HIGH)
 80016f2:	9909      	ldr	r1, [sp, #36]	; 0x24
 80016f4:	b939      	cbnz	r1, 8001706 <USB_DevInit+0x4a>
    }
  }
  else
  {
    /* Set Full speed phy */
    USB_SetDevSpeed (USBx , USB_OTG_SPEED_FULL);
 80016f6:	4620      	mov	r0, r4
 80016f8:	f000 f89e 	bl	8001838 <USB_SetDevSpeed>
 80016fc:	e007      	b.n	800170e <USB_DevInit+0x52>
    USBx->GCCFG |= USB_OTG_GCCFG_VBUSBSEN;
 80016fe:	f443 2300 	orr.w	r3, r3, #524288	; 0x80000
 8001702:	63a3      	str	r3, [r4, #56]	; 0x38
 8001704:	e7e9      	b.n	80016da <USB_DevInit+0x1e>
      USB_SetDevSpeed (USBx , USB_OTG_SPEED_HIGH_IN_FULL);
 8001706:	4619      	mov	r1, r3
 8001708:	4620      	mov	r0, r4
 800170a:	f000 f895 	bl	8001838 <USB_SetDevSpeed>
  }

  /* Flush the FIFOs */
  USB_FlushTxFifo(USBx , 0x10U); /* all Tx FIFOs */
 800170e:	2110      	movs	r1, #16
 8001710:	4620      	mov	r0, r4
 8001712:	f000 f86f 	bl	80017f4 <USB_FlushTxFifo>
  USB_FlushRxFifo(USBx);
 8001716:	4620      	mov	r0, r4
 8001718:	f000 f87e 	bl	8001818 <USB_FlushRxFifo>
  
  /* Clear all pending Device Interrupts */
  USBx_DEVICE->DIEPMSK = 0U;
 800171c:	2300      	movs	r3, #0
  USBx_DEVICE->DOEPMSK = 0U;
  USBx_DEVICE->DAINT = 0xFFFFFFFFU;
 800171e:	f04f 32ff 	mov.w	r2, #4294967295
  USBx_DEVICE->DIEPMSK = 0U;
 8001722:	612b      	str	r3, [r5, #16]
 8001724:	4619      	mov	r1, r3
  USBx_DEVICE->DOEPMSK = 0U;
 8001726:	616b      	str	r3, [r5, #20]
  
  for (i = 0U; i < cfg.dev_endpoints; i++)
  {
    if ((USBx_INEP(i)->DIEPCTL & USB_OTG_DIEPCTL_EPENA) == USB_OTG_DIEPCTL_EPENA)
    {
      USBx_INEP(i)->DIEPCTL = (USB_OTG_DIEPCTL_EPDIS | USB_OTG_DIEPCTL_SNAK);
 8001728:	f04f 4090 	mov.w	r0, #1207959552	; 0x48000000
  USBx_DEVICE->DAINT = 0xFFFFFFFFU;
 800172c:	61aa      	str	r2, [r5, #24]
    {
      USBx_INEP(i)->DIEPCTL = 0U;
    }
    
    USBx_INEP(i)->DIEPTSIZ = 0U;
    USBx_INEP(i)->DIEPINT  = 0xFFU;
 800172e:	f04f 0eff 	mov.w	lr, #255	; 0xff
  USBx_DEVICE->DAINTMSK = 0U;
 8001732:	61eb      	str	r3, [r5, #28]
 8001734:	f504 6210 	add.w	r2, r4, #2304	; 0x900
  for (i = 0U; i < cfg.dev_endpoints; i++)
 8001738:	4543      	cmp	r3, r8
 800173a:	d13b      	bne.n	80017b4 <USB_DevInit+0xf8>
 800173c:	2100      	movs	r1, #0
 800173e:	f504 6230 	add.w	r2, r4, #2816	; 0xb00
 8001742:	4608      	mov	r0, r1
  
  for (i = 0U; i < cfg.dev_endpoints; i++)
  {
    if ((USBx_OUTEP(i)->DOEPCTL & USB_OTG_DOEPCTL_EPENA) == USB_OTG_DOEPCTL_EPENA)
    {
      USBx_OUTEP(i)->DOEPCTL = (USB_OTG_DOEPCTL_EPDIS | USB_OTG_DOEPCTL_SNAK);
 8001744:	f04f 4e90 	mov.w	lr, #1207959552	; 0x48000000
    {
      USBx_OUTEP(i)->DOEPCTL = 0U;
    }
    
    USBx_OUTEP(i)->DOEPTSIZ = 0U;
    USBx_OUTEP(i)->DOEPINT  = 0xFFU;
 8001748:	f04f 0cff 	mov.w	ip, #255	; 0xff
  for (i = 0U; i < cfg.dev_endpoints; i++)
 800174c:	428b      	cmp	r3, r1
 800174e:	d13e      	bne.n	80017ce <USB_DevInit+0x112>
  }
  
  USBx_DEVICE->DIEPMSK &= ~(USB_OTG_DIEPMSK_TXFURM);
 8001750:	692b      	ldr	r3, [r5, #16]
  
  if (cfg.dma_enable == 1U)
 8001752:	2f01      	cmp	r7, #1
  USBx_DEVICE->DIEPMSK &= ~(USB_OTG_DIEPMSK_TXFURM);
 8001754:	f423 7380 	bic.w	r3, r3, #256	; 0x100
 8001758:	612b      	str	r3, [r5, #16]
  if (cfg.dma_enable == 1U)
 800175a:	d108      	bne.n	800176e <USB_DevInit+0xb2>
  {
    /*Set threshold parameters */
    USBx_DEVICE->DTHRCTL = (USB_OTG_DTHRCTL_TXTHRLEN_6 | USB_OTG_DTHRCTL_RXTHRLEN_6);
 800175c:	4b23      	ldr	r3, [pc, #140]	; (80017ec <USB_DevInit+0x130>)
 800175e:	632b      	str	r3, [r5, #48]	; 0x30
    USBx_DEVICE->DTHRCTL |= (USB_OTG_DTHRCTL_RXTHREN | USB_OTG_DTHRCTL_ISOTHREN | USB_OTG_DTHRCTL_NONISOTHREN);
 8001760:	6b2b      	ldr	r3, [r5, #48]	; 0x30
 8001762:	f443 3380 	orr.w	r3, r3, #65536	; 0x10000
 8001766:	f043 0303 	orr.w	r3, r3, #3
 800176a:	632b      	str	r3, [r5, #48]	; 0x30
    
    i= USBx_DEVICE->DTHRCTL;
 800176c:	6b2b      	ldr	r3, [r5, #48]	; 0x30
  }
  
  /* Disable all interrupts. */
  USBx->GINTMSK = 0U;
 800176e:	2300      	movs	r3, #0
 8001770:	61a3      	str	r3, [r4, #24]
  
  /* Clear any pending interrupts */
  USBx->GINTSTS = 0xBFFFFFFFU;
 8001772:	f06f 4380 	mvn.w	r3, #1073741824	; 0x40000000
 8001776:	6163      	str	r3, [r4, #20]

  /* Enable the common interrupts */
  if (cfg.dma_enable == DISABLE)
 8001778:	b91f      	cbnz	r7, 8001782 <USB_DevInit+0xc6>
  {
    USBx->GINTMSK |= USB_OTG_GINTMSK_RXFLVLM; 
 800177a:	69a3      	ldr	r3, [r4, #24]
 800177c:	f043 0310 	orr.w	r3, r3, #16
 8001780:	61a3      	str	r3, [r4, #24]
  }
  
  /* Enable interrupts matching to the Device mode ONLY */
  USBx->GINTMSK |= (USB_OTG_GINTMSK_USBSUSPM | USB_OTG_GINTMSK_USBRST |\
 8001782:	69a2      	ldr	r2, [r4, #24]
 8001784:	4b1a      	ldr	r3, [pc, #104]	; (80017f0 <USB_DevInit+0x134>)
 8001786:	4313      	orrs	r3, r2
 8001788:	61a3      	str	r3, [r4, #24]
                    USB_OTG_GINTMSK_ENUMDNEM | USB_OTG_GINTMSK_IEPINT |\
                    USB_OTG_GINTMSK_OEPINT   | USB_OTG_GINTMSK_IISOIXFRM|\
                    USB_OTG_GINTMSK_PXFRM_IISOOXFRM | USB_OTG_GINTMSK_WUIM);
  
  if(cfg.Sof_enable)
 800178a:	9b0d      	ldr	r3, [sp, #52]	; 0x34
 800178c:	b11b      	cbz	r3, 8001796 <USB_DevInit+0xda>
  {
    USBx->GINTMSK |= USB_OTG_GINTMSK_SOFM;
 800178e:	69a3      	ldr	r3, [r4, #24]
 8001790:	f043 0308 	orr.w	r3, r3, #8
 8001794:	61a3      	str	r3, [r4, #24]
  }

  if (cfg.vbus_sensing_enable == ENABLE)
 8001796:	2e01      	cmp	r6, #1
  {
    USBx->GINTMSK |= (USB_OTG_GINTMSK_SRQIM | USB_OTG_GINTMSK_OTGINT); 
 8001798:	bf01      	itttt	eq
 800179a:	69a3      	ldreq	r3, [r4, #24]
 800179c:	f043 4380 	orreq.w	r3, r3, #1073741824	; 0x40000000
 80017a0:	f043 0304 	orreq.w	r3, r3, #4
 80017a4:	61a3      	streq	r3, [r4, #24]
  }
  
  return HAL_OK;
}
 80017a6:	e8bd 41f0 	ldmia.w	sp!, {r4, r5, r6, r7, r8, lr}
 80017aa:	2000      	movs	r0, #0
 80017ac:	b004      	add	sp, #16
 80017ae:	4770      	bx	lr
    USB_SetDevSpeed (USBx , USB_OTG_SPEED_FULL);
 80017b0:	2103      	movs	r1, #3
 80017b2:	e7a0      	b.n	80016f6 <USB_DevInit+0x3a>
    if ((USBx_INEP(i)->DIEPCTL & USB_OTG_DIEPCTL_EPENA) == USB_OTG_DIEPCTL_EPENA)
 80017b4:	f8d2 c000 	ldr.w	ip, [r2]
 80017b8:	f1bc 0f00 	cmp.w	ip, #0
      USBx_INEP(i)->DIEPCTL = (USB_OTG_DIEPCTL_EPDIS | USB_OTG_DIEPCTL_SNAK);
 80017bc:	bfb4      	ite	lt
 80017be:	6010      	strlt	r0, [r2, #0]
      USBx_INEP(i)->DIEPCTL = 0U;
 80017c0:	6011      	strge	r1, [r2, #0]
  for (i = 0U; i < cfg.dev_endpoints; i++)
 80017c2:	3301      	adds	r3, #1
    USBx_INEP(i)->DIEPTSIZ = 0U;
 80017c4:	6111      	str	r1, [r2, #16]
    USBx_INEP(i)->DIEPINT  = 0xFFU;
 80017c6:	f8c2 e008 	str.w	lr, [r2, #8]
 80017ca:	3220      	adds	r2, #32
 80017cc:	e7b4      	b.n	8001738 <USB_DevInit+0x7c>
    if ((USBx_OUTEP(i)->DOEPCTL & USB_OTG_DOEPCTL_EPENA) == USB_OTG_DOEPCTL_EPENA)
 80017ce:	f8d2 8000 	ldr.w	r8, [r2]
 80017d2:	f1b8 0f00 	cmp.w	r8, #0
      USBx_OUTEP(i)->DOEPCTL = (USB_OTG_DOEPCTL_EPDIS | USB_OTG_DOEPCTL_SNAK);
 80017d6:	bfb4      	ite	lt
 80017d8:	f8c2 e000 	strlt.w	lr, [r2]
      USBx_OUTEP(i)->DOEPCTL = 0U;
 80017dc:	6010      	strge	r0, [r2, #0]
  for (i = 0U; i < cfg.dev_endpoints; i++)
 80017de:	3101      	adds	r1, #1
    USBx_OUTEP(i)->DOEPTSIZ = 0U;
 80017e0:	6110      	str	r0, [r2, #16]
    USBx_OUTEP(i)->DOEPINT  = 0xFFU;
 80017e2:	f8c2 c008 	str.w	ip, [r2, #8]
 80017e6:	3220      	adds	r2, #32
 80017e8:	e7b0      	b.n	800174c <USB_DevInit+0x90>
 80017ea:	bf00      	nop
 80017ec:	00800100 	.word	0x00800100
 80017f0:	803c3800 	.word	0x803c3800

080017f4 <USB_FlushTxFifo>:
  */
HAL_StatusTypeDef USB_FlushTxFifo (USB_OTG_GlobalTypeDef *USBx, uint32_t num )
{
  uint32_t count = 0;
  
  USBx->GRSTCTL = ( USB_OTG_GRSTCTL_TXFFLSH |(uint32_t)( num << 6)); 
 80017f4:	0189      	lsls	r1, r1, #6
 80017f6:	f041 0120 	orr.w	r1, r1, #32
 80017fa:	4a06      	ldr	r2, [pc, #24]	; (8001814 <USB_FlushTxFifo+0x20>)
 80017fc:	6101      	str	r1, [r0, #16]
  
  do
  {
    if (++count > 200000)
 80017fe:	3a01      	subs	r2, #1
 8001800:	d005      	beq.n	800180e <USB_FlushTxFifo+0x1a>
    {
      return HAL_TIMEOUT;
    }
  }
  while ((USBx->GRSTCTL & USB_OTG_GRSTCTL_TXFFLSH) == USB_OTG_GRSTCTL_TXFFLSH);
 8001802:	6903      	ldr	r3, [r0, #16]
 8001804:	f013 0320 	ands.w	r3, r3, #32
 8001808:	d1f9      	bne.n	80017fe <USB_FlushTxFifo+0xa>
  
  return HAL_OK;
 800180a:	4618      	mov	r0, r3
 800180c:	4770      	bx	lr
      return HAL_TIMEOUT;
 800180e:	2003      	movs	r0, #3
}
 8001810:	4770      	bx	lr
 8001812:	bf00      	nop
 8001814:	00030d41 	.word	0x00030d41

08001818 <USB_FlushRxFifo>:
  */
HAL_StatusTypeDef USB_FlushRxFifo(USB_OTG_GlobalTypeDef *USBx)
{
  uint32_t count = 0;
  
  USBx->GRSTCTL = USB_OTG_GRSTCTL_RXFFLSH;
 8001818:	2310      	movs	r3, #16
 800181a:	4a06      	ldr	r2, [pc, #24]	; (8001834 <USB_FlushRxFifo+0x1c>)
 800181c:	6103      	str	r3, [r0, #16]
  
  do
  {
    if (++count > 200000)
 800181e:	3a01      	subs	r2, #1
 8001820:	d005      	beq.n	800182e <USB_FlushRxFifo+0x16>
    {
      return HAL_TIMEOUT;
    }
  }
  while ((USBx->GRSTCTL & USB_OTG_GRSTCTL_RXFFLSH) == USB_OTG_GRSTCTL_RXFFLSH);
 8001822:	6903      	ldr	r3, [r0, #16]
 8001824:	f013 0310 	ands.w	r3, r3, #16
 8001828:	d1f9      	bne.n	800181e <USB_FlushRxFifo+0x6>
  
  return HAL_OK;
 800182a:	4618      	mov	r0, r3
 800182c:	4770      	bx	lr
      return HAL_TIMEOUT;
 800182e:	2003      	movs	r0, #3
}
 8001830:	4770      	bx	lr
 8001832:	bf00      	nop
 8001834:	00030d41 	.word	0x00030d41

08001838 <USB_SetDevSpeed>:
  *            @arg USB_OTG_SPEED_LOW: Low speed mode
  * @retval  Hal status
  */
HAL_StatusTypeDef USB_SetDevSpeed(USB_OTG_GlobalTypeDef *USBx , uint8_t speed)
{
  USBx_DEVICE->DCFG |= speed;
 8001838:	f8d0 3800 	ldr.w	r3, [r0, #2048]	; 0x800
 800183c:	4319      	orrs	r1, r3
 800183e:	f8c0 1800 	str.w	r1, [r0, #2048]	; 0x800
  return HAL_OK;
}
 8001842:	2000      	movs	r0, #0
 8001844:	4770      	bx	lr

08001846 <USB_GetDevSpeed>:
  */
uint8_t USB_GetDevSpeed(USB_OTG_GlobalTypeDef *USBx)
{
  uint8_t speed = 0U;
  
  if((USBx_DEVICE->DSTS & USB_OTG_DSTS_ENUMSPD) == DSTS_ENUMSPD_HS_PHY_30MHZ_OR_60MHZ)
 8001846:	f500 6200 	add.w	r2, r0, #2048	; 0x800
 800184a:	f8d0 0808 	ldr.w	r0, [r0, #2056]	; 0x808
 800184e:	f010 0006 	ands.w	r0, r0, #6
 8001852:	d012      	beq.n	800187a <USB_GetDevSpeed+0x34>
  {
    speed = USB_OTG_SPEED_HIGH;
  }
  else if (((USBx_DEVICE->DSTS & USB_OTG_DSTS_ENUMSPD) == DSTS_ENUMSPD_FS_PHY_30MHZ_OR_60MHZ)||
 8001854:	6893      	ldr	r3, [r2, #8]
 8001856:	f003 0306 	and.w	r3, r3, #6
 800185a:	2b02      	cmp	r3, #2
 800185c:	d00c      	beq.n	8001878 <USB_GetDevSpeed+0x32>
           ((USBx_DEVICE->DSTS & USB_OTG_DSTS_ENUMSPD) == DSTS_ENUMSPD_FS_PHY_48MHZ))
 800185e:	6893      	ldr	r3, [r2, #8]
 8001860:	f003 0306 	and.w	r3, r3, #6
  else if (((USBx_DEVICE->DSTS & USB_OTG_DSTS_ENUMSPD) == DSTS_ENUMSPD_FS_PHY_30MHZ_OR_60MHZ)||
 8001864:	2b06      	cmp	r3, #6
 8001866:	d007      	beq.n	8001878 <USB_GetDevSpeed+0x32>
  {
    speed = USB_OTG_SPEED_FULL;
  }
  else if((USBx_DEVICE->DSTS & USB_OTG_DSTS_ENUMSPD) == DSTS_ENUMSPD_LS_PHY_6MHZ)
 8001868:	6893      	ldr	r3, [r2, #8]
 800186a:	f003 0306 	and.w	r3, r3, #6
 800186e:	2b04      	cmp	r3, #4
  {
    speed = USB_OTG_SPEED_LOW;
 8001870:	bf14      	ite	ne
 8001872:	2000      	movne	r0, #0
 8001874:	2002      	moveq	r0, #2
 8001876:	4770      	bx	lr
    speed = USB_OTG_SPEED_FULL;
 8001878:	2003      	movs	r0, #3
  }
  
  return speed;
}
 800187a:	4770      	bx	lr

0800187c <USB_ActivateEndpoint>:
  * @param  USBx  Selected device
  * @param  ep pointer to endpoint structure
  * @retval HAL status
  */
HAL_StatusTypeDef USB_ActivateEndpoint(USB_OTG_GlobalTypeDef *USBx, USB_OTG_EPTypeDef *ep)
{
 800187c:	b530      	push	{r4, r5, lr}
  if (ep->is_in == 1U)
 800187e:	784b      	ldrb	r3, [r1, #1]
 8001880:	780c      	ldrb	r4, [r1, #0]
  {
   USBx_DEVICE->DAINTMSK |= USB_OTG_DAINTMSK_IEPM & ((1U << (ep->num)));
 8001882:	f8d0 581c 	ldr.w	r5, [r0, #2076]	; 0x81c
 8001886:	f500 6200 	add.w	r2, r0, #2048	; 0x800
  if (ep->is_in == 1U)
 800188a:	2b01      	cmp	r3, #1
 800188c:	d11b      	bne.n	80018c6 <USB_ActivateEndpoint+0x4a>
   USBx_DEVICE->DAINTMSK |= USB_OTG_DAINTMSK_IEPM & ((1U << (ep->num)));
 800188e:	40a3      	lsls	r3, r4
 8001890:	b29b      	uxth	r3, r3
 8001892:	432b      	orrs	r3, r5
   
    if (((USBx_INEP(ep->num)->DIEPCTL) & USB_OTG_DIEPCTL_USBAEP) == 0U)
 8001894:	f500 6010 	add.w	r0, r0, #2304	; 0x900
   USBx_DEVICE->DAINTMSK |= USB_OTG_DAINTMSK_IEPM & ((1U << (ep->num)));
 8001898:	61d3      	str	r3, [r2, #28]
    if (((USBx_INEP(ep->num)->DIEPCTL) & USB_OTG_DIEPCTL_USBAEP) == 0U)
 800189a:	eb00 1344 	add.w	r3, r0, r4, lsl #5
 800189e:	681a      	ldr	r2, [r3, #0]
 80018a0:	0412      	lsls	r2, r2, #16
 80018a2:	d40e      	bmi.n	80018c2 <USB_ActivateEndpoint+0x46>
    {
      USBx_INEP(ep->num)->DIEPCTL |= ((ep->maxpacket & USB_OTG_DIEPCTL_MPSIZ ) | (ep->type << 18U) |\
 80018a4:	688a      	ldr	r2, [r1, #8]
 80018a6:	78c8      	ldrb	r0, [r1, #3]
 80018a8:	681d      	ldr	r5, [r3, #0]
 80018aa:	f3c2 020a 	ubfx	r2, r2, #0, #11
 80018ae:	f042 5280 	orr.w	r2, r2, #268435456	; 0x10000000
 80018b2:	f442 4200 	orr.w	r2, r2, #32768	; 0x8000
 80018b6:	ea42 4080 	orr.w	r0, r2, r0, lsl #18
 80018ba:	ea40 5084 	orr.w	r0, r0, r4, lsl #22
 80018be:	4328      	orrs	r0, r5
 80018c0:	6018      	str	r0, [r3, #0]
      USBx_OUTEP(ep->num)->DOEPCTL |= ((ep->maxpacket & USB_OTG_DOEPCTL_MPSIZ ) | (ep->type << 18U) |\
       (USB_OTG_DIEPCTL_SD0PID_SEVNFRM)| (USB_OTG_DOEPCTL_USBAEP));
    } 
  }
  return HAL_OK;
}
 80018c2:	2000      	movs	r0, #0
 80018c4:	bd30      	pop	{r4, r5, pc}
     USBx_DEVICE->DAINTMSK |= USB_OTG_DAINTMSK_OEPM & ((1U << (ep->num)) << 16U);
 80018c6:	f44f 3380 	mov.w	r3, #65536	; 0x10000
 80018ca:	40a3      	lsls	r3, r4
    if (((USBx_OUTEP(ep->num)->DOEPCTL) & USB_OTG_DOEPCTL_USBAEP) == 0U)
 80018cc:	f500 6030 	add.w	r0, r0, #2816	; 0xb00
     USBx_DEVICE->DAINTMSK |= USB_OTG_DAINTMSK_OEPM & ((1U << (ep->num)) << 16U);
 80018d0:	432b      	orrs	r3, r5
    if (((USBx_OUTEP(ep->num)->DOEPCTL) & USB_OTG_DOEPCTL_USBAEP) == 0U)
 80018d2:	eb00 1044 	add.w	r0, r0, r4, lsl #5
     USBx_DEVICE->DAINTMSK |= USB_OTG_DAINTMSK_OEPM & ((1U << (ep->num)) << 16U);
 80018d6:	61d3      	str	r3, [r2, #28]
    if (((USBx_OUTEP(ep->num)->DOEPCTL) & USB_OTG_DOEPCTL_USBAEP) == 0U)
 80018d8:	6803      	ldr	r3, [r0, #0]
 80018da:	041b      	lsls	r3, r3, #16
 80018dc:	d4f1      	bmi.n	80018c2 <USB_ActivateEndpoint+0x46>
      USBx_OUTEP(ep->num)->DOEPCTL |= ((ep->maxpacket & USB_OTG_DOEPCTL_MPSIZ ) | (ep->type << 18U) |\
 80018de:	688b      	ldr	r3, [r1, #8]
 80018e0:	78c9      	ldrb	r1, [r1, #3]
 80018e2:	6802      	ldr	r2, [r0, #0]
 80018e4:	f3c3 030a 	ubfx	r3, r3, #0, #11
 80018e8:	f043 5380 	orr.w	r3, r3, #268435456	; 0x10000000
 80018ec:	f443 4300 	orr.w	r3, r3, #32768	; 0x8000
 80018f0:	ea43 4381 	orr.w	r3, r3, r1, lsl #18
 80018f4:	4313      	orrs	r3, r2
 80018f6:	6003      	str	r3, [r0, #0]
 80018f8:	e7e3      	b.n	80018c2 <USB_ActivateEndpoint+0x46>

080018fa <USB_DeactivateEndpoint>:
 80018fa:	f000 b801 	b.w	8001900 <USB_DeactivateDedicatedEndpoint>
	...

08001900 <USB_DeactivateDedicatedEndpoint>:
  * @param  USBx  Selected device
  * @param  ep pointer to endpoint structure
  * @retval HAL status
  */
HAL_StatusTypeDef USB_DeactivateDedicatedEndpoint(USB_OTG_GlobalTypeDef *USBx, USB_OTG_EPTypeDef *ep)
{
 8001900:	b570      	push	{r4, r5, r6, lr}
  uint32_t count = 0U;
  
  /* Disable the IN endpoint */
  if (ep->is_in == 1U)
 8001902:	784b      	ldrb	r3, [r1, #1]
 8001904:	2b01      	cmp	r3, #1
{
 8001906:	460e      	mov	r6, r1
 8001908:	4605      	mov	r5, r0
 800190a:	7809      	ldrb	r1, [r1, #0]
 800190c:	f04f 0320 	mov.w	r3, #32
  if (ep->is_in == 1U)
 8001910:	d126      	bne.n	8001960 <USB_DeactivateDedicatedEndpoint+0x60>
  {
    USBx_INEP(ep->num)->DIEPCTL &= ~USB_OTG_DIEPCTL_USBAEP;  
 8001912:	f500 6210 	add.w	r2, r0, #2304	; 0x900
 8001916:	fb13 2301 	smlabb	r3, r3, r1, r2
 800191a:	681a      	ldr	r2, [r3, #0]
 800191c:	f422 4200 	bic.w	r2, r2, #32768	; 0x8000
 8001920:	601a      	str	r2, [r3, #0]
    
    /* sets the NAK bit for the IN endpoint */
    USBx_INEP(ep->num)->DIEPCTL = USB_OTG_DIEPCTL_SNAK;
 8001922:	f04f 6200 	mov.w	r2, #134217728	; 0x8000000
 8001926:	601a      	str	r2, [r3, #0]
    
    /* Disable IN endpoint */
    USBx_INEP(ep->num)->DIEPCTL = USB_OTG_DIEPCTL_EPDIS;
 8001928:	f04f 4280 	mov.w	r2, #1073741824	; 0x40000000
 800192c:	601a      	str	r2, [r3, #0]
 800192e:	4a1f      	ldr	r2, [pc, #124]	; (80019ac <USB_DeactivateDedicatedEndpoint+0xac>)
    
    do
    {
      if (++count > 200000U)
 8001930:	3a01      	subs	r2, #1
 8001932:	d101      	bne.n	8001938 <USB_DeactivateDedicatedEndpoint+0x38>
      {
        return HAL_TIMEOUT;
 8001934:	2003      	movs	r0, #3
 8001936:	bd70      	pop	{r4, r5, r6, pc}
      }
    }
    
    /*Wait for  EPDISD endpoint disabled interrupt*/ 
    while ((USBx_INEP(ep->num)->DIEPINT & USB_OTG_DIEPCTL_EPDIS) == USB_OTG_DIEPCTL_EPDIS);
 8001938:	689c      	ldr	r4, [r3, #8]
 800193a:	f014 4480 	ands.w	r4, r4, #1073741824	; 0x40000000
 800193e:	d1f7      	bne.n	8001930 <USB_DeactivateDedicatedEndpoint+0x30>
    
    
    /* Flush any data remaining in the TxFIFO */
    USB_FlushTxFifo(USBx , 0x10U);
 8001940:	2110      	movs	r1, #16
 8001942:	4628      	mov	r0, r5
 8001944:	f7ff ff56 	bl	80017f4 <USB_FlushTxFifo>
    
    /* Disable endpoint interrupts */
    USBx_DEVICE->DAINTMSK &= ~(USB_OTG_DAINTMSK_IEPM & ((1U << (ep->num))));   
 8001948:	7831      	ldrb	r1, [r6, #0]
 800194a:	f8d5 281c 	ldr.w	r2, [r5, #2076]	; 0x81c
 800194e:	2301      	movs	r3, #1
 8001950:	408b      	lsls	r3, r1
 8001952:	b29b      	uxth	r3, r3
 8001954:	ea22 0303 	bic.w	r3, r2, r3
 8001958:	f8c5 381c 	str.w	r3, [r5, #2076]	; 0x81c
    USBx_DEVICE->DCTL |= USB_OTG_DCTL_CGONAK;
    
    /* Disable endpoint interrupts */
    USBx_DEVICE->DAINTMSK &= ~(USB_OTG_DAINTMSK_OEPM & ((1U << (ep->num)) << 16U));         
  }
  return HAL_OK;
 800195c:	4620      	mov	r0, r4
 800195e:	bd70      	pop	{r4, r5, r6, pc}
    USBx_OUTEP(ep->num)->DOEPCTL &= ~USB_OTG_DOEPCTL_USBAEP;  
 8001960:	f500 6230 	add.w	r2, r0, #2816	; 0xb00
 8001964:	fb13 2301 	smlabb	r3, r3, r1, r2
 8001968:	681a      	ldr	r2, [r3, #0]
 800196a:	f422 4200 	bic.w	r2, r2, #32768	; 0x8000
 800196e:	601a      	str	r2, [r3, #0]
    USBx_OUTEP(ep->num)->DOEPCTL = USB_OTG_DOEPCTL_SNAK;
 8001970:	f04f 6200 	mov.w	r2, #134217728	; 0x8000000
 8001974:	601a      	str	r2, [r3, #0]
    USBx_OUTEP(ep->num)->DOEPCTL = USB_OTG_DOEPCTL_EPDIS;
 8001976:	f04f 4280 	mov.w	r2, #1073741824	; 0x40000000
 800197a:	601a      	str	r2, [r3, #0]
 800197c:	4a0b      	ldr	r2, [pc, #44]	; (80019ac <USB_DeactivateDedicatedEndpoint+0xac>)
      if (++count > 200000U)
 800197e:	3a01      	subs	r2, #1
 8001980:	d0d8      	beq.n	8001934 <USB_DeactivateDedicatedEndpoint+0x34>
    while ((USBx_OUTEP(ep->num)->DOEPINT & USB_OTG_DOEPINT_OTEPDIS) == USB_OTG_DOEPINT_OTEPDIS);
 8001982:	6898      	ldr	r0, [r3, #8]
 8001984:	f010 0010 	ands.w	r0, r0, #16
 8001988:	d1f9      	bne.n	800197e <USB_DeactivateDedicatedEndpoint+0x7e>
    USBx_DEVICE->DCTL |= USB_OTG_DCTL_CGONAK;
 800198a:	f8d5 3804 	ldr.w	r3, [r5, #2052]	; 0x804
 800198e:	f443 6380 	orr.w	r3, r3, #1024	; 0x400
 8001992:	f8c5 3804 	str.w	r3, [r5, #2052]	; 0x804
    USBx_DEVICE->DAINTMSK &= ~(USB_OTG_DAINTMSK_OEPM & ((1U << (ep->num)) << 16U));         
 8001996:	f8d5 381c 	ldr.w	r3, [r5, #2076]	; 0x81c
 800199a:	f44f 3280 	mov.w	r2, #65536	; 0x10000
 800199e:	408a      	lsls	r2, r1
 80019a0:	ea23 0302 	bic.w	r3, r3, r2
 80019a4:	f8c5 381c 	str.w	r3, [r5, #2076]	; 0x81c

}
 80019a8:	bd70      	pop	{r4, r5, r6, pc}
 80019aa:	bf00      	nop
 80019ac:	00030d41 	.word	0x00030d41

080019b0 <USB_EPStartXfer>:
  *           0 : DMA feature not used 
  *           1 : DMA feature used  
  * @retval HAL status
  */
HAL_StatusTypeDef USB_EPStartXfer(USB_OTG_GlobalTypeDef *USBx , USB_OTG_EPTypeDef *ep, uint8_t dma)
{
 80019b0:	b5f7      	push	{r0, r1, r2, r4, r5, r6, r7, lr}
  uint16_t pktcnt = 0U;
  
  /* IN endpoint */
  if (ep->is_in == 1U)
 80019b2:	784b      	ldrb	r3, [r1, #1]
 80019b4:	780c      	ldrb	r4, [r1, #0]
 80019b6:	2b01      	cmp	r3, #1
 80019b8:	694b      	ldr	r3, [r1, #20]
 80019ba:	d177      	bne.n	8001aac <USB_EPStartXfer+0xfc>
 80019bc:	2620      	movs	r6, #32
 80019be:	f500 6510 	add.w	r5, r0, #2304	; 0x900
  {
    /* Zero Length Packet? */
    if (ep->xfer_len == 0U)
    {
      USBx_INEP(ep->num)->DIEPTSIZ &= ~(USB_OTG_DIEPTSIZ_PKTCNT); 
 80019c2:	fb16 5404 	smlabb	r4, r6, r4, r5
 80019c6:	6926      	ldr	r6, [r4, #16]
    if (ep->xfer_len == 0U)
 80019c8:	2b00      	cmp	r3, #0
 80019ca:	d138      	bne.n	8001a3e <USB_EPStartXfer+0x8e>
      USBx_INEP(ep->num)->DIEPTSIZ &= ~(USB_OTG_DIEPTSIZ_PKTCNT); 
 80019cc:	f026 56ff 	bic.w	r6, r6, #534773760	; 0x1fe00000
 80019d0:	f426 16c0 	bic.w	r6, r6, #1572864	; 0x180000
 80019d4:	6126      	str	r6, [r4, #16]
      USBx_INEP(ep->num)->DIEPTSIZ |= (USB_OTG_DIEPTSIZ_PKTCNT & (1U << 19U)) ;
 80019d6:	6926      	ldr	r6, [r4, #16]
 80019d8:	f446 2600 	orr.w	r6, r6, #524288	; 0x80000
 80019dc:	6126      	str	r6, [r4, #16]
      USBx_INEP(ep->num)->DIEPTSIZ &= ~(USB_OTG_DIEPTSIZ_XFRSIZ); 
 80019de:	6926      	ldr	r6, [r4, #16]
 80019e0:	0cf6      	lsrs	r6, r6, #19
 80019e2:	04f6      	lsls	r6, r6, #19
 80019e4:	6126      	str	r6, [r4, #16]
        USBx_INEP(ep->num)->DIEPTSIZ &= ~(USB_OTG_DIEPTSIZ_MULCNT); 
        USBx_INEP(ep->num)->DIEPTSIZ |= (USB_OTG_DIEPTSIZ_MULCNT & (1U << 29U)); 
      }       
    }

    if (dma == 1U)
 80019e6:	2a01      	cmp	r2, #1
 80019e8:	d150      	bne.n	8001a8c <USB_EPStartXfer+0xdc>
    {
      USBx_INEP(ep->num)->DIEPDMA = (uint32_t)(ep->dma_addr);
 80019ea:	780c      	ldrb	r4, [r1, #0]
 80019ec:	690e      	ldr	r6, [r1, #16]
 80019ee:	eb05 1444 	add.w	r4, r5, r4, lsl #5
 80019f2:	6166      	str	r6, [r4, #20]
          USBx_DEVICE->DIEPEMPMSK |= 1U << ep->num;
        }
      }
    }

    if (ep->type == EP_TYPE_ISOC)
 80019f4:	78ce      	ldrb	r6, [r1, #3]
 80019f6:	2e01      	cmp	r6, #1
 80019f8:	d10f      	bne.n	8001a1a <USB_EPStartXfer+0x6a>
    {
      if ((USBx_DEVICE->DSTS & ( 1U << 8U )) == 0U)
 80019fa:	f8d0 4808 	ldr.w	r4, [r0, #2056]	; 0x808
 80019fe:	780f      	ldrb	r7, [r1, #0]
 8001a00:	f414 7f80 	tst.w	r4, #256	; 0x100
 8001a04:	f04f 0420 	mov.w	r4, #32
      {
        USBx_INEP(ep->num)->DIEPCTL |= USB_OTG_DIEPCTL_SODDFRM;
 8001a08:	fb14 5407 	smlabb	r4, r4, r7, r5
 8001a0c:	6827      	ldr	r7, [r4, #0]
 8001a0e:	bf0c      	ite	eq
 8001a10:	f047 5700 	orreq.w	r7, r7, #536870912	; 0x20000000
      }
      else
      {
        USBx_INEP(ep->num)->DIEPCTL |= USB_OTG_DIEPCTL_SD0PID_SEVNFRM;
 8001a14:	f047 5780 	orrne.w	r7, r7, #268435456	; 0x10000000
 8001a18:	6027      	str	r7, [r4, #0]
      }
    } 
    
    /* EP enable, IN data in FIFO */
    USBx_INEP(ep->num)->DIEPCTL |= (USB_OTG_DIEPCTL_CNAK | USB_OTG_DIEPCTL_EPENA);
 8001a1a:	780f      	ldrb	r7, [r1, #0]
 8001a1c:	eb05 1547 	add.w	r5, r5, r7, lsl #5
    
    if (ep->type == EP_TYPE_ISOC)
 8001a20:	2e01      	cmp	r6, #1
    USBx_INEP(ep->num)->DIEPCTL |= (USB_OTG_DIEPCTL_CNAK | USB_OTG_DIEPCTL_EPENA);
 8001a22:	682c      	ldr	r4, [r5, #0]
 8001a24:	f044 4404 	orr.w	r4, r4, #2214592512	; 0x84000000
 8001a28:	602c      	str	r4, [r5, #0]
    if (ep->type == EP_TYPE_ISOC)
 8001a2a:	d105      	bne.n	8001a38 <USB_EPStartXfer+0x88>
    {
      USB_WritePacket(USBx, ep->xfer_buff, ep->num, ep->xfer_len, dma);   
 8001a2c:	9200      	str	r2, [sp, #0]
 8001a2e:	b29b      	uxth	r3, r3
 8001a30:	463a      	mov	r2, r7
 8001a32:	68c9      	ldr	r1, [r1, #12]
 8001a34:	f000 f8ef 	bl	8001c16 <USB_WritePacket>
    }
    /* EP enable */
    USBx_OUTEP(ep->num)->DOEPCTL |= (USB_OTG_DOEPCTL_CNAK | USB_OTG_DOEPCTL_EPENA);
  }
  return HAL_OK;
}
 8001a38:	2000      	movs	r0, #0
 8001a3a:	b003      	add	sp, #12
 8001a3c:	bdf0      	pop	{r4, r5, r6, r7, pc}
      USBx_INEP(ep->num)->DIEPTSIZ &= ~(USB_OTG_DIEPTSIZ_XFRSIZ);
 8001a3e:	0cf6      	lsrs	r6, r6, #19
 8001a40:	04f6      	lsls	r6, r6, #19
 8001a42:	6126      	str	r6, [r4, #16]
      USBx_INEP(ep->num)->DIEPTSIZ &= ~(USB_OTG_DIEPTSIZ_PKTCNT); 
 8001a44:	6926      	ldr	r6, [r4, #16]
      USBx_INEP(ep->num)->DIEPTSIZ |= (USB_OTG_DIEPTSIZ_PKTCNT & (((ep->xfer_len + ep->maxpacket -1U)/ ep->maxpacket) << 19U)) ;
 8001a46:	688f      	ldr	r7, [r1, #8]
      USBx_INEP(ep->num)->DIEPTSIZ &= ~(USB_OTG_DIEPTSIZ_PKTCNT); 
 8001a48:	f026 56ff 	bic.w	r6, r6, #534773760	; 0x1fe00000
 8001a4c:	f426 16c0 	bic.w	r6, r6, #1572864	; 0x180000
 8001a50:	6126      	str	r6, [r4, #16]
      USBx_INEP(ep->num)->DIEPTSIZ |= (USB_OTG_DIEPTSIZ_PKTCNT & (((ep->xfer_len + ep->maxpacket -1U)/ ep->maxpacket) << 19U)) ;
 8001a52:	19de      	adds	r6, r3, r7
 8001a54:	3e01      	subs	r6, #1
 8001a56:	fbb6 f7f7 	udiv	r7, r6, r7
 8001a5a:	4e37      	ldr	r6, [pc, #220]	; (8001b38 <USB_EPStartXfer+0x188>)
 8001a5c:	f8d4 e010 	ldr.w	lr, [r4, #16]
 8001a60:	ea06 46c7 	and.w	r6, r6, r7, lsl #19
 8001a64:	ea46 060e 	orr.w	r6, r6, lr
 8001a68:	6126      	str	r6, [r4, #16]
      USBx_INEP(ep->num)->DIEPTSIZ |= (USB_OTG_DIEPTSIZ_XFRSIZ & ep->xfer_len); 
 8001a6a:	6927      	ldr	r7, [r4, #16]
 8001a6c:	f3c3 0612 	ubfx	r6, r3, #0, #19
 8001a70:	433e      	orrs	r6, r7
 8001a72:	6126      	str	r6, [r4, #16]
      if (ep->type == EP_TYPE_ISOC)
 8001a74:	78ce      	ldrb	r6, [r1, #3]
 8001a76:	2e01      	cmp	r6, #1
 8001a78:	d15a      	bne.n	8001b30 <USB_EPStartXfer+0x180>
        USBx_INEP(ep->num)->DIEPTSIZ &= ~(USB_OTG_DIEPTSIZ_MULCNT); 
 8001a7a:	6926      	ldr	r6, [r4, #16]
 8001a7c:	f026 46c0 	bic.w	r6, r6, #1610612736	; 0x60000000
 8001a80:	6126      	str	r6, [r4, #16]
        USBx_INEP(ep->num)->DIEPTSIZ |= (USB_OTG_DIEPTSIZ_MULCNT & (1U << 29U)); 
 8001a82:	6926      	ldr	r6, [r4, #16]
 8001a84:	f046 5600 	orr.w	r6, r6, #536870912	; 0x20000000
 8001a88:	6126      	str	r6, [r4, #16]
 8001a8a:	e7ac      	b.n	80019e6 <USB_EPStartXfer+0x36>
      if (ep->type != EP_TYPE_ISOC)
 8001a8c:	78ce      	ldrb	r6, [r1, #3]
 8001a8e:	2e01      	cmp	r6, #1
 8001a90:	d0b3      	beq.n	80019fa <USB_EPStartXfer+0x4a>
        if (ep->xfer_len > 0U)
 8001a92:	2b00      	cmp	r3, #0
 8001a94:	d0ae      	beq.n	80019f4 <USB_EPStartXfer+0x44>
          USBx_DEVICE->DIEPEMPMSK |= 1U << ep->num;
 8001a96:	f891 e000 	ldrb.w	lr, [r1]
 8001a9a:	f8d0 7834 	ldr.w	r7, [r0, #2100]	; 0x834
 8001a9e:	2401      	movs	r4, #1
 8001aa0:	fa04 f40e 	lsl.w	r4, r4, lr
 8001aa4:	433c      	orrs	r4, r7
 8001aa6:	f8c0 4834 	str.w	r4, [r0, #2100]	; 0x834
 8001aaa:	e7a3      	b.n	80019f4 <USB_EPStartXfer+0x44>
    USBx_OUTEP(ep->num)->DOEPTSIZ &= ~(USB_OTG_DOEPTSIZ_XFRSIZ); 
 8001aac:	f500 6530 	add.w	r5, r0, #2816	; 0xb00
 8001ab0:	eb05 1444 	add.w	r4, r5, r4, lsl #5
 8001ab4:	6925      	ldr	r5, [r4, #16]
 8001ab6:	0ced      	lsrs	r5, r5, #19
 8001ab8:	04ed      	lsls	r5, r5, #19
 8001aba:	6125      	str	r5, [r4, #16]
    USBx_OUTEP(ep->num)->DOEPTSIZ &= ~(USB_OTG_DOEPTSIZ_PKTCNT); 
 8001abc:	6925      	ldr	r5, [r4, #16]
 8001abe:	f025 55ff 	bic.w	r5, r5, #534773760	; 0x1fe00000
 8001ac2:	f425 15c0 	bic.w	r5, r5, #1572864	; 0x180000
 8001ac6:	6125      	str	r5, [r4, #16]
 8001ac8:	688d      	ldr	r5, [r1, #8]
    if (ep->xfer_len == 0U)
 8001aca:	b9fb      	cbnz	r3, 8001b0c <USB_EPStartXfer+0x15c>
      USBx_OUTEP(ep->num)->DOEPTSIZ |= (USB_OTG_DOEPTSIZ_XFRSIZ & ep->maxpacket);
 8001acc:	6923      	ldr	r3, [r4, #16]
 8001ace:	f3c5 0512 	ubfx	r5, r5, #0, #19
 8001ad2:	431d      	orrs	r5, r3
 8001ad4:	6125      	str	r5, [r4, #16]
      USBx_OUTEP(ep->num)->DOEPTSIZ |= (USB_OTG_DOEPTSIZ_PKTCNT & (1U << 19U));
 8001ad6:	6923      	ldr	r3, [r4, #16]
 8001ad8:	f443 2300 	orr.w	r3, r3, #524288	; 0x80000
 8001adc:	6123      	str	r3, [r4, #16]
    if (dma == 1U)
 8001ade:	2a01      	cmp	r2, #1
      USBx_OUTEP(ep->num)->DOEPDMA = (uint32_t)ep->xfer_buff;
 8001ae0:	bf04      	itt	eq
 8001ae2:	68cb      	ldreq	r3, [r1, #12]
 8001ae4:	6163      	streq	r3, [r4, #20]
    if (ep->type == EP_TYPE_ISOC)
 8001ae6:	78cb      	ldrb	r3, [r1, #3]
 8001ae8:	2b01      	cmp	r3, #1
 8001aea:	d10a      	bne.n	8001b02 <USB_EPStartXfer+0x152>
      if ((USBx_DEVICE->DSTS & ( 1U << 8U )) == 0U)
 8001aec:	f8d0 3808 	ldr.w	r3, [r0, #2056]	; 0x808
 8001af0:	f413 7f80 	tst.w	r3, #256	; 0x100
        USBx_OUTEP(ep->num)->DOEPCTL |= USB_OTG_DOEPCTL_SODDFRM;
 8001af4:	6823      	ldr	r3, [r4, #0]
 8001af6:	bf0c      	ite	eq
 8001af8:	f043 5300 	orreq.w	r3, r3, #536870912	; 0x20000000
        USBx_OUTEP(ep->num)->DOEPCTL |= USB_OTG_DOEPCTL_SD0PID_SEVNFRM;
 8001afc:	f043 5380 	orrne.w	r3, r3, #268435456	; 0x10000000
 8001b00:	6023      	str	r3, [r4, #0]
    USBx_OUTEP(ep->num)->DOEPCTL |= (USB_OTG_DOEPCTL_CNAK | USB_OTG_DOEPCTL_EPENA);
 8001b02:	6823      	ldr	r3, [r4, #0]
 8001b04:	f043 4304 	orr.w	r3, r3, #2214592512	; 0x84000000
 8001b08:	6023      	str	r3, [r4, #0]
  return HAL_OK;
 8001b0a:	e795      	b.n	8001a38 <USB_EPStartXfer+0x88>
      USBx_OUTEP(ep->num)->DOEPTSIZ |= (USB_OTG_DOEPTSIZ_PKTCNT & (pktcnt << 19U));
 8001b0c:	4e0a      	ldr	r6, [pc, #40]	; (8001b38 <USB_EPStartXfer+0x188>)
 8001b0e:	6927      	ldr	r7, [r4, #16]
      pktcnt = (ep->xfer_len + ep->maxpacket -1U)/ ep->maxpacket; 
 8001b10:	442b      	add	r3, r5
 8001b12:	3b01      	subs	r3, #1
 8001b14:	fbb3 f3f5 	udiv	r3, r3, r5
      USBx_OUTEP(ep->num)->DOEPTSIZ |= (USB_OTG_DOEPTSIZ_PKTCNT & (pktcnt << 19U));
 8001b18:	ea06 46c3 	and.w	r6, r6, r3, lsl #19
 8001b1c:	433e      	orrs	r6, r7
 8001b1e:	6126      	str	r6, [r4, #16]
      USBx_OUTEP(ep->num)->DOEPTSIZ |= (USB_OTG_DOEPTSIZ_XFRSIZ & (ep->maxpacket * pktcnt));
 8001b20:	b29b      	uxth	r3, r3
 8001b22:	6926      	ldr	r6, [r4, #16]
 8001b24:	435d      	muls	r5, r3
 8001b26:	f3c5 0512 	ubfx	r5, r5, #0, #19
 8001b2a:	4335      	orrs	r5, r6
 8001b2c:	6125      	str	r5, [r4, #16]
 8001b2e:	e7d6      	b.n	8001ade <USB_EPStartXfer+0x12e>
    if (dma == 1U)
 8001b30:	2a01      	cmp	r2, #1
 8001b32:	d1ae      	bne.n	8001a92 <USB_EPStartXfer+0xe2>
 8001b34:	e759      	b.n	80019ea <USB_EPStartXfer+0x3a>
 8001b36:	bf00      	nop
 8001b38:	1ff80000 	.word	0x1ff80000

08001b3c <USB_EP0StartXfer>:
  * @retval HAL status
  */
HAL_StatusTypeDef USB_EP0StartXfer(USB_OTG_GlobalTypeDef *USBx , USB_OTG_EPTypeDef *ep, uint8_t dma)
{
  /* IN endpoint */
  if (ep->is_in == 1U)
 8001b3c:	784b      	ldrb	r3, [r1, #1]
 8001b3e:	2b01      	cmp	r3, #1
{
 8001b40:	b570      	push	{r4, r5, r6, lr}
 8001b42:	780b      	ldrb	r3, [r1, #0]
 8001b44:	694d      	ldr	r5, [r1, #20]
  if (ep->is_in == 1U)
 8001b46:	d143      	bne.n	8001bd0 <USB_EP0StartXfer+0x94>
 8001b48:	2420      	movs	r4, #32
 8001b4a:	f500 6610 	add.w	r6, r0, #2304	; 0x900
  {
    /* Zero Length Packet? */
    if (ep->xfer_len == 0U)
    {
      USBx_INEP(ep->num)->DIEPTSIZ &= ~(USB_OTG_DIEPTSIZ_PKTCNT); 
 8001b4e:	fb14 6303 	smlabb	r3, r4, r3, r6
 8001b52:	691c      	ldr	r4, [r3, #16]
    if (ep->xfer_len == 0U)
 8001b54:	b9cd      	cbnz	r5, 8001b8a <USB_EP0StartXfer+0x4e>
      USBx_INEP(ep->num)->DIEPTSIZ &= ~(USB_OTG_DIEPTSIZ_PKTCNT); 
 8001b56:	f024 54ff 	bic.w	r4, r4, #534773760	; 0x1fe00000
 8001b5a:	f424 14c0 	bic.w	r4, r4, #1572864	; 0x180000
 8001b5e:	611c      	str	r4, [r3, #16]
      USBx_INEP(ep->num)->DIEPTSIZ |= (USB_OTG_DIEPTSIZ_PKTCNT & (1U << 19U)) ;
 8001b60:	691c      	ldr	r4, [r3, #16]
 8001b62:	f444 2400 	orr.w	r4, r4, #524288	; 0x80000
 8001b66:	611c      	str	r4, [r3, #16]
      USBx_INEP(ep->num)->DIEPTSIZ &= ~(USB_OTG_DIEPTSIZ_XFRSIZ); 
 8001b68:	691c      	ldr	r4, [r3, #16]
 8001b6a:	0ce4      	lsrs	r4, r4, #19
 8001b6c:	04e4      	lsls	r4, r4, #19
 8001b6e:	611c      	str	r4, [r3, #16]
      USBx_INEP(ep->num)->DIEPTSIZ |= (USB_OTG_DIEPTSIZ_XFRSIZ & ep->xfer_len); 
    
    }
    
    /* EP enable, IN data in FIFO */
    USBx_INEP(ep->num)->DIEPCTL |= (USB_OTG_DIEPCTL_CNAK | USB_OTG_DIEPCTL_EPENA);     
 8001b70:	780d      	ldrb	r5, [r1, #0]
 8001b72:	eb06 1345 	add.w	r3, r6, r5, lsl #5
    
    if (dma == 1)
 8001b76:	2a01      	cmp	r2, #1
    USBx_INEP(ep->num)->DIEPCTL |= (USB_OTG_DIEPCTL_CNAK | USB_OTG_DIEPCTL_EPENA);     
 8001b78:	681c      	ldr	r4, [r3, #0]
 8001b7a:	f044 4404 	orr.w	r4, r4, #2214592512	; 0x84000000
 8001b7e:	601c      	str	r4, [r3, #0]
    if (dma == 1)
 8001b80:	d11b      	bne.n	8001bba <USB_EP0StartXfer+0x7e>
    {
      USBx_INEP(ep->num)->DIEPDMA = (uint32_t)(ep->dma_addr);
 8001b82:	690a      	ldr	r2, [r1, #16]
 8001b84:	615a      	str	r2, [r3, #20]
    
    /* EP enable */
    USBx_OUTEP(ep->num)->DOEPCTL |= (USB_OTG_DOEPCTL_CNAK | USB_OTG_DOEPCTL_EPENA);    
  }
  return HAL_OK;
}
 8001b86:	2000      	movs	r0, #0
 8001b88:	bd70      	pop	{r4, r5, r6, pc}
      USBx_INEP(ep->num)->DIEPTSIZ &= ~(USB_OTG_DIEPTSIZ_XFRSIZ);
 8001b8a:	0ce4      	lsrs	r4, r4, #19
 8001b8c:	04e4      	lsls	r4, r4, #19
 8001b8e:	611c      	str	r4, [r3, #16]
      USBx_INEP(ep->num)->DIEPTSIZ &= ~(USB_OTG_DIEPTSIZ_PKTCNT); 
 8001b90:	691c      	ldr	r4, [r3, #16]
 8001b92:	f024 54ff 	bic.w	r4, r4, #534773760	; 0x1fe00000
 8001b96:	f424 14c0 	bic.w	r4, r4, #1572864	; 0x180000
 8001b9a:	611c      	str	r4, [r3, #16]
      if(ep->xfer_len > ep->maxpacket)
 8001b9c:	688c      	ldr	r4, [r1, #8]
 8001b9e:	42a5      	cmp	r5, r4
        ep->xfer_len = ep->maxpacket;
 8001ba0:	bf88      	it	hi
 8001ba2:	614c      	strhi	r4, [r1, #20]
      USBx_INEP(ep->num)->DIEPTSIZ |= (USB_OTG_DIEPTSIZ_PKTCNT & (1U << 19U)) ;
 8001ba4:	691c      	ldr	r4, [r3, #16]
 8001ba6:	f444 2400 	orr.w	r4, r4, #524288	; 0x80000
 8001baa:	611c      	str	r4, [r3, #16]
      USBx_INEP(ep->num)->DIEPTSIZ |= (USB_OTG_DIEPTSIZ_XFRSIZ & ep->xfer_len); 
 8001bac:	694c      	ldr	r4, [r1, #20]
 8001bae:	691d      	ldr	r5, [r3, #16]
 8001bb0:	f3c4 0412 	ubfx	r4, r4, #0, #19
 8001bb4:	432c      	orrs	r4, r5
 8001bb6:	611c      	str	r4, [r3, #16]
 8001bb8:	e7da      	b.n	8001b70 <USB_EP0StartXfer+0x34>
      if (ep->xfer_len > 0U)
 8001bba:	694b      	ldr	r3, [r1, #20]
 8001bbc:	2b00      	cmp	r3, #0
 8001bbe:	d0e2      	beq.n	8001b86 <USB_EP0StartXfer+0x4a>
        USBx_DEVICE->DIEPEMPMSK |= 1U << (ep->num);
 8001bc0:	f8d0 2834 	ldr.w	r2, [r0, #2100]	; 0x834
 8001bc4:	2301      	movs	r3, #1
 8001bc6:	40ab      	lsls	r3, r5
 8001bc8:	4313      	orrs	r3, r2
 8001bca:	f8c0 3834 	str.w	r3, [r0, #2100]	; 0x834
 8001bce:	e7da      	b.n	8001b86 <USB_EP0StartXfer+0x4a>
    USBx_OUTEP(ep->num)->DOEPTSIZ &= ~(USB_OTG_DOEPTSIZ_XFRSIZ); 
 8001bd0:	f500 6030 	add.w	r0, r0, #2816	; 0xb00
 8001bd4:	eb00 1043 	add.w	r0, r0, r3, lsl #5
 8001bd8:	6903      	ldr	r3, [r0, #16]
 8001bda:	0cdb      	lsrs	r3, r3, #19
 8001bdc:	04db      	lsls	r3, r3, #19
 8001bde:	6103      	str	r3, [r0, #16]
    USBx_OUTEP(ep->num)->DOEPTSIZ &= ~(USB_OTG_DOEPTSIZ_PKTCNT); 
 8001be0:	6903      	ldr	r3, [r0, #16]
 8001be2:	f023 53ff 	bic.w	r3, r3, #534773760	; 0x1fe00000
 8001be6:	f423 13c0 	bic.w	r3, r3, #1572864	; 0x180000
 8001bea:	6103      	str	r3, [r0, #16]
 8001bec:	688b      	ldr	r3, [r1, #8]
    if (ep->xfer_len > 0U)
 8001bee:	b105      	cbz	r5, 8001bf2 <USB_EP0StartXfer+0xb6>
      ep->xfer_len = ep->maxpacket;
 8001bf0:	614b      	str	r3, [r1, #20]
    USBx_OUTEP(ep->num)->DOEPTSIZ |= (USB_OTG_DOEPTSIZ_PKTCNT & (1U << 19U));
 8001bf2:	6904      	ldr	r4, [r0, #16]
 8001bf4:	f444 2400 	orr.w	r4, r4, #524288	; 0x80000
 8001bf8:	6104      	str	r4, [r0, #16]
    USBx_OUTEP(ep->num)->DOEPTSIZ |= (USB_OTG_DOEPTSIZ_XFRSIZ & (ep->maxpacket)); 
 8001bfa:	6904      	ldr	r4, [r0, #16]
 8001bfc:	f3c3 0312 	ubfx	r3, r3, #0, #19
 8001c00:	4323      	orrs	r3, r4
    if (dma == 1U)
 8001c02:	2a01      	cmp	r2, #1
    USBx_OUTEP(ep->num)->DOEPTSIZ |= (USB_OTG_DOEPTSIZ_XFRSIZ & (ep->maxpacket)); 
 8001c04:	6103      	str	r3, [r0, #16]
      USBx_OUTEP(ep->num)->DOEPDMA = (uint32_t)(ep->xfer_buff);
 8001c06:	bf04      	itt	eq
 8001c08:	68cb      	ldreq	r3, [r1, #12]
 8001c0a:	6143      	streq	r3, [r0, #20]
    USBx_OUTEP(ep->num)->DOEPCTL |= (USB_OTG_DOEPCTL_CNAK | USB_OTG_DOEPCTL_EPENA);    
 8001c0c:	6803      	ldr	r3, [r0, #0]
 8001c0e:	f043 4304 	orr.w	r3, r3, #2214592512	; 0x84000000
 8001c12:	6003      	str	r3, [r0, #0]
 8001c14:	e7b7      	b.n	8001b86 <USB_EP0StartXfer+0x4a>

08001c16 <USB_WritePacket>:
  *           0 : DMA feature not used 
  *           1 : DMA feature used  
  * @retval HAL status
  */
HAL_StatusTypeDef USB_WritePacket(USB_OTG_GlobalTypeDef *USBx, uint8_t *src, uint8_t ch_ep_num, uint16_t len, uint8_t dma)
{
 8001c16:	b510      	push	{r4, lr}
 8001c18:	f89d 4008 	ldrb.w	r4, [sp, #8]
  uint32_t count32b = 0U , i = 0U;
  
  if (dma == 0U)
 8001c1c:	b94c      	cbnz	r4, 8001c32 <USB_WritePacket+0x1c>
  {
    count32b =  (len + 3U) / 4U;
 8001c1e:	3303      	adds	r3, #3
    for (i = 0U; i < count32b; i++, src += 4U)
    {
      USBx_DFIFO(ch_ep_num) = *((__packed uint32_t *)src);
 8001c20:	f500 5080 	add.w	r0, r0, #4096	; 0x1000
 8001c24:	f023 0303 	bic.w	r3, r3, #3
 8001c28:	eb00 3202 	add.w	r2, r0, r2, lsl #12
 8001c2c:	440b      	add	r3, r1
    for (i = 0U; i < count32b; i++, src += 4U)
 8001c2e:	4299      	cmp	r1, r3
 8001c30:	d101      	bne.n	8001c36 <USB_WritePacket+0x20>
    }
  }
  return HAL_OK;
}
 8001c32:	2000      	movs	r0, #0
 8001c34:	bd10      	pop	{r4, pc}
      USBx_DFIFO(ch_ep_num) = *((__packed uint32_t *)src);
 8001c36:	f851 0b04 	ldr.w	r0, [r1], #4
 8001c3a:	6010      	str	r0, [r2, #0]
 8001c3c:	e7f7      	b.n	8001c2e <USB_WritePacket+0x18>

08001c3e <USB_ReadPacket>:
  * @retval pointer to destination buffer
  */
void *USB_ReadPacket(USB_OTG_GlobalTypeDef *USBx, uint8_t *dest, uint16_t len)
{
  uint32_t i=0U;
  uint32_t count32b = (len + 3U) / 4U;
 8001c3e:	3203      	adds	r2, #3
 8001c40:	f022 0203 	bic.w	r2, r2, #3
 8001c44:	440a      	add	r2, r1
  
  for ( i = 0U; i < count32b; i++, dest += 4U )
  {
    *(__packed uint32_t *)dest = USBx_DFIFO(0U);
 8001c46:	f500 5080 	add.w	r0, r0, #4096	; 0x1000
  for ( i = 0U; i < count32b; i++, dest += 4U )
 8001c4a:	4291      	cmp	r1, r2
 8001c4c:	d101      	bne.n	8001c52 <USB_ReadPacket+0x14>
    
  }
  return ((void *)dest);
}
 8001c4e:	4608      	mov	r0, r1
 8001c50:	4770      	bx	lr
    *(__packed uint32_t *)dest = USBx_DFIFO(0U);
 8001c52:	6803      	ldr	r3, [r0, #0]
 8001c54:	f841 3b04 	str.w	r3, [r1], #4
 8001c58:	e7f7      	b.n	8001c4a <USB_ReadPacket+0xc>

08001c5a <USB_EPSetStall>:
  * @param  ep pointer to endpoint structure   
  * @retval HAL status
  */
HAL_StatusTypeDef USB_EPSetStall(USB_OTG_GlobalTypeDef *USBx , USB_OTG_EPTypeDef *ep)
{
  if (ep->is_in == 1U)
 8001c5a:	784b      	ldrb	r3, [r1, #1]
 8001c5c:	780a      	ldrb	r2, [r1, #0]
 8001c5e:	2b01      	cmp	r3, #1
 8001c60:	f04f 0320 	mov.w	r3, #32
 8001c64:	d10b      	bne.n	8001c7e <USB_EPSetStall+0x24>
  {
    if (((USBx_INEP(ep->num)->DIEPCTL) & USB_OTG_DIEPCTL_EPENA) == 0U)
 8001c66:	f500 6010 	add.w	r0, r0, #2304	; 0x900
 8001c6a:	fb13 0002 	smlabb	r0, r3, r2, r0
 8001c6e:	6803      	ldr	r3, [r0, #0]
 8001c70:	2b00      	cmp	r3, #0
 8001c72:	db0b      	blt.n	8001c8c <USB_EPSetStall+0x32>
  }
  else
  {
    if (((USBx_OUTEP(ep->num)->DOEPCTL) & USB_OTG_DOEPCTL_EPENA) == 0U)
    {
      USBx_OUTEP(ep->num)->DOEPCTL &= ~(USB_OTG_DOEPCTL_EPDIS); 
 8001c74:	6803      	ldr	r3, [r0, #0]
 8001c76:	f023 4380 	bic.w	r3, r3, #1073741824	; 0x40000000
 8001c7a:	6003      	str	r3, [r0, #0]
 8001c7c:	e006      	b.n	8001c8c <USB_EPSetStall+0x32>
    if (((USBx_OUTEP(ep->num)->DOEPCTL) & USB_OTG_DOEPCTL_EPENA) == 0U)
 8001c7e:	f500 6030 	add.w	r0, r0, #2816	; 0xb00
 8001c82:	fb13 0002 	smlabb	r0, r3, r2, r0
 8001c86:	6803      	ldr	r3, [r0, #0]
 8001c88:	2b00      	cmp	r3, #0
 8001c8a:	daf3      	bge.n	8001c74 <USB_EPSetStall+0x1a>
    } 
    USBx_OUTEP(ep->num)->DOEPCTL |= USB_OTG_DOEPCTL_STALL;
 8001c8c:	6803      	ldr	r3, [r0, #0]
 8001c8e:	f443 1300 	orr.w	r3, r3, #2097152	; 0x200000
 8001c92:	6003      	str	r3, [r0, #0]
  }
  return HAL_OK;
}
 8001c94:	2000      	movs	r0, #0
 8001c96:	4770      	bx	lr

08001c98 <USB_EPClearStall>:
  * @param  ep pointer to endpoint structure   
  * @retval HAL status
  */
HAL_StatusTypeDef USB_EPClearStall(USB_OTG_GlobalTypeDef *USBx, USB_OTG_EPTypeDef *ep)
{
  if (ep->is_in == 1U)
 8001c98:	784b      	ldrb	r3, [r1, #1]
 8001c9a:	780a      	ldrb	r2, [r1, #0]
 8001c9c:	2b01      	cmp	r3, #1
  {
    USBx_INEP(ep->num)->DIEPCTL &= ~USB_OTG_DIEPCTL_STALL;
 8001c9e:	bf0c      	ite	eq
 8001ca0:	f500 6010 	addeq.w	r0, r0, #2304	; 0x900
       USBx_INEP(ep->num)->DIEPCTL |= USB_OTG_DIEPCTL_SD0PID_SEVNFRM; /* DATA0 */
    }    
  }
  else
  {
    USBx_OUTEP(ep->num)->DOEPCTL &= ~USB_OTG_DOEPCTL_STALL;
 8001ca4:	f500 6030 	addne.w	r0, r0, #2816	; 0xb00
 8001ca8:	2320      	movs	r3, #32
 8001caa:	fb13 0002 	smlabb	r0, r3, r2, r0
 8001cae:	6803      	ldr	r3, [r0, #0]
 8001cb0:	f423 1300 	bic.w	r3, r3, #2097152	; 0x200000
 8001cb4:	6003      	str	r3, [r0, #0]
    if (ep->type == EP_TYPE_INTR || ep->type == EP_TYPE_BULK)
 8001cb6:	78cb      	ldrb	r3, [r1, #3]
 8001cb8:	3b02      	subs	r3, #2
 8001cba:	2b01      	cmp	r3, #1
    {
      USBx_OUTEP(ep->num)->DOEPCTL |= USB_OTG_DOEPCTL_SD0PID_SEVNFRM; /* DATA0 */
 8001cbc:	bf9e      	ittt	ls
 8001cbe:	6803      	ldrls	r3, [r0, #0]
 8001cc0:	f043 5380 	orrls.w	r3, r3, #268435456	; 0x10000000
 8001cc4:	6003      	strls	r3, [r0, #0]
    }    
  }
  return HAL_OK;
}
 8001cc6:	2000      	movs	r0, #0
 8001cc8:	4770      	bx	lr

08001cca <USB_SetDevAddress>:
  *          This parameter can be a value from 0 to 255
  * @retval HAL status
  */
HAL_StatusTypeDef  USB_SetDevAddress (USB_OTG_GlobalTypeDef *USBx, uint8_t address)
{
  USBx_DEVICE->DCFG &= ~ (USB_OTG_DCFG_DAD);
 8001cca:	f8d0 3800 	ldr.w	r3, [r0, #2048]	; 0x800
 8001cce:	f423 63fe 	bic.w	r3, r3, #2032	; 0x7f0
 8001cd2:	f8c0 3800 	str.w	r3, [r0, #2048]	; 0x800
  USBx_DEVICE->DCFG |= (address << 4U) & USB_OTG_DCFG_DAD ;
 8001cd6:	f8d0 3800 	ldr.w	r3, [r0, #2048]	; 0x800
 8001cda:	0109      	lsls	r1, r1, #4
 8001cdc:	f401 61fe 	and.w	r1, r1, #2032	; 0x7f0
 8001ce0:	4319      	orrs	r1, r3
 8001ce2:	f8c0 1800 	str.w	r1, [r0, #2048]	; 0x800
  
  return HAL_OK;  
}
 8001ce6:	2000      	movs	r0, #0
 8001ce8:	4770      	bx	lr

08001cea <USB_DevConnect>:
  * @brief  USB_DevConnect : Connect the USB device by enabling the pull-up/pull-down
  * @param  USBx  Selected device
  * @retval HAL status
  */
HAL_StatusTypeDef  USB_DevConnect (USB_OTG_GlobalTypeDef *USBx)
{
 8001cea:	b508      	push	{r3, lr}
  USBx_DEVICE->DCTL &= ~USB_OTG_DCTL_SDIS ;
 8001cec:	f8d0 3804 	ldr.w	r3, [r0, #2052]	; 0x804
 8001cf0:	f023 0302 	bic.w	r3, r3, #2
 8001cf4:	f8c0 3804 	str.w	r3, [r0, #2052]	; 0x804
  HAL_Delay(3U);
 8001cf8:	2003      	movs	r0, #3
 8001cfa:	f7fe fc93 	bl	8000624 <HAL_Delay>
  
  return HAL_OK;  
}
 8001cfe:	2000      	movs	r0, #0
 8001d00:	bd08      	pop	{r3, pc}

08001d02 <USB_DevDisconnect>:
  * @brief  USB_DevDisconnect : Disconnect the USB device by disabling the pull-up/pull-down
  * @param  USBx  Selected device
  * @retval HAL status
  */
HAL_StatusTypeDef  USB_DevDisconnect (USB_OTG_GlobalTypeDef *USBx)
{
 8001d02:	b508      	push	{r3, lr}
  USBx_DEVICE->DCTL |= USB_OTG_DCTL_SDIS ;
 8001d04:	f8d0 3804 	ldr.w	r3, [r0, #2052]	; 0x804
 8001d08:	f043 0302 	orr.w	r3, r3, #2
 8001d0c:	f8c0 3804 	str.w	r3, [r0, #2052]	; 0x804
  HAL_Delay(3U);
 8001d10:	2003      	movs	r0, #3
 8001d12:	f7fe fc87 	bl	8000624 <HAL_Delay>
  
  return HAL_OK;  
}
 8001d16:	2000      	movs	r0, #0
 8001d18:	bd08      	pop	{r3, pc}

08001d1a <USB_ReadInterrupts>:
  */
uint32_t  USB_ReadInterrupts (USB_OTG_GlobalTypeDef *USBx)
{
  uint32_t v = 0U;
  
  v = USBx->GINTSTS;
 8001d1a:	6942      	ldr	r2, [r0, #20]
  v &= USBx->GINTMSK;
 8001d1c:	6980      	ldr	r0, [r0, #24]
  return v;  
}
 8001d1e:	4010      	ands	r0, r2
 8001d20:	4770      	bx	lr

08001d22 <USB_ReadDevAllOutEpInterrupt>:
  * @retval HAL status
  */
uint32_t USB_ReadDevAllOutEpInterrupt (USB_OTG_GlobalTypeDef *USBx)
{
  uint32_t v;
  v  = USBx_DEVICE->DAINT;
 8001d22:	f8d0 3818 	ldr.w	r3, [r0, #2072]	; 0x818
 8001d26:	f500 6000 	add.w	r0, r0, #2048	; 0x800
  v &= USBx_DEVICE->DAINTMSK;
 8001d2a:	69c0      	ldr	r0, [r0, #28]
 8001d2c:	4018      	ands	r0, r3
  return ((v & 0xffff0000U) >> 16U);
}
 8001d2e:	0c00      	lsrs	r0, r0, #16
 8001d30:	4770      	bx	lr

08001d32 <USB_ReadDevAllInEpInterrupt>:
  * @retval HAL status
  */
uint32_t USB_ReadDevAllInEpInterrupt (USB_OTG_GlobalTypeDef *USBx)
{
  uint32_t v;
  v  = USBx_DEVICE->DAINT;
 8001d32:	f8d0 3818 	ldr.w	r3, [r0, #2072]	; 0x818
 8001d36:	f500 6000 	add.w	r0, r0, #2048	; 0x800
  v &= USBx_DEVICE->DAINTMSK;
 8001d3a:	69c0      	ldr	r0, [r0, #28]
 8001d3c:	4018      	ands	r0, r3
  return ((v & 0xFFFFU));
}
 8001d3e:	b280      	uxth	r0, r0
 8001d40:	4770      	bx	lr

08001d42 <USB_ReadDevOutEPInterrupt>:
  * @retval Device OUT EP Interrupt register
  */
uint32_t USB_ReadDevOutEPInterrupt (USB_OTG_GlobalTypeDef *USBx , uint8_t epnum)
{
  uint32_t v;
  v  = USBx_OUTEP(epnum)->DOEPINT;
 8001d42:	f500 6330 	add.w	r3, r0, #2816	; 0xb00
 8001d46:	eb03 1141 	add.w	r1, r3, r1, lsl #5
  v &= USBx_DEVICE->DOEPMSK;
 8001d4a:	f500 6000 	add.w	r0, r0, #2048	; 0x800
  v  = USBx_OUTEP(epnum)->DOEPINT;
 8001d4e:	688a      	ldr	r2, [r1, #8]
  v &= USBx_DEVICE->DOEPMSK;
 8001d50:	6940      	ldr	r0, [r0, #20]
  return v;
}
 8001d52:	4010      	ands	r0, r2
 8001d54:	4770      	bx	lr

08001d56 <USB_ReadDevInEPInterrupt>:
  * @param  epnum  endpoint number
  *          This parameter can be a value from 0 to 15
  * @retval Device IN EP Interrupt register
  */
uint32_t USB_ReadDevInEPInterrupt (USB_OTG_GlobalTypeDef *USBx , uint8_t epnum)
{
 8001d56:	b510      	push	{r4, lr}
  uint32_t v, msk, emp;
  
  msk = USBx_DEVICE->DIEPMSK;
 8001d58:	f8d0 4810 	ldr.w	r4, [r0, #2064]	; 0x810
  emp = USBx_DEVICE->DIEPEMPMSK;
 8001d5c:	f8d0 3834 	ldr.w	r3, [r0, #2100]	; 0x834
  msk |= ((emp >> epnum) & 0x1U) << 7U;
  v = USBx_INEP(epnum)->DIEPINT & msk;
 8001d60:	eb00 1041 	add.w	r0, r0, r1, lsl #5
  msk |= ((emp >> epnum) & 0x1U) << 7U;
 8001d64:	40cb      	lsrs	r3, r1
  v = USBx_INEP(epnum)->DIEPINT & msk;
 8001d66:	f500 6010 	add.w	r0, r0, #2304	; 0x900
  msk |= ((emp >> epnum) & 0x1U) << 7U;
 8001d6a:	01db      	lsls	r3, r3, #7
  v = USBx_INEP(epnum)->DIEPINT & msk;
 8001d6c:	6880      	ldr	r0, [r0, #8]
  msk |= ((emp >> epnum) & 0x1U) << 7U;
 8001d6e:	b2db      	uxtb	r3, r3
 8001d70:	4323      	orrs	r3, r4
  return v;
}
 8001d72:	4018      	ands	r0, r3
 8001d74:	bd10      	pop	{r4, pc}

08001d76 <USB_GetMode>:
  *           0 : Host 
  *           1 : Device
  */
uint32_t USB_GetMode(USB_OTG_GlobalTypeDef *USBx)
{
  return ((USBx->GINTSTS ) & 0x1U);
 8001d76:	6940      	ldr	r0, [r0, #20]
}
 8001d78:	f000 0001 	and.w	r0, r0, #1
 8001d7c:	4770      	bx	lr

08001d7e <USB_ActivateSetup>:
  * @retval HAL status
  */
HAL_StatusTypeDef  USB_ActivateSetup (USB_OTG_GlobalTypeDef *USBx)
{
  /* Set the MPS of the IN EP based on the enumeration speed */
  USBx_INEP(0U)->DIEPCTL &= ~USB_OTG_DIEPCTL_MPSIZ;
 8001d7e:	f8d0 3900 	ldr.w	r3, [r0, #2304]	; 0x900
 8001d82:	f423 63ff 	bic.w	r3, r3, #2040	; 0x7f8
 8001d86:	f023 0307 	bic.w	r3, r3, #7
 8001d8a:	f8c0 3900 	str.w	r3, [r0, #2304]	; 0x900
  
  if((USBx_DEVICE->DSTS & USB_OTG_DSTS_ENUMSPD) == DSTS_ENUMSPD_LS_PHY_6MHZ)
 8001d8e:	f500 6300 	add.w	r3, r0, #2048	; 0x800
 8001d92:	689a      	ldr	r2, [r3, #8]
 8001d94:	f002 0206 	and.w	r2, r2, #6
 8001d98:	2a04      	cmp	r2, #4
  {
    USBx_INEP(0U)->DIEPCTL |= 3U;
 8001d9a:	bf02      	ittt	eq
 8001d9c:	f8d0 2900 	ldreq.w	r2, [r0, #2304]	; 0x900
 8001da0:	f042 0203 	orreq.w	r2, r2, #3
 8001da4:	f8c0 2900 	streq.w	r2, [r0, #2304]	; 0x900
  }
  USBx_DEVICE->DCTL |= USB_OTG_DCTL_CGINAK;
 8001da8:	685a      	ldr	r2, [r3, #4]
 8001daa:	f442 7280 	orr.w	r2, r2, #256	; 0x100
 8001dae:	605a      	str	r2, [r3, #4]

  return HAL_OK;
}
 8001db0:	2000      	movs	r0, #0
 8001db2:	4770      	bx	lr

08001db4 <USB_EP0_OutStart>:
  *           1 : DMA feature used  
  * @param  psetup  pointer to setup packet
  * @retval HAL status
  */
HAL_StatusTypeDef USB_EP0_OutStart(USB_OTG_GlobalTypeDef *USBx, uint8_t dma, uint8_t *psetup)
{
 8001db4:	b510      	push	{r4, lr}
  USBx_OUTEP(0U)->DOEPTSIZ = 0U;
 8001db6:	2400      	movs	r4, #0
 8001db8:	f8c0 4b10 	str.w	r4, [r0, #2832]	; 0xb10
  USBx_OUTEP(0U)->DOEPTSIZ |= (USB_OTG_DOEPTSIZ_PKTCNT & (1U << 19U)) ;
 8001dbc:	f8d0 4b10 	ldr.w	r4, [r0, #2832]	; 0xb10
 8001dc0:	f444 2400 	orr.w	r4, r4, #524288	; 0x80000
 8001dc4:	f8c0 4b10 	str.w	r4, [r0, #2832]	; 0xb10
  USBx_OUTEP(0U)->DOEPTSIZ |= (3U * 8U);
 8001dc8:	f8d0 4b10 	ldr.w	r4, [r0, #2832]	; 0xb10
 8001dcc:	f044 0418 	orr.w	r4, r4, #24
 8001dd0:	f8c0 4b10 	str.w	r4, [r0, #2832]	; 0xb10
  USBx_OUTEP(0U)->DOEPTSIZ |=  USB_OTG_DOEPTSIZ_STUPCNT;  
 8001dd4:	f8d0 4b10 	ldr.w	r4, [r0, #2832]	; 0xb10
  
  if (dma == 1U)
 8001dd8:	2901      	cmp	r1, #1
  USBx_OUTEP(0U)->DOEPTSIZ = 0U;
 8001dda:	f500 6330 	add.w	r3, r0, #2816	; 0xb00
  USBx_OUTEP(0U)->DOEPTSIZ |=  USB_OTG_DOEPTSIZ_STUPCNT;  
 8001dde:	f044 44c0 	orr.w	r4, r4, #1610612736	; 0x60000000
  {
    USBx_OUTEP(0U)->DOEPDMA = (uint32_t)psetup;
    /* EP enable */
    USBx_OUTEP(0U)->DOEPCTL = 0x80008000U;
 8001de2:	bf08      	it	eq
 8001de4:	f04f 2380 	moveq.w	r3, #2147516416	; 0x80008000
  USBx_OUTEP(0U)->DOEPTSIZ |=  USB_OTG_DOEPTSIZ_STUPCNT;  
 8001de8:	f8c0 4b10 	str.w	r4, [r0, #2832]	; 0xb10
    USBx_OUTEP(0U)->DOEPDMA = (uint32_t)psetup;
 8001dec:	bf04      	itt	eq
 8001dee:	f8c0 2b14 	streq.w	r2, [r0, #2836]	; 0xb14
    USBx_OUTEP(0U)->DOEPCTL = 0x80008000U;
 8001df2:	f8c0 3b00 	streq.w	r3, [r0, #2816]	; 0xb00
  }
  
  return HAL_OK;  
}
 8001df6:	2000      	movs	r0, #0
 8001df8:	bd10      	pop	{r4, pc}
	...

08001dfc <USB_CoreReset>:
  * @brief  Reset the USB Core (needed after USB clock settings change)
  * @param  USBx  Selected device
  * @retval HAL status
  */
static HAL_StatusTypeDef USB_CoreReset(USB_OTG_GlobalTypeDef *USBx)
{
 8001dfc:	4b0a      	ldr	r3, [pc, #40]	; (8001e28 <USB_CoreReset+0x2c>)
  uint32_t count = 0U;

  /* Wait for AHB master IDLE state. */
  do
  {
    if (++count > 200000U)
 8001dfe:	3b01      	subs	r3, #1
 8001e00:	d101      	bne.n	8001e06 <USB_CoreReset+0xa>
    {
      return HAL_TIMEOUT;
 8001e02:	2003      	movs	r0, #3
 8001e04:	4770      	bx	lr
    }
  }
  while ((USBx->GRSTCTL & USB_OTG_GRSTCTL_AHBIDL) == 0U);
 8001e06:	6902      	ldr	r2, [r0, #16]
 8001e08:	2a00      	cmp	r2, #0
 8001e0a:	daf8      	bge.n	8001dfe <USB_CoreReset+0x2>
  
  /* Core Soft Reset */
  count = 0U;
  USBx->GRSTCTL |= USB_OTG_GRSTCTL_CSRST;
 8001e0c:	6903      	ldr	r3, [r0, #16]
 8001e0e:	4a06      	ldr	r2, [pc, #24]	; (8001e28 <USB_CoreReset+0x2c>)
 8001e10:	f043 0301 	orr.w	r3, r3, #1
 8001e14:	6103      	str	r3, [r0, #16]

  do
  {
    if (++count > 200000U)
 8001e16:	3a01      	subs	r2, #1
 8001e18:	d0f3      	beq.n	8001e02 <USB_CoreReset+0x6>
    {
      return HAL_TIMEOUT;
    }
  }
  while ((USBx->GRSTCTL & USB_OTG_GRSTCTL_CSRST) == USB_OTG_GRSTCTL_CSRST);
 8001e1a:	6903      	ldr	r3, [r0, #16]
 8001e1c:	f013 0301 	ands.w	r3, r3, #1
 8001e20:	d1f9      	bne.n	8001e16 <USB_CoreReset+0x1a>
  
  return HAL_OK;
 8001e22:	4618      	mov	r0, r3
}
 8001e24:	4770      	bx	lr
 8001e26:	bf00      	nop
 8001e28:	00030d41 	.word	0x00030d41

08001e2c <USB_DEVICE_Init>:
/* USB Device Core handle declaration */
USBD_HandleTypeDef hUsbDeviceFS;

/* init function */
void USB_DEVICE_Init(void)
{
 8001e2c:	b510      	push	{r4, lr}
  /* Init Device Library, Add Supported Class and Start the library */
  USBD_Init(&hUsbDeviceFS, &FS_Desc, DEVICE_FS);
 8001e2e:	4c07      	ldr	r4, [pc, #28]	; (8001e4c <USB_DEVICE_Init+0x20>)
 8001e30:	4907      	ldr	r1, [pc, #28]	; (8001e50 <USB_DEVICE_Init+0x24>)
 8001e32:	2200      	movs	r2, #0
 8001e34:	4620      	mov	r0, r4
 8001e36:	f000 fcc1 	bl	80027bc <USBD_Init>

  USBD_RegisterClass(&hUsbDeviceFS, &usbd_rndis);
 8001e3a:	4620      	mov	r0, r4
 8001e3c:	4905      	ldr	r1, [pc, #20]	; (8001e54 <USB_DEVICE_Init+0x28>)
 8001e3e:	f000 fcd2 	bl	80027e6 <USBD_RegisterClass>

  USBD_Start(&hUsbDeviceFS);
 8001e42:	4620      	mov	r0, r4
}
 8001e44:	e8bd 4010 	ldmia.w	sp!, {r4, lr}
  USBD_Start(&hUsbDeviceFS);
 8001e48:	f000 bcd4 	b.w	80027f4 <USBD_Start>
 8001e4c:	200072a0 	.word	0x200072a0
 8001e50:	20000000 	.word	0x20000000
 8001e54:	2000004c 	.word	0x2000004c

08001e58 <HAL_PCD_MspInit>:
                       LL Driver Callbacks (PCD -> USB Device Library)
*******************************************************************************/
/* MSP Init */

void HAL_PCD_MspInit(PCD_HandleTypeDef* hpcd)
{
 8001e58:	b510      	push	{r4, lr}
  GPIO_InitTypeDef GPIO_InitStruct;
  if(hpcd->Instance==USB_OTG_FS)
 8001e5a:	6803      	ldr	r3, [r0, #0]
 8001e5c:	f1b3 4fa0 	cmp.w	r3, #1342177280	; 0x50000000
{
 8001e60:	b086      	sub	sp, #24
  if(hpcd->Instance==USB_OTG_FS)
 8001e62:	d12e      	bne.n	8001ec2 <HAL_PCD_MspInit+0x6a>
	PA9     ------> USB_OTG_FS_VBUS
	PA10     ------> USB_OTG_FS_ID
	PA11     ------> USB_OTG_FS_DM
	PA12     ------> USB_OTG_FS_DP
	*/
	GPIO_InitStruct.Pin = GPIO_PIN_8|OTG_FS_ID_Pin|OTG_FS_DM_Pin|OTG_FS_DP_Pin;
 8001e64:	f44f 53e8 	mov.w	r3, #7424	; 0x1d00
 8001e68:	9301      	str	r3, [sp, #4]
	GPIO_InitStruct.Mode = GPIO_MODE_AF_PP;
 8001e6a:	2302      	movs	r3, #2
 8001e6c:	9302      	str	r3, [sp, #8]
	GPIO_InitStruct.Pull = GPIO_NOPULL;
	GPIO_InitStruct.Speed = GPIO_SPEED_FREQ_VERY_HIGH;
 8001e6e:	2303      	movs	r3, #3
	GPIO_InitStruct.Pull = GPIO_NOPULL;
 8001e70:	2400      	movs	r4, #0
	GPIO_InitStruct.Speed = GPIO_SPEED_FREQ_VERY_HIGH;
 8001e72:	9304      	str	r3, [sp, #16]
	GPIO_InitStruct.Alternate = GPIO_AF10_OTG_FS;
	HAL_GPIO_Init(GPIOA, &GPIO_InitStruct);
 8001e74:	a901      	add	r1, sp, #4
	GPIO_InitStruct.Alternate = GPIO_AF10_OTG_FS;
 8001e76:	230a      	movs	r3, #10
	HAL_GPIO_Init(GPIOA, &GPIO_InitStruct);
 8001e78:	4813      	ldr	r0, [pc, #76]	; (8001ec8 <HAL_PCD_MspInit+0x70>)
	GPIO_InitStruct.Alternate = GPIO_AF10_OTG_FS;
 8001e7a:	9305      	str	r3, [sp, #20]
	GPIO_InitStruct.Pull = GPIO_NOPULL;
 8001e7c:	9403      	str	r4, [sp, #12]
	HAL_GPIO_Init(GPIOA, &GPIO_InitStruct);
 8001e7e:	f7fe fc59 	bl	8000734 <HAL_GPIO_Init>

	GPIO_InitStruct.Pin = VBUS_FS_Pin;
 8001e82:	f44f 7300 	mov.w	r3, #512	; 0x200
	GPIO_InitStruct.Mode = GPIO_MODE_INPUT;
	GPIO_InitStruct.Pull = GPIO_NOPULL;
	HAL_GPIO_Init(VBUS_FS_GPIO_Port, &GPIO_InitStruct);
 8001e86:	a901      	add	r1, sp, #4
 8001e88:	480f      	ldr	r0, [pc, #60]	; (8001ec8 <HAL_PCD_MspInit+0x70>)
	GPIO_InitStruct.Pin = VBUS_FS_Pin;
 8001e8a:	9301      	str	r3, [sp, #4]
	GPIO_InitStruct.Mode = GPIO_MODE_INPUT;
 8001e8c:	9402      	str	r4, [sp, #8]
	GPIO_InitStruct.Pull = GPIO_NOPULL;
 8001e8e:	9403      	str	r4, [sp, #12]
	HAL_GPIO_Init(VBUS_FS_GPIO_Port, &GPIO_InitStruct);
 8001e90:	f7fe fc50 	bl	8000734 <HAL_GPIO_Init>

	/* Peripheral clock enable */
	__HAL_RCC_USB_OTG_FS_CLK_ENABLE();
 8001e94:	4b0d      	ldr	r3, [pc, #52]	; (8001ecc <HAL_PCD_MspInit+0x74>)
 8001e96:	6b5a      	ldr	r2, [r3, #52]	; 0x34
 8001e98:	f042 0280 	orr.w	r2, r2, #128	; 0x80
 8001e9c:	635a      	str	r2, [r3, #52]	; 0x34
 8001e9e:	9400      	str	r4, [sp, #0]
 8001ea0:	6c5a      	ldr	r2, [r3, #68]	; 0x44
 8001ea2:	f442 4280 	orr.w	r2, r2, #16384	; 0x4000
 8001ea6:	645a      	str	r2, [r3, #68]	; 0x44
 8001ea8:	6c5b      	ldr	r3, [r3, #68]	; 0x44
 8001eaa:	f403 4380 	and.w	r3, r3, #16384	; 0x4000
 8001eae:	9300      	str	r3, [sp, #0]

	/* Peripheral interrupt init */
	HAL_NVIC_SetPriority(OTG_FS_IRQn, 0, 0);
 8001eb0:	2043      	movs	r0, #67	; 0x43
 8001eb2:	4622      	mov	r2, r4
 8001eb4:	4621      	mov	r1, r4
	__HAL_RCC_USB_OTG_FS_CLK_ENABLE();
 8001eb6:	9b00      	ldr	r3, [sp, #0]
	HAL_NVIC_SetPriority(OTG_FS_IRQn, 0, 0);
 8001eb8:	f7fe fbd6 	bl	8000668 <HAL_NVIC_SetPriority>
	HAL_NVIC_EnableIRQ(OTG_FS_IRQn);
 8001ebc:	2043      	movs	r0, #67	; 0x43
 8001ebe:	f7fe fc07 	bl	80006d0 <HAL_NVIC_EnableIRQ>
  /* USER CODE BEGIN USB_OTG_FS_MspInit 1 */

  /* USER CODE END USB_OTG_FS_MspInit 1 */
  }
}
 8001ec2:	b006      	add	sp, #24
 8001ec4:	bd10      	pop	{r4, pc}
 8001ec6:	bf00      	nop
 8001ec8:	40020000 	.word	0x40020000
 8001ecc:	40023800 	.word	0x40023800

08001ed0 <HAL_PCD_SetupStageCallback>:
  * @param  hpcd: PCD handle
  * @retval None
  */
void HAL_PCD_SetupStageCallback(PCD_HandleTypeDef *hpcd)
{
  USBD_LL_SetupStage(hpcd->pData, (uint8_t *)hpcd->Setup);
 8001ed0:	f500 716f 	add.w	r1, r0, #956	; 0x3bc
 8001ed4:	f8d0 03ec 	ldr.w	r0, [r0, #1004]	; 0x3ec
 8001ed8:	f000 bca3 	b.w	8002822 <USBD_LL_SetupStage>

08001edc <HAL_PCD_DataOutStageCallback>:
  * @param  epnum: Endpoint Number
  * @retval None
  */
void HAL_PCD_DataOutStageCallback(PCD_HandleTypeDef *hpcd, uint8_t epnum)
{
  USBD_LL_DataOutStage(hpcd->pData, epnum, hpcd->OUT_ep[epnum].xfer_buff);
 8001edc:	231c      	movs	r3, #28
 8001ede:	fb03 0301 	mla	r3, r3, r1, r0
 8001ee2:	f8d0 03ec 	ldr.w	r0, [r0, #1004]	; 0x3ec
 8001ee6:	f8d3 2204 	ldr.w	r2, [r3, #516]	; 0x204
 8001eea:	f000 bcc7 	b.w	800287c <USBD_LL_DataOutStage>

08001eee <HAL_PCD_DataInStageCallback>:
  * @param  epnum: Endpoint Number
  * @retval None
  */
void HAL_PCD_DataInStageCallback(PCD_HandleTypeDef *hpcd, uint8_t epnum)
{
  USBD_LL_DataInStage(hpcd->pData, epnum, hpcd->IN_ep[epnum].xfer_buff);
 8001eee:	231c      	movs	r3, #28
 8001ef0:	fb03 0301 	mla	r3, r3, r1, r0
 8001ef4:	f8d0 03ec 	ldr.w	r0, [r0, #1004]	; 0x3ec
 8001ef8:	6c5a      	ldr	r2, [r3, #68]	; 0x44
 8001efa:	f000 bcf1 	b.w	80028e0 <USBD_LL_DataInStage>

08001efe <HAL_PCD_SOFCallback>:
  * @param  hpcd: PCD handle
  * @retval None
  */
void HAL_PCD_SOFCallback(PCD_HandleTypeDef *hpcd)
{
  USBD_LL_SOF(hpcd->pData);
 8001efe:	f8d0 03ec 	ldr.w	r0, [r0, #1004]	; 0x3ec
 8001f02:	f000 bd6d 	b.w	80029e0 <USBD_LL_SOF>

08001f06 <HAL_PCD_ResetCallback>:
  * @brief  Reset callback.
  * @param  hpcd: PCD handle
  * @retval None
  */
void HAL_PCD_ResetCallback(PCD_HandleTypeDef *hpcd)
{
 8001f06:	b510      	push	{r4, lr}
 8001f08:	4604      	mov	r4, r0

  default:
    speed = USBD_SPEED_FULL;
    break;
  }
  USBD_LL_SetSpeed(hpcd->pData, speed);
 8001f0a:	2101      	movs	r1, #1
 8001f0c:	f8d0 03ec 	ldr.w	r0, [r0, #1004]	; 0x3ec
 8001f10:	f000 fd54 	bl	80029bc <USBD_LL_SetSpeed>

  /*Reset Device*/
  USBD_LL_Reset(hpcd->pData);
 8001f14:	f8d4 03ec 	ldr.w	r0, [r4, #1004]	; 0x3ec
}
 8001f18:	e8bd 4010 	ldmia.w	sp!, {r4, lr}
  USBD_LL_Reset(hpcd->pData);
 8001f1c:	f000 bd2f 	b.w	800297e <USBD_LL_Reset>

08001f20 <HAL_PCD_SuspendCallback>:
  * When Low power mode is enabled the debug cannot be used (IAR, Keil doesn't support it)
  * @param  hpcd: PCD handle
  * @retval None
  */
void HAL_PCD_SuspendCallback(PCD_HandleTypeDef *hpcd)
{
 8001f20:	b510      	push	{r4, lr}
 8001f22:	4604      	mov	r4, r0
  /* Inform USB library that core enters in suspend Mode */
  USBD_LL_Suspend(hpcd->pData);
 8001f24:	f8d0 03ec 	ldr.w	r0, [r0, #1004]	; 0x3ec
 8001f28:	f000 fd4b 	bl	80029c2 <USBD_LL_Suspend>
  /*Enter in STOP mode */
  /* USER CODE BEGIN 2 */
  if (hpcd->Init.low_power_enable)
 8001f2c:	6a23      	ldr	r3, [r4, #32]
 8001f2e:	b123      	cbz	r3, 8001f3a <HAL_PCD_SuspendCallback+0x1a>
  {
    /* Set SLEEPDEEP bit and SleepOnExit of Cortex System Control Register */
    SCB->SCR |= (uint32_t)((uint32_t)(SCB_SCR_SLEEPDEEP_Msk | SCB_SCR_SLEEPONEXIT_Msk));
 8001f30:	4a02      	ldr	r2, [pc, #8]	; (8001f3c <HAL_PCD_SuspendCallback+0x1c>)
 8001f32:	6913      	ldr	r3, [r2, #16]
 8001f34:	f043 0306 	orr.w	r3, r3, #6
 8001f38:	6113      	str	r3, [r2, #16]
 8001f3a:	bd10      	pop	{r4, pc}
 8001f3c:	e000ed00 	.word	0xe000ed00

08001f40 <HAL_PCD_ResumeCallback>:
  */
void HAL_PCD_ResumeCallback(PCD_HandleTypeDef *hpcd)
{
  /* USER CODE BEGIN 3 */
  /* USER CODE END 3 */
  USBD_LL_Resume(hpcd->pData);
 8001f40:	f8d0 03ec 	ldr.w	r0, [r0, #1004]	; 0x3ec
 8001f44:	f000 bd46 	b.w	80029d4 <USBD_LL_Resume>

08001f48 <HAL_PCD_ISOOUTIncompleteCallback>:
  * @param  epnum: Endpoint Number
  * @retval None
  */
void HAL_PCD_ISOOUTIncompleteCallback(PCD_HandleTypeDef *hpcd, uint8_t epnum)
{
  USBD_LL_IsoOUTIncomplete(hpcd->pData, epnum);
 8001f48:	f8d0 03ec 	ldr.w	r0, [r0, #1004]	; 0x3ec
 8001f4c:	f000 bd56 	b.w	80029fc <USBD_LL_IsoOUTIncomplete>

08001f50 <HAL_PCD_ISOINIncompleteCallback>:
  * @param  epnum: Endpoint Number
  * @retval None
  */
void HAL_PCD_ISOINIncompleteCallback(PCD_HandleTypeDef *hpcd, uint8_t epnum)
{
  USBD_LL_IsoINIncomplete(hpcd->pData, epnum);
 8001f50:	f8d0 03ec 	ldr.w	r0, [r0, #1004]	; 0x3ec
 8001f54:	f000 bd50 	b.w	80029f8 <USBD_LL_IsoINIncomplete>

08001f58 <HAL_PCD_ConnectCallback>:
  * @param  hpcd: PCD handle
  * @retval None
  */
void HAL_PCD_ConnectCallback(PCD_HandleTypeDef *hpcd)
{
  USBD_LL_DevConnected(hpcd->pData);
 8001f58:	f8d0 03ec 	ldr.w	r0, [r0, #1004]	; 0x3ec
 8001f5c:	f000 bd50 	b.w	8002a00 <USBD_LL_DevConnected>

08001f60 <HAL_PCD_DisconnectCallback>:
  * @param  hpcd: PCD handle
  * @retval None
  */
void HAL_PCD_DisconnectCallback(PCD_HandleTypeDef *hpcd)
{
  USBD_LL_DevDisconnected(hpcd->pData);
 8001f60:	f8d0 03ec 	ldr.w	r0, [r0, #1004]	; 0x3ec
 8001f64:	f000 bd4e 	b.w	8002a04 <USBD_LL_DevDisconnected>

08001f68 <USBD_LL_Init>:
  * @brief  Initializes the Low Level portion of the Device driver.
  * @param  pdev: Device handle
  * @retval USBD Status
  */
USBD_StatusTypeDef  USBD_LL_Init (USBD_HandleTypeDef *pdev)
{
 8001f68:	b5f8      	push	{r3, r4, r5, r6, r7, lr}
  //HAL_PCDEx_PMAConfig(pdev->pData , RNDIS_DATA_IN_EP            , PCD_SNG_BUF, RNDIS_DATA_IN_PMAADDRESS);
  return USBD_OK;*/
	  /* Init USB_IP */
  //if (pdev->id == DEVICE_FS) {
  /* Link The driver to the stack */
  hpcd_USB_FS.pData = pdev;
 8001f6a:	4c15      	ldr	r4, [pc, #84]	; (8001fc0 <USBD_LL_Init+0x58>)
  pdev->pData = &hpcd_USB_FS;

  hpcd_USB_FS.Instance = USB_OTG_FS;
  hpcd_USB_FS.Init.dev_endpoints = 8;
 8001f6c:	2708      	movs	r7, #8
 8001f6e:	f04f 43a0 	mov.w	r3, #1342177280	; 0x50000000
  hpcd_USB_FS.Init.speed = PCD_SPEED_FULL;
  hpcd_USB_FS.Init.ep0_mps = DEP0CTL_MPS_8;
  hpcd_USB_FS.Init.low_power_enable = DISABLE;
 8001f72:	2500      	movs	r5, #0
  hpcd_USB_FS.pData = pdev;
 8001f74:	f8c4 03ec 	str.w	r0, [r4, #1004]	; 0x3ec
  hpcd_USB_FS.Init.dev_endpoints = 8;
 8001f78:	e884 0088 	stmia.w	r4, {r3, r7}
  pdev->pData = &hpcd_USB_FS;
 8001f7c:	f8c0 4220 	str.w	r4, [r0, #544]	; 0x220
  hpcd_USB_FS.Init.ep0_mps = DEP0CTL_MPS_8;
 8001f80:	2303      	movs	r3, #3
  hpcd_USB_FS.Init.speed = PCD_SPEED_FULL;
 8001f82:	2602      	movs	r6, #2
  hpcd_USB_FS.Init.lpm_enable = DISABLE;
  hpcd_USB_FS.Init.battery_charging_enable = DISABLE;
  HAL_PCD_Init(&hpcd_USB_FS);
 8001f84:	4620      	mov	r0, r4
  hpcd_USB_FS.Init.ep0_mps = DEP0CTL_MPS_8;
 8001f86:	6163      	str	r3, [r4, #20]
  hpcd_USB_FS.Init.speed = PCD_SPEED_FULL;
 8001f88:	60e6      	str	r6, [r4, #12]
  hpcd_USB_FS.Init.low_power_enable = DISABLE;
 8001f8a:	6225      	str	r5, [r4, #32]
  hpcd_USB_FS.Init.lpm_enable = DISABLE;
 8001f8c:	6265      	str	r5, [r4, #36]	; 0x24
  hpcd_USB_FS.Init.battery_charging_enable = DISABLE;
 8001f8e:	62a5      	str	r5, [r4, #40]	; 0x28
  HAL_PCD_Init(&hpcd_USB_FS);
 8001f90:	f7fe fca6 	bl	80008e0 <HAL_PCD_Init>


  HAL_PCDEx_SetRxFiFo(&hpcd_USB_FS, 0x80);
 8001f94:	2180      	movs	r1, #128	; 0x80
 8001f96:	4620      	mov	r0, r4
 8001f98:	f7ff f8e9 	bl	800116e <HAL_PCDEx_SetRxFiFo>
  HAL_PCDEx_SetTxFiFo(&hpcd_USB_FS, 0, 0x40);
 8001f9c:	4629      	mov	r1, r5
 8001f9e:	2240      	movs	r2, #64	; 0x40
 8001fa0:	4620      	mov	r0, r4
 8001fa2:	f7ff f8c3 	bl	800112c <HAL_PCDEx_SetTxFiFo>
  HAL_PCDEx_SetTxFiFo(&hpcd_USB_FS, 1, 0x08);
 8001fa6:	463a      	mov	r2, r7
 8001fa8:	2101      	movs	r1, #1
 8001faa:	4620      	mov	r0, r4
 8001fac:	f7ff f8be 	bl	800112c <HAL_PCDEx_SetTxFiFo>
  HAL_PCDEx_SetTxFiFo(&hpcd_USB_FS, 2, 0x40);
 8001fb0:	2240      	movs	r2, #64	; 0x40
 8001fb2:	4631      	mov	r1, r6
 8001fb4:	4620      	mov	r0, r4
 8001fb6:	f7ff f8b9 	bl	800112c <HAL_PCDEx_SetTxFiFo>

  //HAL_PCDEx_SetRxFiFo(&hpcd_USB_FS, 0x80);
  //HAL_PCDEx_SetTxFiFo(&hpcd_USB_FS, 0, 0x40);
  //HAL_PCDEx_SetTxFiFo(&hpcd_USB_FS, 1, 0x80);
  return USBD_OK;
}
 8001fba:	4628      	mov	r0, r5
 8001fbc:	bdf8      	pop	{r3, r4, r5, r6, r7, pc}
 8001fbe:	bf00      	nop
 8001fc0:	200074c4 	.word	0x200074c4

08001fc4 <USBD_LL_Start>:
  * @brief  Starts the Low Level portion of the Device driver.
  * @param  pdev: Device handle
  * @retval USBD Status
  */
USBD_StatusTypeDef  USBD_LL_Start(USBD_HandleTypeDef *pdev)
{
 8001fc4:	b508      	push	{r3, lr}
  HAL_PCD_Start(pdev->pData);
 8001fc6:	f8d0 0220 	ldr.w	r0, [r0, #544]	; 0x220
 8001fca:	f7fe fcf5 	bl	80009b8 <HAL_PCD_Start>
  return USBD_OK;
}
 8001fce:	2000      	movs	r0, #0
 8001fd0:	bd08      	pop	{r3, pc}

08001fd2 <USBD_LL_OpenEP>:
  */
USBD_StatusTypeDef  USBD_LL_OpenEP  (USBD_HandleTypeDef *pdev,
                                      uint8_t  ep_addr,
                                      uint8_t  ep_type,
                                      uint16_t ep_mps)
{
 8001fd2:	b510      	push	{r4, lr}
 8001fd4:	461c      	mov	r4, r3

  HAL_PCD_EP_Open(pdev->pData,
 8001fd6:	f8d0 0220 	ldr.w	r0, [r0, #544]	; 0x220
 8001fda:	4613      	mov	r3, r2
 8001fdc:	4622      	mov	r2, r4
 8001fde:	f7fe ffbf 	bl	8000f60 <HAL_PCD_EP_Open>
                  ep_addr,
                  ep_mps,
                  ep_type);

  return USBD_OK;
}
 8001fe2:	2000      	movs	r0, #0
 8001fe4:	bd10      	pop	{r4, pc}

08001fe6 <USBD_LL_CloseEP>:
  * @param  pdev: Device handle
  * @param  ep_addr: Endpoint Number
  * @retval USBD Status
  */
USBD_StatusTypeDef  USBD_LL_CloseEP (USBD_HandleTypeDef *pdev, uint8_t ep_addr)
{
 8001fe6:	b508      	push	{r3, lr}

  HAL_PCD_EP_Close(pdev->pData, ep_addr);
 8001fe8:	f8d0 0220 	ldr.w	r0, [r0, #544]	; 0x220
 8001fec:	f7fe ffe6 	bl	8000fbc <HAL_PCD_EP_Close>
  return USBD_OK;
}
 8001ff0:	2000      	movs	r0, #0
 8001ff2:	bd08      	pop	{r3, pc}

08001ff4 <USBD_LL_StallEP>:
  * @param  pdev: Device handle
  * @param  ep_addr: Endpoint Number
  * @retval USBD Status
  */
USBD_StatusTypeDef  USBD_LL_StallEP (USBD_HandleTypeDef *pdev, uint8_t ep_addr)
{
 8001ff4:	b508      	push	{r3, lr}

  HAL_PCD_EP_SetStall(pdev->pData, ep_addr);
 8001ff6:	f8d0 0220 	ldr.w	r0, [r0, #544]	; 0x220
 8001ffa:	f7ff f846 	bl	800108a <HAL_PCD_EP_SetStall>
  return USBD_OK;
}
 8001ffe:	2000      	movs	r0, #0
 8002000:	bd08      	pop	{r3, pc}

08002002 <USBD_LL_ClearStallEP>:
  * @param  pdev: Device handle
  * @param  ep_addr: Endpoint Number
  * @retval USBD Status
  */
USBD_StatusTypeDef  USBD_LL_ClearStallEP (USBD_HandleTypeDef *pdev, uint8_t ep_addr)
{
 8002002:	b508      	push	{r3, lr}

  HAL_PCD_EP_ClrStall(pdev->pData, ep_addr);
 8002004:	f8d0 0220 	ldr.w	r0, [r0, #544]	; 0x220
 8002008:	f7ff f86b 	bl	80010e2 <HAL_PCD_EP_ClrStall>
  return USBD_OK;
}
 800200c:	2000      	movs	r0, #0
 800200e:	bd08      	pop	{r3, pc}

08002010 <USBD_LL_IsStallEP>:
  */
uint8_t USBD_LL_IsStallEP (USBD_HandleTypeDef *pdev, uint8_t ep_addr)
{
  PCD_HandleTypeDef *hpcd = pdev->pData;

  if((ep_addr & 0x80) == 0x80)
 8002010:	f011 0f80 	tst.w	r1, #128	; 0x80
  PCD_HandleTypeDef *hpcd = pdev->pData;
 8002014:	f8d0 3220 	ldr.w	r3, [r0, #544]	; 0x220
 8002018:	f04f 021c 	mov.w	r2, #28
  {
    return hpcd->IN_ep[ep_addr & 0x7F].is_stall;
 800201c:	bf1b      	ittet	ne
 800201e:	f001 017f 	andne.w	r1, r1, #127	; 0x7f
 8002022:	fb02 3101 	mlane	r1, r2, r1, r3
  }
  else
  {
    return hpcd->OUT_ep[ep_addr & 0x7F].is_stall;
 8002026:	fb02 3101 	mlaeq	r1, r2, r1, r3
    return hpcd->IN_ep[ep_addr & 0x7F].is_stall;
 800202a:	f891 003a 	ldrbne.w	r0, [r1, #58]	; 0x3a
    return hpcd->OUT_ep[ep_addr & 0x7F].is_stall;
 800202e:	bf08      	it	eq
 8002030:	f891 01fa 	ldrbeq.w	r0, [r1, #506]	; 0x1fa
  }
}
 8002034:	4770      	bx	lr

08002036 <USBD_LL_SetUSBAddress>:
  * @param  pdev: Device handle
  * @param  ep_addr: Endpoint Number
  * @retval USBD Status
  */
USBD_StatusTypeDef  USBD_LL_SetUSBAddress (USBD_HandleTypeDef *pdev, uint8_t dev_addr)
{
 8002036:	b508      	push	{r3, lr}

  HAL_PCD_SetAddress(pdev->pData, dev_addr);
 8002038:	f8d0 0220 	ldr.w	r0, [r0, #544]	; 0x220
 800203c:	f7fe ff7e 	bl	8000f3c <HAL_PCD_SetAddress>
  return USBD_OK;
}
 8002040:	2000      	movs	r0, #0
 8002042:	bd08      	pop	{r3, pc}

08002044 <USBD_LL_Transmit>:
  */
USBD_StatusTypeDef  USBD_LL_Transmit (USBD_HandleTypeDef *pdev,
                                      uint8_t  ep_addr,
                                      uint8_t  *pbuf,
                                      uint16_t  size)
{
 8002044:	b508      	push	{r3, lr}

  HAL_PCD_EP_Transmit(pdev->pData, ep_addr, pbuf, size);
 8002046:	f8d0 0220 	ldr.w	r0, [r0, #544]	; 0x220
 800204a:	f7fe fffe 	bl	800104a <HAL_PCD_EP_Transmit>
  return USBD_OK;
}
 800204e:	2000      	movs	r0, #0
 8002050:	bd08      	pop	{r3, pc}

08002052 <USBD_LL_PrepareReceive>:
  */
USBD_StatusTypeDef  USBD_LL_PrepareReceive(USBD_HandleTypeDef *pdev,
                                           uint8_t  ep_addr,
                                           uint8_t  *pbuf,
                                           uint16_t  size)
{
 8002052:	b508      	push	{r3, lr}

  HAL_PCD_EP_Receive(pdev->pData, ep_addr, pbuf, size);
 8002054:	f8d0 0220 	ldr.w	r0, [r0, #544]	; 0x220
 8002058:	f7fe ffd3 	bl	8001002 <HAL_PCD_EP_Receive>
  return USBD_OK;
}
 800205c:	2000      	movs	r0, #0
 800205e:	bd08      	pop	{r3, pc}

08002060 <USBD_FS_DeviceDescriptor>:
* @param  length : pointer to data length variable
* @retval pointer to descriptor buffer
*/
uint8_t *  USBD_FS_DeviceDescriptor( USBD_SpeedTypeDef speed , uint16_t *length)
{
  *length = sizeof(USBD_FS_DeviceDesc);
 8002060:	2312      	movs	r3, #18
 8002062:	800b      	strh	r3, [r1, #0]
  return USBD_FS_DeviceDesc;
}
 8002064:	4800      	ldr	r0, [pc, #0]	; (8002068 <USBD_FS_DeviceDescriptor+0x8>)
 8002066:	4770      	bx	lr
 8002068:	2000001c 	.word	0x2000001c

0800206c <USBD_FS_LangIDStrDescriptor>:
* @param  length : pointer to data length variable
* @retval pointer to descriptor buffer
*/
uint8_t *  USBD_FS_LangIDStrDescriptor( USBD_SpeedTypeDef speed , uint16_t *length)
{
  *length =  sizeof(USBD_LangIDDesc);
 800206c:	2304      	movs	r3, #4
 800206e:	800b      	strh	r3, [r1, #0]
  return USBD_LangIDDesc;
}
 8002070:	4800      	ldr	r0, [pc, #0]	; (8002074 <USBD_FS_LangIDStrDescriptor+0x8>)
 8002072:	4770      	bx	lr
 8002074:	20000030 	.word	0x20000030

08002078 <USBD_FS_ManufacturerStrDescriptor>:
* @param  speed : current device speed
* @param  length : pointer to data length variable
* @retval pointer to descriptor buffer
*/
uint8_t *  USBD_FS_ManufacturerStrDescriptor( USBD_SpeedTypeDef speed , uint16_t *length)
{
 8002078:	b510      	push	{r4, lr}
  USBD_GetString (USBD_MANUFACTURER_STRING, USBD_StrDesc, length);
 800207a:	4c04      	ldr	r4, [pc, #16]	; (800208c <USBD_FS_ManufacturerStrDescriptor+0x14>)
 800207c:	4804      	ldr	r0, [pc, #16]	; (8002090 <USBD_FS_ManufacturerStrDescriptor+0x18>)
 800207e:	460a      	mov	r2, r1
 8002080:	4621      	mov	r1, r4
 8002082:	f000 fe5e 	bl	8002d42 <USBD_GetString>
  return USBD_StrDesc;
}
 8002086:	4620      	mov	r0, r4
 8002088:	bd10      	pop	{r4, pc}
 800208a:	bf00      	nop
 800208c:	200078b4 	.word	0x200078b4
 8002090:	08007cb8 	.word	0x08007cb8

08002094 <USBD_FS_ProductStrDescriptor>:
{
 8002094:	b510      	push	{r4, lr}
    USBD_GetString (USBD_PRODUCT_STRING_FS, USBD_StrDesc, length);
 8002096:	4c04      	ldr	r4, [pc, #16]	; (80020a8 <USBD_FS_ProductStrDescriptor+0x14>)
 8002098:	4804      	ldr	r0, [pc, #16]	; (80020ac <USBD_FS_ProductStrDescriptor+0x18>)
 800209a:	460a      	mov	r2, r1
 800209c:	4621      	mov	r1, r4
 800209e:	f000 fe50 	bl	8002d42 <USBD_GetString>
}
 80020a2:	4620      	mov	r0, r4
 80020a4:	bd10      	pop	{r4, pc}
 80020a6:	bf00      	nop
 80020a8:	200078b4 	.word	0x200078b4
 80020ac:	08007cc7 	.word	0x08007cc7

080020b0 <USBD_FS_SerialStrDescriptor>:
* @param  speed : current device speed
* @param  length : pointer to data length variable
* @retval pointer to descriptor buffer
*/
uint8_t *  USBD_FS_SerialStrDescriptor( USBD_SpeedTypeDef speed , uint16_t *length)
{
 80020b0:	b510      	push	{r4, lr}
  if(speed  == USBD_SPEED_HIGH)
  {
    USBD_GetString (USBD_SERIALNUMBER_STRING_FS, USBD_StrDesc, length);
 80020b2:	4c04      	ldr	r4, [pc, #16]	; (80020c4 <USBD_FS_SerialStrDescriptor+0x14>)
 80020b4:	4804      	ldr	r0, [pc, #16]	; (80020c8 <USBD_FS_SerialStrDescriptor+0x18>)
 80020b6:	460a      	mov	r2, r1
 80020b8:	4621      	mov	r1, r4
 80020ba:	f000 fe42 	bl	8002d42 <USBD_GetString>
  else
  {
    USBD_GetString (USBD_SERIALNUMBER_STRING_FS, USBD_StrDesc, length);
  }
  return USBD_StrDesc;
}
 80020be:	4620      	mov	r0, r4
 80020c0:	bd10      	pop	{r4, pc}
 80020c2:	bf00      	nop
 80020c4:	200078b4 	.word	0x200078b4
 80020c8:	08007cd5 	.word	0x08007cd5

080020cc <USBD_FS_ConfigStrDescriptor>:
* @param  speed : current device speed
* @param  length : pointer to data length variable
* @retval pointer to descriptor buffer
*/
uint8_t *  USBD_FS_ConfigStrDescriptor( USBD_SpeedTypeDef speed , uint16_t *length)
{
 80020cc:	b510      	push	{r4, lr}
  if(speed  == USBD_SPEED_HIGH)
  {
    USBD_GetString (USBD_CONFIGURATION_STRING_FS, USBD_StrDesc, length);
 80020ce:	4c04      	ldr	r4, [pc, #16]	; (80020e0 <USBD_FS_ConfigStrDescriptor+0x14>)
 80020d0:	4804      	ldr	r0, [pc, #16]	; (80020e4 <USBD_FS_ConfigStrDescriptor+0x18>)
 80020d2:	460a      	mov	r2, r1
 80020d4:	4621      	mov	r1, r4
 80020d6:	f000 fe34 	bl	8002d42 <USBD_GetString>
  else
  {
    USBD_GetString (USBD_CONFIGURATION_STRING_FS, USBD_StrDesc, length);
  }
  return USBD_StrDesc;
}
 80020da:	4620      	mov	r0, r4
 80020dc:	bd10      	pop	{r4, pc}
 80020de:	bf00      	nop
 80020e0:	200078b4 	.word	0x200078b4
 80020e4:	08007c9b 	.word	0x08007c9b

080020e8 <USBD_FS_InterfaceStrDescriptor>:
* @param  speed : current device speed
* @param  length : pointer to data length variable
* @retval pointer to descriptor buffer
*/
uint8_t *  USBD_FS_InterfaceStrDescriptor( USBD_SpeedTypeDef speed , uint16_t *length)
{
 80020e8:	b510      	push	{r4, lr}
  if(speed == 0)
  {
    USBD_GetString (USBD_INTERFACE_STRING_FS, USBD_StrDesc, length);
 80020ea:	4c04      	ldr	r4, [pc, #16]	; (80020fc <USBD_FS_InterfaceStrDescriptor+0x14>)
 80020ec:	4804      	ldr	r0, [pc, #16]	; (8002100 <USBD_FS_InterfaceStrDescriptor+0x18>)
 80020ee:	460a      	mov	r2, r1
 80020f0:	4621      	mov	r1, r4
 80020f2:	f000 fe26 	bl	8002d42 <USBD_GetString>
  else
  {
    USBD_GetString (USBD_INTERFACE_STRING_FS, USBD_StrDesc, length);
  }
  return USBD_StrDesc;
}
 80020f6:	4620      	mov	r0, r4
 80020f8:	bd10      	pop	{r4, pc}
 80020fa:	bf00      	nop
 80020fc:	200078b4 	.word	0x200078b4
 8002100:	08007ca8 	.word	0x08007ca8

08002104 <usbd_rndis_sof>:
// Start Of Frame event management
static uint8_t usbd_rndis_sof(USBD_HandleTypeDef *pdev)
{
  //rndis_send();
  return USBD_OK;
}
 8002104:	2000      	movs	r0, #0
 8002106:	4770      	bx	lr

08002108 <rndis_iso_out_incomplete>:
}

static uint8_t rndis_iso_out_incomplete(USBD_HandleTypeDef *pdev, uint8_t epnum)
{
  return USBD_OK;
}
 8002108:	2000      	movs	r0, #0
 800210a:	4770      	bx	lr

0800210c <usbd_rndis_GetDeviceQualifierDesc>:
* @param  length : pointer data length
* @retval pointer to descriptor buffer
*/
static uint8_t  *usbd_rndis_GetDeviceQualifierDesc (uint16_t *length)
{
  *length = sizeof (USBD_DeviceQualifierDesc);
 800210c:	230a      	movs	r3, #10
 800210e:	8003      	strh	r3, [r0, #0]
  return USBD_DeviceQualifierDesc;
}
 8002110:	4800      	ldr	r0, [pc, #0]	; (8002114 <usbd_rndis_GetDeviceQualifierDesc+0x8>)
 8002112:	4770      	bx	lr
 8002114:	20000034 	.word	0x20000034

08002118 <usbd_rndis_GetCfgDesc>:
  * @param  length : pointer data length
  * @retval pointer to descriptor buffer
  */
static uint8_t  *usbd_rndis_GetCfgDesc (uint16_t *length)
{
  *length = sizeof (usbd_rndis_CfgDesc);
 8002118:	234b      	movs	r3, #75	; 0x4b
 800211a:	8003      	strh	r3, [r0, #0]
  return usbd_rndis_CfgDesc;
}
 800211c:	4800      	ldr	r0, [pc, #0]	; (8002120 <usbd_rndis_GetCfgDesc+0x8>)
 800211e:	4770      	bx	lr
 8002120:	20000084 	.word	0x20000084

08002124 <usbd_rndis_deinit>:
{
 8002124:	b510      	push	{r4, lr}
  USBD_LL_CloseEP(pdev,
 8002126:	2181      	movs	r1, #129	; 0x81
{
 8002128:	4604      	mov	r4, r0
  USBD_LL_CloseEP(pdev,
 800212a:	f7ff ff5c 	bl	8001fe6 <USBD_LL_CloseEP>
  USBD_LL_CloseEP(pdev,
 800212e:	2182      	movs	r1, #130	; 0x82
 8002130:	4620      	mov	r0, r4
 8002132:	f7ff ff58 	bl	8001fe6 <USBD_LL_CloseEP>
  USBD_LL_CloseEP(pdev,
 8002136:	2103      	movs	r1, #3
 8002138:	4620      	mov	r0, r4
 800213a:	f7ff ff54 	bl	8001fe6 <USBD_LL_CloseEP>
}
 800213e:	2000      	movs	r0, #0
 8002140:	bd10      	pop	{r4, pc}
	...

08002144 <usbd_rndis_setup>:
{
 8002144:	b508      	push	{r3, lr}
  switch (req->bmRequest & USB_REQ_TYPE_MASK)
 8002146:	780b      	ldrb	r3, [r1, #0]
 8002148:	f003 0260 	and.w	r2, r3, #96	; 0x60
 800214c:	2a20      	cmp	r2, #32
 800214e:	d108      	bne.n	8002162 <usbd_rndis_setup+0x1e>
    if (req->wLength != 0) // is data setup packet?
 8002150:	88ca      	ldrh	r2, [r1, #6]
 8002152:	b132      	cbz	r2, 8002162 <usbd_rndis_setup+0x1e>
      if (req->bmRequest & 0x80)
 8002154:	061b      	lsls	r3, r3, #24
                          ((rndis_generic_msg_t *)encapsulated_buffer)->MessageLength);
 8002156:	4905      	ldr	r1, [pc, #20]	; (800216c <usbd_rndis_setup+0x28>)
      if (req->bmRequest & 0x80)
 8002158:	d505      	bpl.n	8002166 <usbd_rndis_setup+0x22>
                          ((rndis_generic_msg_t *)encapsulated_buffer)->MessageLength);
 800215a:	684a      	ldr	r2, [r1, #4]
        USBD_CtlSendData (pdev,
 800215c:	b292      	uxth	r2, r2
 800215e:	f000 fe0c 	bl	8002d7a <USBD_CtlSendData>
}
 8002162:	2000      	movs	r0, #0
 8002164:	bd08      	pop	{r3, pc}
        USBD_CtlPrepareRx (pdev,
 8002166:	f000 fe1d 	bl	8002da4 <USBD_CtlPrepareRx>
 800216a:	e7fa      	b.n	8002162 <usbd_rndis_setup+0x1e>
 800216c:	200080ca 	.word	0x200080ca

08002170 <rndis_iso_in_incomplete>:
 8002170:	2000      	movs	r0, #0
 8002172:	4770      	bx	lr

08002174 <rndis_initialized_cb>:
 8002174:	4770      	bx	lr
	...

08002178 <rndis_rx_start>:
  if (rndis_rx_started)
 8002178:	4b09      	ldr	r3, [pc, #36]	; (80021a0 <rndis_rx_start+0x28>)
 800217a:	781a      	ldrb	r2, [r3, #0]
{
 800217c:	b510      	push	{r4, lr}
  if (rndis_rx_started)
 800217e:	b96a      	cbnz	r2, 800219c <rndis_rx_start+0x24>
  \details Disables IRQ interrupts by setting the I-bit in the CPSR.
  Can only be executed in Privileged modes.
 */
__attribute__( ( always_inline ) ) __STATIC_INLINE void __disable_irq(void)
{
  __ASM volatile ("cpsid i" : : : "memory");
 8002180:	b672      	cpsid	i
  USBD_LL_PrepareReceive(pDev,
 8002182:	4808      	ldr	r0, [pc, #32]	; (80021a4 <rndis_rx_start+0x2c>)
 8002184:	4a08      	ldr	r2, [pc, #32]	; (80021a8 <rndis_rx_start+0x30>)
 8002186:	6800      	ldr	r0, [r0, #0]
  rndis_rx_started = true;
 8002188:	2401      	movs	r4, #1
 800218a:	701c      	strb	r4, [r3, #0]
  USBD_LL_PrepareReceive(pDev,
 800218c:	2103      	movs	r1, #3
 800218e:	f240 6316 	movw	r3, #1558	; 0x616
 8002192:	f7ff ff5e 	bl	8002052 <USBD_LL_PrepareReceive>
  __ASM volatile ("cpsie i" : : : "memory");
 8002196:	b662      	cpsie	i
 8002198:	4620      	mov	r0, r4
 800219a:	bd10      	pop	{r4, pc}
    return false;
 800219c:	2000      	movs	r0, #0
}
 800219e:	bd10      	pop	{r4, pc}
 80021a0:	200001b2 	.word	0x200001b2
 80021a4:	20008144 	.word	0x20008144
 80021a8:	20007ab4 	.word	0x20007ab4

080021ac <usbd_rndis_init>:
{
 80021ac:	b510      	push	{r4, lr}
  USBD_LL_OpenEP(pdev,
 80021ae:	2308      	movs	r3, #8
{
 80021b0:	4604      	mov	r4, r0
  USBD_LL_OpenEP(pdev,
 80021b2:	2203      	movs	r2, #3
 80021b4:	2181      	movs	r1, #129	; 0x81
 80021b6:	f7ff ff0c 	bl	8001fd2 <USBD_LL_OpenEP>
  USBD_LL_OpenEP(pdev,
 80021ba:	2340      	movs	r3, #64	; 0x40
 80021bc:	2202      	movs	r2, #2
 80021be:	2182      	movs	r1, #130	; 0x82
 80021c0:	4620      	mov	r0, r4
 80021c2:	f7ff ff06 	bl	8001fd2 <USBD_LL_OpenEP>
  USBD_LL_OpenEP(pdev,
 80021c6:	2202      	movs	r2, #2
 80021c8:	2103      	movs	r1, #3
 80021ca:	2340      	movs	r3, #64	; 0x40
 80021cc:	4620      	mov	r0, r4
 80021ce:	f7ff ff00 	bl	8001fd2 <USBD_LL_OpenEP>
  pDev = pdev;
 80021d2:	4b03      	ldr	r3, [pc, #12]	; (80021e0 <usbd_rndis_init+0x34>)
 80021d4:	601c      	str	r4, [r3, #0]
  rndis_rx_start();
 80021d6:	f7ff ffcf 	bl	8002178 <rndis_rx_start>
}
 80021da:	2000      	movs	r0, #0
 80021dc:	bd10      	pop	{r4, pc}
 80021de:	bf00      	nop
 80021e0:	20008144 	.word	0x20008144

080021e4 <rndis_rx_size>:
  if (!rndis_rx_started)
 80021e4:	4b03      	ldr	r3, [pc, #12]	; (80021f4 <rndis_rx_size+0x10>)
 80021e6:	781b      	ldrb	r3, [r3, #0]
 80021e8:	b913      	cbnz	r3, 80021f0 <rndis_rx_size+0xc>
    return rndis_rx_data_size;
 80021ea:	4b03      	ldr	r3, [pc, #12]	; (80021f8 <rndis_rx_size+0x14>)
 80021ec:	8818      	ldrh	r0, [r3, #0]
 80021ee:	4770      	bx	lr
    return 0;
 80021f0:	2000      	movs	r0, #0
}
 80021f2:	4770      	bx	lr
 80021f4:	200001b2 	.word	0x200001b2
 80021f8:	200001b0 	.word	0x200001b0

080021fc <rndis_rx_data>:
{
 80021fc:	b508      	push	{r3, lr}
  if (rndis_rx_size())
 80021fe:	f7ff fff1 	bl	80021e4 <rndis_rx_size>
 8002202:	2800      	cmp	r0, #0
}
 8002204:	4801      	ldr	r0, [pc, #4]	; (800220c <rndis_rx_data+0x10>)
 8002206:	bf08      	it	eq
 8002208:	2000      	moveq	r0, #0
 800220a:	bd08      	pop	{r3, pc}
 800220c:	20007ae0 	.word	0x20007ae0

08002210 <rndis_tx_start>:
{
 8002210:	e92d 4ff7 	stmdb	sp!, {r0, r1, r2, r4, r5, r6, r7, r8, r9, sl, fp, lr}
  if ((rndis_tx_transmitting) || (size > ETH_MAX_PACKET_SIZE) || (size == 0))
 8002214:	4a2f      	ldr	r2, [pc, #188]	; (80022d4 <rndis_tx_start+0xc4>)
 8002216:	f8df 80d0 	ldr.w	r8, [pc, #208]	; 80022e8 <rndis_tx_start+0xd8>
 800221a:	7816      	ldrb	r6, [r2, #0]
{
 800221c:	4607      	mov	r7, r0
 800221e:	460d      	mov	r5, r1
  if ((rndis_tx_transmitting) || (size > ETH_MAX_PACKET_SIZE) || (size == 0))
 8002220:	b92e      	cbnz	r6, 800222e <rndis_tx_start+0x1e>
 8002222:	1e4b      	subs	r3, r1, #1
 8002224:	b29b      	uxth	r3, r3
 8002226:	f240 51e9 	movw	r1, #1513	; 0x5e9
 800222a:	428b      	cmp	r3, r1
 800222c:	d908      	bls.n	8002240 <rndis_tx_start+0x30>
    usb_eth_stat.txbad++;
 800222e:	f8d8 3008 	ldr.w	r3, [r8, #8]
 8002232:	3301      	adds	r3, #1
 8002234:	f8c8 3008 	str.w	r3, [r8, #8]
    return false;
 8002238:	2000      	movs	r0, #0
}
 800223a:	b003      	add	sp, #12
 800223c:	e8bd 8ff0 	ldmia.w	sp!, {r4, r5, r6, r7, r8, r9, sl, fp, pc}
  memset(hdr, 0, RNDIS_HEADER_SIZE);
 8002240:	4c25      	ldr	r4, [pc, #148]	; (80022d8 <rndis_tx_start+0xc8>)
  rndis_tx_ptr = data;
 8002242:	4b26      	ldr	r3, [pc, #152]	; (80022dc <rndis_tx_start+0xcc>)
  rndis_tx_data_size = size;
 8002244:	f8df b0a4 	ldr.w	fp, [pc, #164]	; 80022ec <rndis_tx_start+0xdc>
  rndis_tx_ptr = data;
 8002248:	6018      	str	r0, [r3, #0]
  rndis_tx_transmitting = true;
 800224a:	f04f 0901 	mov.w	r9, #1
  memset(hdr, 0, RNDIS_HEADER_SIZE);
 800224e:	4631      	mov	r1, r6
  rndis_tx_transmitting = true;
 8002250:	f882 9000 	strb.w	r9, [r2]
  memset(hdr, 0, RNDIS_HEADER_SIZE);
 8002254:	4620      	mov	r0, r4
 8002256:	222c      	movs	r2, #44	; 0x2c
  rndis_tx_ptr = data;
 8002258:	9301      	str	r3, [sp, #4]
  rndis_tx_data_size = size;
 800225a:	f8ab 5000 	strh.w	r5, [fp]
  memset(hdr, 0, RNDIS_HEADER_SIZE);
 800225e:	f005 fcff 	bl	8007c60 <memset>
  if (sended > size)
 8002262:	2d13      	cmp	r5, #19
  hdr->MessageType = REMOTE_NDIS_PACKET_MSG;
 8002264:	7066      	strb	r6, [r4, #1]
 8002266:	70a6      	strb	r6, [r4, #2]
 8002268:	70e6      	strb	r6, [r4, #3]
  hdr->DataOffset = RNDIS_HEADER_SIZE - offsetof(rndis_data_packet_t, DataOffset);
 800226a:	7266      	strb	r6, [r4, #9]
 800226c:	72a6      	strb	r6, [r4, #10]
 800226e:	72e6      	strb	r6, [r4, #11]
 8002270:	f04f 0224 	mov.w	r2, #36	; 0x24
  if (sended > size)
 8002274:	bf94      	ite	ls
 8002276:	462e      	movls	r6, r5
 8002278:	2614      	movhi	r6, #20
  hdr->MessageLength = RNDIS_HEADER_SIZE + size;
 800227a:	f105 0a2c 	add.w	sl, r5, #44	; 0x2c
  hdr->DataOffset = RNDIS_HEADER_SIZE - offsetof(rndis_data_packet_t, DataOffset);
 800227e:	7222      	strb	r2, [r4, #8]
  memcpy(first + RNDIS_HEADER_SIZE, data, sended);
 8002280:	4639      	mov	r1, r7
 8002282:	4632      	mov	r2, r6
 8002284:	f104 002c 	add.w	r0, r4, #44	; 0x2c
  hdr->DataLength = size;
 8002288:	60e5      	str	r5, [r4, #12]
  hdr->MessageType = REMOTE_NDIS_PACKET_MSG;
 800228a:	f884 9000 	strb.w	r9, [r4]
  hdr->MessageLength = RNDIS_HEADER_SIZE + size;
 800228e:	f8c4 a004 	str.w	sl, [r4, #4]
  memcpy(first + RNDIS_HEADER_SIZE, data, sended);
 8002292:	f005 fcda 	bl	8007c4a <memcpy>
  rndis_tx_ptr += sended;
 8002296:	9b01      	ldr	r3, [sp, #4]
  if (hdr->MessageLength % RNDIS_DATA_IN_SZ == 0)
 8002298:	f01a 0f3f 	tst.w	sl, #63	; 0x3f
  rndis_tx_ptr += sended;
 800229c:	4437      	add	r7, r6
 800229e:	601f      	str	r7, [r3, #0]
    rndis_tx_ZLP = true;
 80022a0:	bf08      	it	eq
 80022a2:	4b0f      	ldreq	r3, [pc, #60]	; (80022e0 <rndis_tx_start+0xd0>)
  rndis_tx_data_size -= sended;
 80022a4:	eba5 0506 	sub.w	r5, r5, r6
 80022a8:	f8ab 5000 	strh.w	r5, [fp]
    rndis_tx_ZLP = true;
 80022ac:	bf08      	it	eq
 80022ae:	f883 9000 	strbeq.w	r9, [r3]
  __ASM volatile ("cpsid i" : : : "memory");
 80022b2:	b672      	cpsid	i
  USBD_LL_Transmit (pDev,
 80022b4:	480b      	ldr	r0, [pc, #44]	; (80022e4 <rndis_tx_start+0xd4>)
 80022b6:	4a08      	ldr	r2, [pc, #32]	; (80022d8 <rndis_tx_start+0xc8>)
 80022b8:	6800      	ldr	r0, [r0, #0]
 80022ba:	2340      	movs	r3, #64	; 0x40
 80022bc:	2182      	movs	r1, #130	; 0x82
 80022be:	f7ff fec1 	bl	8002044 <USBD_LL_Transmit>
  __ASM volatile ("cpsie i" : : : "memory");
 80022c2:	b662      	cpsie	i
  usb_eth_stat.txbad++;
 80022c4:	f8d8 3008 	ldr.w	r3, [r8, #8]
 80022c8:	3301      	adds	r3, #1
 80022ca:	f8c8 3008 	str.w	r3, [r8, #8]
  return true;
 80022ce:	2001      	movs	r0, #1
 80022d0:	e7b3      	b.n	800223a <rndis_tx_start+0x2a>
 80022d2:	bf00      	nop
 80022d4:	200001bc 	.word	0x200001bc
 80022d8:	2000016c 	.word	0x2000016c
 80022dc:	200001b8 	.word	0x200001b8
 80022e0:	200001b4 	.word	0x200001b4
 80022e4:	20008144 	.word	0x20008144
 80022e8:	200001c0 	.word	0x200001c0
 80022ec:	200001b6 	.word	0x200001b6

080022f0 <rndis_tx_started>:
}
 80022f0:	4b01      	ldr	r3, [pc, #4]	; (80022f8 <rndis_tx_started+0x8>)
 80022f2:	7818      	ldrb	r0, [r3, #0]
 80022f4:	4770      	bx	lr
 80022f6:	bf00      	nop
 80022f8:	200001bc 	.word	0x200001bc

080022fc <usbd_rndis_data_in>:
  if (epnum == (RNDIS_DATA_IN_EP & 0x0F))
 80022fc:	f001 010f 	and.w	r1, r1, #15
 8002300:	2902      	cmp	r1, #2
{
 8002302:	b570      	push	{r4, r5, r6, lr}
 8002304:	4606      	mov	r6, r0
  if (epnum == (RNDIS_DATA_IN_EP & 0x0F))
 8002306:	d10b      	bne.n	8002320 <usbd_rndis_data_in+0x24>
    if (rndis_tx_data_size && rndis_tx_ptr)
 8002308:	4d12      	ldr	r5, [pc, #72]	; (8002354 <usbd_rndis_data_in+0x58>)
 800230a:	882b      	ldrh	r3, [r5, #0]
 800230c:	b153      	cbz	r3, 8002324 <usbd_rndis_data_in+0x28>
 800230e:	4c12      	ldr	r4, [pc, #72]	; (8002358 <usbd_rndis_data_in+0x5c>)
 8002310:	6822      	ldr	r2, [r4, #0]
 8002312:	b13a      	cbz	r2, 8002324 <usbd_rndis_data_in+0x28>
      USBD_LL_Transmit (pdev,
 8002314:	2182      	movs	r1, #130	; 0x82
 8002316:	f7ff fe95 	bl	8002044 <USBD_LL_Transmit>
      rndis_tx_data_size = 0;
 800231a:	2300      	movs	r3, #0
 800231c:	802b      	strh	r3, [r5, #0]
      rndis_tx_ptr = NULL;
 800231e:	6023      	str	r3, [r4, #0]
}
 8002320:	2000      	movs	r0, #0
 8002322:	bd70      	pop	{r4, r5, r6, pc}
      if (rndis_tx_ZLP)
 8002324:	4c0d      	ldr	r4, [pc, #52]	; (800235c <usbd_rndis_data_in+0x60>)
 8002326:	7821      	ldrb	r1, [r4, #0]
 8002328:	b141      	cbz	r1, 800233c <usbd_rndis_data_in+0x40>
        USBD_LL_Transmit (pdev,
 800232a:	2300      	movs	r3, #0
 800232c:	461a      	mov	r2, r3
 800232e:	2182      	movs	r1, #130	; 0x82
 8002330:	4630      	mov	r0, r6
 8002332:	f7ff fe87 	bl	8002044 <USBD_LL_Transmit>
        rndis_tx_ZLP = false;
 8002336:	2300      	movs	r3, #0
 8002338:	7023      	strb	r3, [r4, #0]
 800233a:	e7f1      	b.n	8002320 <usbd_rndis_data_in+0x24>
        usb_eth_stat.txbad--;
 800233c:	4b08      	ldr	r3, [pc, #32]	; (8002360 <usbd_rndis_data_in+0x64>)
 800233e:	689a      	ldr	r2, [r3, #8]
 8002340:	3a01      	subs	r2, #1
 8002342:	609a      	str	r2, [r3, #8]
        usb_eth_stat.txok++;
 8002344:	681a      	ldr	r2, [r3, #0]
 8002346:	3201      	adds	r2, #1
 8002348:	601a      	str	r2, [r3, #0]
        rndis_tx_transmitting = false;
 800234a:	4b06      	ldr	r3, [pc, #24]	; (8002364 <usbd_rndis_data_in+0x68>)
 800234c:	7019      	strb	r1, [r3, #0]
        rndis_tx_ready_cb();
 800234e:	f000 fee7 	bl	8003120 <rndis_tx_ready_cb>
 8002352:	e7e5      	b.n	8002320 <usbd_rndis_data_in+0x24>
 8002354:	200001b6 	.word	0x200001b6
 8002358:	200001b8 	.word	0x200001b8
 800235c:	200001b4 	.word	0x200001b4
 8002360:	200001c0 	.word	0x200001c0
 8002364:	200001bc 	.word	0x200001bc

08002368 <handle_packet>:
  if (size < RNDIS_HEADER_SIZE)
 8002368:	292b      	cmp	r1, #43	; 0x2b
{
 800236a:	b510      	push	{r4, lr}
 800236c:	4a11      	ldr	r2, [pc, #68]	; (80023b4 <handle_packet+0x4c>)
  if (size < RNDIS_HEADER_SIZE)
 800236e:	d803      	bhi.n	8002378 <handle_packet+0x10>
    usb_eth_stat.rxbad++;
 8002370:	68d3      	ldr	r3, [r2, #12]
 8002372:	3301      	adds	r3, #1
 8002374:	60d3      	str	r3, [r2, #12]
    return;
 8002376:	bd10      	pop	{r4, pc}
  if ((pheader->MessageType != REMOTE_NDIS_PACKET_MSG) ||
 8002378:	6803      	ldr	r3, [r0, #0]
 800237a:	2b01      	cmp	r3, #1
 800237c:	d1f8      	bne.n	8002370 <handle_packet+0x8>
      ((pheader->MessageLength != size) && (pheader->MessageLength != size - 1)))
 800237e:	6844      	ldr	r4, [r0, #4]
  if ((pheader->MessageType != REMOTE_NDIS_PACKET_MSG) ||
 8002380:	42a1      	cmp	r1, r4
 8002382:	d002      	beq.n	800238a <handle_packet+0x22>
      ((pheader->MessageLength != size) && (pheader->MessageLength != size - 1)))
 8002384:	3901      	subs	r1, #1
 8002386:	428c      	cmp	r4, r1
 8002388:	d1f2      	bne.n	8002370 <handle_packet+0x8>
  if (pheader->DataOffset + offsetof(rndis_data_packet_t, DataOffset) + pheader->DataLength != size)
 800238a:	68c1      	ldr	r1, [r0, #12]
 800238c:	6883      	ldr	r3, [r0, #8]
 800238e:	440b      	add	r3, r1
 8002390:	3308      	adds	r3, #8
 8002392:	429c      	cmp	r4, r3
 8002394:	d1ec      	bne.n	8002370 <handle_packet+0x8>
  if (!rndis_rx_started)
 8002396:	4b08      	ldr	r3, [pc, #32]	; (80023b8 <handle_packet+0x50>)
 8002398:	7818      	ldrb	r0, [r3, #0]
 800239a:	2800      	cmp	r0, #0
 800239c:	d0e8      	beq.n	8002370 <handle_packet+0x8>
  rndis_rx_data_size = pheader->DataLength;
 800239e:	4807      	ldr	r0, [pc, #28]	; (80023bc <handle_packet+0x54>)
 80023a0:	8001      	strh	r1, [r0, #0]
  rndis_rx_started = false;
 80023a2:	2100      	movs	r1, #0
 80023a4:	7019      	strb	r1, [r3, #0]
  usb_eth_stat.rxok++;
 80023a6:	6853      	ldr	r3, [r2, #4]
 80023a8:	3301      	adds	r3, #1
 80023aa:	6053      	str	r3, [r2, #4]
  rndis_rx_ready_cb();
 80023ac:	f000 feb9 	bl	8003122 <rndis_rx_ready_cb>
 80023b0:	bd10      	pop	{r4, pc}
 80023b2:	bf00      	nop
 80023b4:	200001c0 	.word	0x200001c0
 80023b8:	200001b2 	.word	0x200001b2
 80023bc:	200001b0 	.word	0x200001b0

080023c0 <usbd_rndis_data_out>:
  if (epnum == RNDIS_DATA_OUT_EP)
 80023c0:	2903      	cmp	r1, #3
{
 80023c2:	b508      	push	{r3, lr}
  if (epnum == RNDIS_DATA_OUT_EP)
 80023c4:	d10b      	bne.n	80023de <usbd_rndis_data_out+0x1e>
    PCD_EPTypeDef *ep = &((PCD_HandleTypeDef*)pdev->pData)->OUT_ep[epnum];
 80023c6:	f8d0 3220 	ldr.w	r3, [r0, #544]	; 0x220
    handle_packet((rndis_data_packet_t*)rndis_rx_buffer, RNDIS_RX_BUFFER_SIZE - ep->xfer_len - RNDIS_DATA_OUT_SZ + ep->xfer_count);
 80023ca:	4806      	ldr	r0, [pc, #24]	; (80023e4 <usbd_rndis_data_out+0x24>)
 80023cc:	f8d3 1264 	ldr.w	r1, [r3, #612]	; 0x264
 80023d0:	f8d3 3260 	ldr.w	r3, [r3, #608]	; 0x260
 80023d4:	f201 51d6 	addw	r1, r1, #1494	; 0x5d6
 80023d8:	1ac9      	subs	r1, r1, r3
 80023da:	f7ff ffc5 	bl	8002368 <handle_packet>
}
 80023de:	2000      	movs	r0, #0
 80023e0:	bd08      	pop	{r3, pc}
 80023e2:	bf00      	nop
 80023e4:	20007ab4 	.word	0x20007ab4

080023e8 <response_available>:

void response_available(USBD_HandleTypeDef *pdev)
{
 80023e8:	b508      	push	{r3, lr}
  __ASM volatile ("cpsid i" : : : "memory");
 80023ea:	b672      	cpsid	i
  __disable_irq();
  USBD_LL_Transmit (pdev,
 80023ec:	2308      	movs	r3, #8
 80023ee:	4a03      	ldr	r2, [pc, #12]	; (80023fc <response_available+0x14>)
 80023f0:	2181      	movs	r1, #129	; 0x81
 80023f2:	f7ff fe27 	bl	8002044 <USBD_LL_Transmit>
  __ASM volatile ("cpsie i" : : : "memory");
 80023f6:	b662      	cpsie	i
 80023f8:	bd08      	pop	{r3, pc}
 80023fa:	bf00      	nop
 80023fc:	08007c88 	.word	0x08007c88

08002400 <rndis_query_cmplt32>:
{
 8002400:	b470      	push	{r4, r5, r6}
  c->MessageType = REMOTE_NDIS_QUERY_CMPLT;
 8002402:	4b0e      	ldr	r3, [pc, #56]	; (800243c <rndis_query_cmplt32+0x3c>)
 8002404:	2504      	movs	r5, #4
 8002406:	f06f 067f 	mvn.w	r6, #127	; 0x7f
 800240a:	2400      	movs	r4, #0
 800240c:	701d      	strb	r5, [r3, #0]
 800240e:	70de      	strb	r6, [r3, #3]
  c->InformationBufferLength = 4;
 8002410:	741d      	strb	r5, [r3, #16]
  c->MessageLength = sizeof(rndis_query_cmplt_t) + 4;
 8002412:	261c      	movs	r6, #28
  c->InformationBufferOffset = 16;
 8002414:	2510      	movs	r5, #16
  c->MessageType = REMOTE_NDIS_QUERY_CMPLT;
 8002416:	705c      	strb	r4, [r3, #1]
 8002418:	709c      	strb	r4, [r3, #2]
  c->MessageLength = sizeof(rndis_query_cmplt_t) + 4;
 800241a:	711e      	strb	r6, [r3, #4]
 800241c:	715c      	strb	r4, [r3, #5]
 800241e:	719c      	strb	r4, [r3, #6]
 8002420:	71dc      	strb	r4, [r3, #7]
  c->InformationBufferLength = 4;
 8002422:	745c      	strb	r4, [r3, #17]
 8002424:	749c      	strb	r4, [r3, #18]
 8002426:	74dc      	strb	r4, [r3, #19]
  c->InformationBufferOffset = 16;
 8002428:	751d      	strb	r5, [r3, #20]
 800242a:	755c      	strb	r4, [r3, #21]
 800242c:	759c      	strb	r4, [r3, #22]
 800242e:	75dc      	strb	r4, [r3, #23]
  c->Status = status;
 8002430:	60d9      	str	r1, [r3, #12]
  *(uint32_t *)(c + 1) = data;
 8002432:	619a      	str	r2, [r3, #24]
}
 8002434:	bc70      	pop	{r4, r5, r6}
  response_available(pdev);
 8002436:	f7ff bfd7 	b.w	80023e8 <response_available>
 800243a:	bf00      	nop
 800243c:	200080ca 	.word	0x200080ca

08002440 <rndis_query_cmplt>:
{
 8002440:	b570      	push	{r4, r5, r6, lr}
 8002442:	4605      	mov	r5, r0
  c->MessageType = REMOTE_NDIS_QUERY_CMPLT;
 8002444:	480e      	ldr	r0, [pc, #56]	; (8002480 <rndis_query_cmplt+0x40>)
{
 8002446:	4616      	mov	r6, r2
  c->MessageType = REMOTE_NDIS_QUERY_CMPLT;
 8002448:	2204      	movs	r2, #4
 800244a:	7002      	strb	r2, [r0, #0]
 800244c:	f06f 027f 	mvn.w	r2, #127	; 0x7f
 8002450:	70c2      	strb	r2, [r0, #3]
  c->MessageLength = sizeof(rndis_query_cmplt_t) + size;
 8002452:	f103 0218 	add.w	r2, r3, #24
  c->MessageType = REMOTE_NDIS_QUERY_CMPLT;
 8002456:	2400      	movs	r4, #0
  c->MessageLength = sizeof(rndis_query_cmplt_t) + size;
 8002458:	6042      	str	r2, [r0, #4]
  c->InformationBufferOffset = 16;
 800245a:	2210      	movs	r2, #16
  c->MessageType = REMOTE_NDIS_QUERY_CMPLT;
 800245c:	7044      	strb	r4, [r0, #1]
 800245e:	7084      	strb	r4, [r0, #2]
  c->InformationBufferOffset = 16;
 8002460:	7502      	strb	r2, [r0, #20]
 8002462:	7544      	strb	r4, [r0, #21]
 8002464:	7584      	strb	r4, [r0, #22]
 8002466:	75c4      	strb	r4, [r0, #23]
  c->Status = status;
 8002468:	60c1      	str	r1, [r0, #12]
  c->InformationBufferLength = size;
 800246a:	6103      	str	r3, [r0, #16]
  memcpy(c + 1, data, size);
 800246c:	4631      	mov	r1, r6
 800246e:	461a      	mov	r2, r3
 8002470:	3018      	adds	r0, #24
 8002472:	f005 fbea 	bl	8007c4a <memcpy>
  response_available(pdev);
 8002476:	4628      	mov	r0, r5
}
 8002478:	e8bd 4070 	ldmia.w	sp!, {r4, r5, r6, lr}
  response_available(pdev);
 800247c:	f7ff bfb4 	b.w	80023e8 <response_available>
 8002480:	200080ca 	.word	0x200080ca

08002484 <rndis_query>:
{
 8002484:	b410      	push	{r4}
  switch (((rndis_query_msg_t *)encapsulated_buffer)->Oid)
 8002486:	4b47      	ldr	r3, [pc, #284]	; (80025a4 <rndis_query+0x120>)
 8002488:	4a47      	ldr	r2, [pc, #284]	; (80025a8 <rndis_query+0x124>)
 800248a:	68db      	ldr	r3, [r3, #12]
 800248c:	4293      	cmp	r3, r2
{
 800248e:	4604      	mov	r4, r0
  switch (((rndis_query_msg_t *)encapsulated_buffer)->Oid)
 8002490:	d05f      	beq.n	8002552 <rndis_query+0xce>
 8002492:	d82e      	bhi.n	80024f2 <rndis_query+0x6e>
 8002494:	3a0c      	subs	r2, #12
 8002496:	4293      	cmp	r3, r2
 8002498:	d028      	beq.n	80024ec <rndis_query+0x68>
 800249a:	d813      	bhi.n	80024c4 <rndis_query+0x40>
 800249c:	3a07      	subs	r2, #7
 800249e:	4293      	cmp	r3, r2
 80024a0:	d00e      	beq.n	80024c0 <rndis_query+0x3c>
 80024a2:	d804      	bhi.n	80024ae <rndis_query+0x2a>
 80024a4:	3a02      	subs	r2, #2
 80024a6:	4293      	cmp	r3, r2
 80024a8:	d04c      	beq.n	8002544 <rndis_query+0xc0>
 80024aa:	3201      	adds	r2, #1
 80024ac:	e006      	b.n	80024bc <rndis_query+0x38>
 80024ae:	4a3f      	ldr	r2, [pc, #252]	; (80025ac <rndis_query+0x128>)
 80024b0:	4293      	cmp	r3, r2
 80024b2:	d064      	beq.n	800257e <rndis_query+0xfa>
 80024b4:	3201      	adds	r2, #1
 80024b6:	4293      	cmp	r3, r2
 80024b8:	d058      	beq.n	800256c <rndis_query+0xe8>
 80024ba:	3a03      	subs	r2, #3
 80024bc:	4293      	cmp	r3, r2
 80024be:	d16c      	bne.n	800259a <rndis_query+0x116>
  case OID_GEN_RCV_NO_BUFFER:          rndis_query_cmplt32(pdev, RNDIS_STATUS_SUCCESS, 0); return;
 80024c0:	2200      	movs	r2, #0
 80024c2:	e048      	b.n	8002556 <rndis_query+0xd2>
  switch (((rndis_query_msg_t *)encapsulated_buffer)->Oid)
 80024c4:	4a3a      	ldr	r2, [pc, #232]	; (80025b0 <rndis_query+0x12c>)
 80024c6:	4293      	cmp	r3, r2
 80024c8:	d056      	beq.n	8002578 <rndis_query+0xf4>
 80024ca:	d806      	bhi.n	80024da <rndis_query+0x56>
 80024cc:	3a02      	subs	r2, #2
 80024ce:	4293      	cmp	r3, r2
 80024d0:	d04f      	beq.n	8002572 <rndis_query+0xee>
 80024d2:	d90b      	bls.n	80024ec <rndis_query+0x68>
  case OID_GEN_VENDOR_DESCRIPTION:     rndis_query_cmplt(pdev, RNDIS_STATUS_SUCCESS, rndis_vendor, strlen(rndis_vendor) + 1); return;
 80024d4:	2308      	movs	r3, #8
 80024d6:	4a37      	ldr	r2, [pc, #220]	; (80025b4 <rndis_query+0x130>)
 80024d8:	e036      	b.n	8002548 <rndis_query+0xc4>
  switch (((rndis_query_msg_t *)encapsulated_buffer)->Oid)
 80024da:	4a37      	ldr	r2, [pc, #220]	; (80025b8 <rndis_query+0x134>)
 80024dc:	4293      	cmp	r3, r2
 80024de:	d0ef      	beq.n	80024c0 <rndis_query+0x3c>
 80024e0:	3201      	adds	r2, #1
 80024e2:	4293      	cmp	r3, r2
 80024e4:	d0ec      	beq.n	80024c0 <rndis_query+0x3c>
 80024e6:	3a03      	subs	r2, #3
 80024e8:	4293      	cmp	r3, r2
 80024ea:	d156      	bne.n	800259a <rndis_query+0x116>
  case OID_GEN_RECEIVE_BLOCK_SIZE:     rndis_query_cmplt32(pdev, RNDIS_STATUS_SUCCESS, ETH_MAX_PACKET_SIZE); return;
 80024ec:	f240 52ea 	movw	r2, #1514	; 0x5ea
 80024f0:	e031      	b.n	8002556 <rndis_query+0xd2>
  switch (((rndis_query_msg_t *)encapsulated_buffer)->Oid)
 80024f2:	f1b3 3f01 	cmp.w	r3, #16843009	; 0x1010101
 80024f6:	d036      	beq.n	8002566 <rndis_query+0xe2>
 80024f8:	d812      	bhi.n	8002520 <rndis_query+0x9c>
 80024fa:	4a30      	ldr	r2, [pc, #192]	; (80025bc <rndis_query+0x138>)
 80024fc:	4293      	cmp	r3, r2
 80024fe:	d046      	beq.n	800258e <rndis_query+0x10a>
 8002500:	d807      	bhi.n	8002512 <rndis_query+0x8e>
 8002502:	4a2f      	ldr	r2, [pc, #188]	; (80025c0 <rndis_query+0x13c>)
 8002504:	4293      	cmp	r3, r2
 8002506:	d0db      	beq.n	80024c0 <rndis_query+0x3c>
 8002508:	4a2e      	ldr	r2, [pc, #184]	; (80025c4 <rndis_query+0x140>)
 800250a:	4293      	cmp	r3, r2
 800250c:	d03d      	beq.n	800258a <rndis_query+0x106>
 800250e:	4a2e      	ldr	r2, [pc, #184]	; (80025c8 <rndis_query+0x144>)
 8002510:	e7d4      	b.n	80024bc <rndis_query+0x38>
 8002512:	4a2e      	ldr	r2, [pc, #184]	; (80025cc <rndis_query+0x148>)
 8002514:	4293      	cmp	r3, r2
 8002516:	d03d      	beq.n	8002594 <rndis_query+0x110>
 8002518:	d2c7      	bcs.n	80024aa <rndis_query+0x26>
  case OID_GEN_XMIT_ERROR:             rndis_query_cmplt32(pdev, RNDIS_STATUS_SUCCESS, usb_eth_stat.txbad); return;
 800251a:	4b2d      	ldr	r3, [pc, #180]	; (80025d0 <rndis_query+0x14c>)
 800251c:	689a      	ldr	r2, [r3, #8]
 800251e:	e01a      	b.n	8002556 <rndis_query+0xd2>
  switch (((rndis_query_msg_t *)encapsulated_buffer)->Oid)
 8002520:	4a2c      	ldr	r2, [pc, #176]	; (80025d4 <rndis_query+0x150>)
 8002522:	4293      	cmp	r3, r2
 8002524:	d02e      	beq.n	8002584 <rndis_query+0x100>
 8002526:	d805      	bhi.n	8002534 <rndis_query+0xb0>
 8002528:	3a02      	subs	r2, #2
 800252a:	4293      	cmp	r3, r2
 800252c:	d02a      	beq.n	8002584 <rndis_query+0x100>
 800252e:	d917      	bls.n	8002560 <rndis_query+0xdc>
  case OID_802_3_MAXIMUM_LIST_SIZE:    rndis_query_cmplt32(pdev, RNDIS_STATUS_SUCCESS, 1); return;
 8002530:	2201      	movs	r2, #1
 8002532:	e010      	b.n	8002556 <rndis_query+0xd2>
  switch (((rndis_query_msg_t *)encapsulated_buffer)->Oid)
 8002534:	4a28      	ldr	r2, [pc, #160]	; (80025d8 <rndis_query+0x154>)
 8002536:	4293      	cmp	r3, r2
 8002538:	d0c2      	beq.n	80024c0 <rndis_query+0x3c>
 800253a:	3201      	adds	r2, #1
 800253c:	4293      	cmp	r3, r2
 800253e:	d0bf      	beq.n	80024c0 <rndis_query+0x3c>
 8002540:	3a02      	subs	r2, #2
 8002542:	e7bb      	b.n	80024bc <rndis_query+0x38>
  case OID_GEN_SUPPORTED_LIST:         rndis_query_cmplt(pdev, RNDIS_STATUS_SUCCESS, OIDSupportedList, 4 * OID_LIST_LENGTH); return;
 8002544:	4a25      	ldr	r2, [pc, #148]	; (80025dc <rndis_query+0x158>)
 8002546:	2358      	movs	r3, #88	; 0x58
  case OID_GEN_VENDOR_DESCRIPTION:     rndis_query_cmplt(pdev, RNDIS_STATUS_SUCCESS, rndis_vendor, strlen(rndis_vendor) + 1); return;
 8002548:	2100      	movs	r1, #0
}
 800254a:	f85d 4b04 	ldr.w	r4, [sp], #4
  default:                             rndis_query_cmplt(pdev, RNDIS_STATUS_FAILURE, NULL, 0); return;
 800254e:	f7ff bf77 	b.w	8002440 <rndis_query_cmplt>
  case OID_GEN_VENDOR_DRIVER_VERSION:  rndis_query_cmplt32(pdev, RNDIS_STATUS_SUCCESS, 0x00001000);  return;
 8002552:	f44f 5280 	mov.w	r2, #4096	; 0x1000
 8002556:	2100      	movs	r1, #0
}
 8002558:	f85d 4b04 	ldr.w	r4, [sp], #4
  case OID_GEN_VENDOR_DRIVER_VERSION:  rndis_query_cmplt32(pdev, RNDIS_STATUS_SUCCESS, 0x00001000);  return;
 800255c:	f7ff bf50 	b.w	8002400 <rndis_query_cmplt32>
  case OID_802_3_CURRENT_ADDRESS:      rndis_query_cmplt(pdev, RNDIS_STATUS_SUCCESS, &station_hwaddr, 6); return;
 8002560:	2306      	movs	r3, #6
 8002562:	4a1f      	ldr	r2, [pc, #124]	; (80025e0 <rndis_query+0x15c>)
 8002564:	e7f0      	b.n	8002548 <rndis_query+0xc4>
  case OID_802_3_PERMANENT_ADDRESS:    rndis_query_cmplt(pdev, RNDIS_STATUS_SUCCESS, &permanent_hwaddr, 6); return;
 8002566:	2306      	movs	r3, #6
 8002568:	4a1e      	ldr	r2, [pc, #120]	; (80025e4 <rndis_query+0x160>)
 800256a:	e7ed      	b.n	8002548 <rndis_query+0xc4>
  case OID_GEN_LINK_SPEED:             rndis_query_cmplt32(pdev, RNDIS_STATUS_SUCCESS, ETH_LINK_SPEED / 100); return;
 800256c:	f640 12c4 	movw	r2, #2500	; 0x9c4
 8002570:	e7f1      	b.n	8002556 <rndis_query+0xd2>
  case OID_GEN_VENDOR_ID:              rndis_query_cmplt32(pdev, RNDIS_STATUS_SUCCESS, 0x00FFFFFF); return;
 8002572:	f06f 427f 	mvn.w	r2, #4278190080	; 0xff000000
 8002576:	e7ee      	b.n	8002556 <rndis_query+0xd2>
  case OID_GEN_CURRENT_PACKET_FILTER:  rndis_query_cmplt32(pdev, RNDIS_STATUS_SUCCESS, oid_packet_filter); return;
 8002578:	4b1b      	ldr	r3, [pc, #108]	; (80025e8 <rndis_query+0x164>)
  case OID_GEN_XMIT_OK:                rndis_query_cmplt32(pdev, RNDIS_STATUS_SUCCESS, usb_eth_stat.txok); return;
 800257a:	681a      	ldr	r2, [r3, #0]
 800257c:	e7eb      	b.n	8002556 <rndis_query+0xd2>
  case OID_GEN_MAXIMUM_FRAME_SIZE:     rndis_query_cmplt32(pdev, RNDIS_STATUS_SUCCESS, ETH_MAX_PACKET_SIZE - ETH_HEADER_SIZE); return;
 800257e:	f240 52dc 	movw	r2, #1500	; 0x5dc
 8002582:	e7e8      	b.n	8002556 <rndis_query+0xd2>
  case OID_802_3_MAC_OPTIONS:          rndis_query_cmplt32(pdev, RNDIS_STATUS_NOT_SUPPORTED, 0); return;
 8002584:	2200      	movs	r2, #0
 8002586:	4919      	ldr	r1, [pc, #100]	; (80025ec <rndis_query+0x168>)
 8002588:	e7e6      	b.n	8002558 <rndis_query+0xd4>
  case OID_GEN_XMIT_OK:                rndis_query_cmplt32(pdev, RNDIS_STATUS_SUCCESS, usb_eth_stat.txok); return;
 800258a:	4b11      	ldr	r3, [pc, #68]	; (80025d0 <rndis_query+0x14c>)
 800258c:	e7f5      	b.n	800257a <rndis_query+0xf6>
  case OID_GEN_RCV_OK:                 rndis_query_cmplt32(pdev, RNDIS_STATUS_SUCCESS, usb_eth_stat.rxok); return;
 800258e:	4b10      	ldr	r3, [pc, #64]	; (80025d0 <rndis_query+0x14c>)
 8002590:	685a      	ldr	r2, [r3, #4]
 8002592:	e7e0      	b.n	8002556 <rndis_query+0xd2>
  case OID_GEN_RCV_ERROR:              rndis_query_cmplt32(pdev, RNDIS_STATUS_SUCCESS, usb_eth_stat.rxbad); return;
 8002594:	4b0e      	ldr	r3, [pc, #56]	; (80025d0 <rndis_query+0x14c>)
 8002596:	68da      	ldr	r2, [r3, #12]
 8002598:	e7dd      	b.n	8002556 <rndis_query+0xd2>
  default:                             rndis_query_cmplt(pdev, RNDIS_STATUS_FAILURE, NULL, 0); return;
 800259a:	2300      	movs	r3, #0
 800259c:	461a      	mov	r2, r3
 800259e:	4914      	ldr	r1, [pc, #80]	; (80025f0 <rndis_query+0x16c>)
 80025a0:	4620      	mov	r0, r4
 80025a2:	e7d2      	b.n	800254a <rndis_query+0xc6>
 80025a4:	200080ca 	.word	0x200080ca
 80025a8:	00010116 	.word	0x00010116
 80025ac:	00010106 	.word	0x00010106
 80025b0:	0001010e 	.word	0x0001010e
 80025b4:	08007d3c 	.word	0x08007d3c
 80025b8:	00010113 	.word	0x00010113
 80025bc:	00020102 	.word	0x00020102
 80025c0:	0001021b 	.word	0x0001021b
 80025c4:	00020101 	.word	0x00020101
 80025c8:	00010202 	.word	0x00010202
 80025cc:	00020104 	.word	0x00020104
 80025d0:	200001c0 	.word	0x200001c0
 80025d4:	01010105 	.word	0x01010105
 80025d8:	01020102 	.word	0x01020102
 80025dc:	08007ce4 	.word	0x08007ce4
 80025e0:	20000044 	.word	0x20000044
 80025e4:	2000003e 	.word	0x2000003e
 80025e8:	200001ac 	.word	0x200001ac
 80025ec:	c00000bb 	.word	0xc00000bb
 80025f0:	c0000001 	.word	0xc0000001

080025f4 <rndis_handle_set_msg>:
{
 80025f4:	b510      	push	{r4, lr}
  oid = m->Oid;
 80025f6:	4b21      	ldr	r3, [pc, #132]	; (800267c <rndis_handle_set_msg+0x88>)
  c->MessageType = REMOTE_NDIS_SET_CMPLT;
 80025f8:	2200      	movs	r2, #0
  oid = m->Oid;
 80025fa:	68d9      	ldr	r1, [r3, #12]
  c->MessageType = REMOTE_NDIS_SET_CMPLT;
 80025fc:	705a      	strb	r2, [r3, #1]
{
 80025fe:	4604      	mov	r4, r0
  c->MessageType = REMOTE_NDIS_SET_CMPLT;
 8002600:	709a      	strb	r2, [r3, #2]
 8002602:	2005      	movs	r0, #5
  c->MessageLength = sizeof(rndis_set_cmplt_t);
 8002604:	715a      	strb	r2, [r3, #5]
 8002606:	719a      	strb	r2, [r3, #6]
 8002608:	71da      	strb	r2, [r3, #7]
  c->Status = RNDIS_STATUS_SUCCESS;
 800260a:	731a      	strb	r2, [r3, #12]
 800260c:	735a      	strb	r2, [r3, #13]
 800260e:	739a      	strb	r2, [r3, #14]
 8002610:	73da      	strb	r2, [r3, #15]
  switch (oid)
 8002612:	4a1b      	ldr	r2, [pc, #108]	; (8002680 <rndis_handle_set_msg+0x8c>)
  c->MessageType = REMOTE_NDIS_SET_CMPLT;
 8002614:	7018      	strb	r0, [r3, #0]
 8002616:	f06f 007f 	mvn.w	r0, #127	; 0x7f
 800261a:	70d8      	strb	r0, [r3, #3]
  switch (oid)
 800261c:	4291      	cmp	r1, r2
  c->MessageLength = sizeof(rndis_set_cmplt_t);
 800261e:	f04f 0010 	mov.w	r0, #16
 8002622:	7118      	strb	r0, [r3, #4]
 8002624:	461a      	mov	r2, r3
  switch (oid)
 8002626:	d006      	beq.n	8002636 <rndis_handle_set_msg+0x42>
 8002628:	d80a      	bhi.n	8002640 <rndis_handle_set_msg+0x4c>
 800262a:	4816      	ldr	r0, [pc, #88]	; (8002684 <rndis_handle_set_msg+0x90>)
 800262c:	4281      	cmp	r1, r0
 800262e:	d00c      	beq.n	800264a <rndis_handle_set_msg+0x56>
 8002630:	4b15      	ldr	r3, [pc, #84]	; (8002688 <rndis_handle_set_msg+0x94>)
 8002632:	4299      	cmp	r1, r3
 8002634:	d118      	bne.n	8002668 <rndis_handle_set_msg+0x74>
  response_available(pdev);
 8002636:	4620      	mov	r0, r4
}
 8002638:	e8bd 4010 	ldmia.w	sp!, {r4, lr}
  response_available(pdev);
 800263c:	f7ff bed4 	b.w	80023e8 <response_available>
  switch (oid)
 8002640:	4b12      	ldr	r3, [pc, #72]	; (800268c <rndis_handle_set_msg+0x98>)
 8002642:	4299      	cmp	r1, r3
 8002644:	d0f7      	beq.n	8002636 <rndis_handle_set_msg+0x42>
 8002646:	4b12      	ldr	r3, [pc, #72]	; (8002690 <rndis_handle_set_msg+0x9c>)
 8002648:	e7f3      	b.n	8002632 <rndis_handle_set_msg+0x3e>
    oid_packet_filter = *INFBUF;
 800264a:	695a      	ldr	r2, [r3, #20]
 800264c:	3308      	adds	r3, #8
 800264e:	58d2      	ldr	r2, [r2, r3]
 8002650:	4b10      	ldr	r3, [pc, #64]	; (8002694 <rndis_handle_set_msg+0xa0>)
 8002652:	601a      	str	r2, [r3, #0]
 8002654:	4b10      	ldr	r3, [pc, #64]	; (8002698 <rndis_handle_set_msg+0xa4>)
    if (oid_packet_filter)
 8002656:	b112      	cbz	r2, 800265e <rndis_handle_set_msg+0x6a>
      rndis_state = rndis_data_initialized;
 8002658:	2202      	movs	r2, #2
 800265a:	701a      	strb	r2, [r3, #0]
 800265c:	e7eb      	b.n	8002636 <rndis_handle_set_msg+0x42>
      rndis_state = rndis_initialized;
 800265e:	2201      	movs	r2, #1
 8002660:	701a      	strb	r2, [r3, #0]
      rndis_initialized_cb();
 8002662:	f7ff fd87 	bl	8002174 <rndis_initialized_cb>
 8002666:	e7e6      	b.n	8002636 <rndis_handle_set_msg+0x42>
    c->Status = RNDIS_STATUS_FAILURE;
 8002668:	2300      	movs	r3, #0
 800266a:	2101      	movs	r1, #1
 800266c:	7353      	strb	r3, [r2, #13]
 800266e:	7393      	strb	r3, [r2, #14]
 8002670:	f06f 033f 	mvn.w	r3, #63	; 0x3f
 8002674:	7311      	strb	r1, [r2, #12]
 8002676:	73d3      	strb	r3, [r2, #15]
    break;
 8002678:	e7dd      	b.n	8002636 <rndis_handle_set_msg+0x42>
 800267a:	bf00      	nop
 800267c:	200080ca 	.word	0x200080ca
 8002680:	00010112 	.word	0x00010112
 8002684:	0001010e 	.word	0x0001010e
 8002688:	0001010f 	.word	0x0001010f
 800268c:	0001021b 	.word	0x0001021b
 8002690:	01010103 	.word	0x01010103
 8002694:	200001ac 	.word	0x200001ac
 8002698:	200001b3 	.word	0x200001b3

0800269c <usbd_rndis_ep0_recv>:
{
 800269c:	b510      	push	{r4, lr}
  switch (((rndis_generic_msg_t *)encapsulated_buffer)->MessageType)
 800269e:	4b45      	ldr	r3, [pc, #276]	; (80027b4 <usbd_rndis_ep0_recv+0x118>)
 80026a0:	681a      	ldr	r2, [r3, #0]
 80026a2:	3a02      	subs	r2, #2
 80026a4:	2a06      	cmp	r2, #6
 80026a6:	d858      	bhi.n	800275a <usbd_rndis_ep0_recv+0xbe>
 80026a8:	e8df f002 	tbb	[pc, r2]
 80026ac:	59555704 	.word	0x59555704
 80026b0:	575c      	.short	0x575c
 80026b2:	75          	.byte	0x75
 80026b3:	00          	.byte	0x00
      m->MessageType = REMOTE_NDIS_INITIALIZE_CMPLT;
 80026b4:	2102      	movs	r1, #2
 80026b6:	7019      	strb	r1, [r3, #0]
 80026b8:	f06f 017f 	mvn.w	r1, #127	; 0x7f
 80026bc:	70d9      	strb	r1, [r3, #3]
      m->MessageLength = sizeof(rndis_initialize_cmplt_t);
 80026be:	2134      	movs	r1, #52	; 0x34
      m->MessageType = REMOTE_NDIS_INITIALIZE_CMPLT;
 80026c0:	2200      	movs	r2, #0
      m->MessageLength = sizeof(rndis_initialize_cmplt_t);
 80026c2:	7119      	strb	r1, [r3, #4]
      m->MaxTransferSize = RNDIS_RX_BUFFER_SIZE;
 80026c4:	2416      	movs	r4, #22
      m->MajorVersion = RNDIS_MAJOR_VERSION;
 80026c6:	2101      	movs	r1, #1
      m->MessageType = REMOTE_NDIS_INITIALIZE_CMPLT;
 80026c8:	705a      	strb	r2, [r3, #1]
 80026ca:	709a      	strb	r2, [r3, #2]
      m->MessageLength = sizeof(rndis_initialize_cmplt_t);
 80026cc:	715a      	strb	r2, [r3, #5]
 80026ce:	719a      	strb	r2, [r3, #6]
 80026d0:	71da      	strb	r2, [r3, #7]
      m->MajorVersion = RNDIS_MAJOR_VERSION;
 80026d2:	7419      	strb	r1, [r3, #16]
 80026d4:	745a      	strb	r2, [r3, #17]
 80026d6:	749a      	strb	r2, [r3, #18]
 80026d8:	74da      	strb	r2, [r3, #19]
      m->MinorVersion = RNDIS_MINOR_VERSION;
 80026da:	751a      	strb	r2, [r3, #20]
 80026dc:	755a      	strb	r2, [r3, #21]
 80026de:	759a      	strb	r2, [r3, #22]
 80026e0:	75da      	strb	r2, [r3, #23]
      m->Status = RNDIS_STATUS_SUCCESS;
 80026e2:	731a      	strb	r2, [r3, #12]
 80026e4:	735a      	strb	r2, [r3, #13]
 80026e6:	739a      	strb	r2, [r3, #14]
 80026e8:	73da      	strb	r2, [r3, #15]
      m->DeviceFlags = RNDIS_DF_CONNECTIONLESS;
 80026ea:	7619      	strb	r1, [r3, #24]
 80026ec:	765a      	strb	r2, [r3, #25]
 80026ee:	769a      	strb	r2, [r3, #26]
 80026f0:	76da      	strb	r2, [r3, #27]
      m->Medium = RNDIS_MEDIUM_802_3;
 80026f2:	771a      	strb	r2, [r3, #28]
 80026f4:	775a      	strb	r2, [r3, #29]
 80026f6:	779a      	strb	r2, [r3, #30]
 80026f8:	77da      	strb	r2, [r3, #31]
      m->MaxPacketsPerTransfer = 1;
 80026fa:	f883 1020 	strb.w	r1, [r3, #32]
 80026fe:	f883 2021 	strb.w	r2, [r3, #33]	; 0x21
 8002702:	f883 2022 	strb.w	r2, [r3, #34]	; 0x22
 8002706:	f883 2023 	strb.w	r2, [r3, #35]	; 0x23
      m->MaxTransferSize = RNDIS_RX_BUFFER_SIZE;
 800270a:	f883 4024 	strb.w	r4, [r3, #36]	; 0x24
 800270e:	2406      	movs	r4, #6
 8002710:	f883 4025 	strb.w	r4, [r3, #37]	; 0x25
 8002714:	f883 2026 	strb.w	r2, [r3, #38]	; 0x26
 8002718:	f883 2027 	strb.w	r2, [r3, #39]	; 0x27
      m->PacketAlignmentFactor = 0;
 800271c:	f883 2028 	strb.w	r2, [r3, #40]	; 0x28
 8002720:	f883 2029 	strb.w	r2, [r3, #41]	; 0x29
 8002724:	f883 202a 	strb.w	r2, [r3, #42]	; 0x2a
 8002728:	f883 202b 	strb.w	r2, [r3, #43]	; 0x2b
      m->AfListOffset = 0;
 800272c:	f883 202c 	strb.w	r2, [r3, #44]	; 0x2c
 8002730:	f883 202d 	strb.w	r2, [r3, #45]	; 0x2d
 8002734:	f883 202e 	strb.w	r2, [r3, #46]	; 0x2e
 8002738:	f883 202f 	strb.w	r2, [r3, #47]	; 0x2f
      m->AfListSize = 0;
 800273c:	f883 2030 	strb.w	r2, [r3, #48]	; 0x30
 8002740:	f883 2031 	strb.w	r2, [r3, #49]	; 0x31
 8002744:	f883 2032 	strb.w	r2, [r3, #50]	; 0x32
 8002748:	f883 2033 	strb.w	r2, [r3, #51]	; 0x33
      rndis_state = rndis_initialized;
 800274c:	4b1a      	ldr	r3, [pc, #104]	; (80027b8 <usbd_rndis_ep0_recv+0x11c>)
 800274e:	7019      	strb	r1, [r3, #0]
    response_available(pdev);
 8002750:	f7ff fe4a 	bl	80023e8 <response_available>
    break;
 8002754:	e001      	b.n	800275a <usbd_rndis_ep0_recv+0xbe>
    rndis_query(pdev);
 8002756:	f7ff fe95 	bl	8002484 <rndis_query>
}
 800275a:	2000      	movs	r0, #0
 800275c:	bd10      	pop	{r4, pc}
    rndis_handle_set_msg(pdev);
 800275e:	f7ff ff49 	bl	80025f4 <rndis_handle_set_msg>
    break;
 8002762:	e7fa      	b.n	800275a <usbd_rndis_ep0_recv+0xbe>
      rndis_state = rndis_uninitialized;
 8002764:	4914      	ldr	r1, [pc, #80]	; (80027b8 <usbd_rndis_ep0_recv+0x11c>)
 8002766:	2200      	movs	r2, #0
 8002768:	700a      	strb	r2, [r1, #0]
      m->MessageType = REMOTE_NDIS_RESET_CMPLT;
 800276a:	2106      	movs	r1, #6
 800276c:	7019      	strb	r1, [r3, #0]
 800276e:	f06f 017f 	mvn.w	r1, #127	; 0x7f
 8002772:	70d9      	strb	r1, [r3, #3]
      m->MessageLength = sizeof(rndis_reset_cmplt_t);
 8002774:	2110      	movs	r1, #16
 8002776:	7119      	strb	r1, [r3, #4]
      m->AddressingReset = 1; /* Make it look like we did something */
 8002778:	2101      	movs	r1, #1
      m->MessageType = REMOTE_NDIS_RESET_CMPLT;
 800277a:	705a      	strb	r2, [r3, #1]
 800277c:	709a      	strb	r2, [r3, #2]
      m->MessageLength = sizeof(rndis_reset_cmplt_t);
 800277e:	715a      	strb	r2, [r3, #5]
 8002780:	719a      	strb	r2, [r3, #6]
 8002782:	71da      	strb	r2, [r3, #7]
      m->Status = RNDIS_STATUS_SUCCESS;
 8002784:	721a      	strb	r2, [r3, #8]
 8002786:	725a      	strb	r2, [r3, #9]
 8002788:	729a      	strb	r2, [r3, #10]
 800278a:	72da      	strb	r2, [r3, #11]
      m->AddressingReset = 1; /* Make it look like we did something */
 800278c:	7319      	strb	r1, [r3, #12]
      m->Status = RNDIS_STATUS_SUCCESS;
 800278e:	735a      	strb	r2, [r3, #13]
 8002790:	739a      	strb	r2, [r3, #14]
 8002792:	73da      	strb	r2, [r3, #15]
 8002794:	e7dc      	b.n	8002750 <usbd_rndis_ep0_recv+0xb4>
      m->MessageType = REMOTE_NDIS_KEEPALIVE_CMPLT;
 8002796:	2108      	movs	r1, #8
 8002798:	7019      	strb	r1, [r3, #0]
 800279a:	f06f 017f 	mvn.w	r1, #127	; 0x7f
 800279e:	2200      	movs	r2, #0
 80027a0:	70d9      	strb	r1, [r3, #3]
      m->MessageLength = sizeof(rndis_keepalive_cmplt_t);
 80027a2:	2110      	movs	r1, #16
      m->MessageType = REMOTE_NDIS_KEEPALIVE_CMPLT;
 80027a4:	705a      	strb	r2, [r3, #1]
 80027a6:	709a      	strb	r2, [r3, #2]
      m->MessageLength = sizeof(rndis_keepalive_cmplt_t);
 80027a8:	7119      	strb	r1, [r3, #4]
 80027aa:	715a      	strb	r2, [r3, #5]
 80027ac:	719a      	strb	r2, [r3, #6]
 80027ae:	71da      	strb	r2, [r3, #7]
      m->Status = RNDIS_STATUS_SUCCESS;
 80027b0:	731a      	strb	r2, [r3, #12]
 80027b2:	e7ec      	b.n	800278e <usbd_rndis_ep0_recv+0xf2>
 80027b4:	200080ca 	.word	0x200080ca
 80027b8:	200001b3 	.word	0x200001b3

080027bc <USBD_Init>:
* @param  pdesc: Descriptor structure address
* @param  id: Low level core index
* @retval None
*/
USBD_StatusTypeDef USBD_Init(USBD_HandleTypeDef *pdev, USBD_DescriptorsTypeDef *pdesc, uint8_t id)
{
 80027bc:	b508      	push	{r3, lr}
  /* Check whether the USB Host handle is valid */
  if(pdev == NULL)
 80027be:	b180      	cbz	r0, 80027e2 <USBD_Init+0x26>
    USBD_ErrLog("Invalid Device handle");
    return USBD_FAIL; 
  }
  
  /* Unlink previous class*/
  if(pdev->pClass != NULL)
 80027c0:	f8d0 3214 	ldr.w	r3, [r0, #532]	; 0x214
 80027c4:	b113      	cbz	r3, 80027cc <USBD_Init+0x10>
  {
    pdev->pClass = NULL;
 80027c6:	2300      	movs	r3, #0
 80027c8:	f8c0 3214 	str.w	r3, [r0, #532]	; 0x214
  }
  
  /* Assign USBD Descriptors */
  if(pdesc != NULL)
 80027cc:	b109      	cbz	r1, 80027d2 <USBD_Init+0x16>
  {
    pdev->pDesc = pdesc;
 80027ce:	f8c0 1210 	str.w	r1, [r0, #528]	; 0x210
  }
  
  /* Set Device initial State */
  pdev->dev_state  = USBD_STATE_DEFAULT;
 80027d2:	2301      	movs	r3, #1
 80027d4:	f880 31fc 	strb.w	r3, [r0, #508]	; 0x1fc
  pdev->id = id;
 80027d8:	7002      	strb	r2, [r0, #0]
  /* Initialize low level driver */
  USBD_LL_Init(pdev);
 80027da:	f7ff fbc5 	bl	8001f68 <USBD_LL_Init>
  
  return USBD_OK; 
 80027de:	2000      	movs	r0, #0
 80027e0:	bd08      	pop	{r3, pc}
    return USBD_FAIL; 
 80027e2:	2002      	movs	r0, #2
}
 80027e4:	bd08      	pop	{r3, pc}

080027e6 <USBD_RegisterClass>:
  * @retval USBD Status
  */
USBD_StatusTypeDef  USBD_RegisterClass(USBD_HandleTypeDef *pdev, USBD_ClassTypeDef *pclass)
{
  USBD_StatusTypeDef   status = USBD_OK;
  if(pclass != 0)
 80027e6:	b119      	cbz	r1, 80027f0 <USBD_RegisterClass+0xa>
  {
    /* link the class to the USB Device handle */
    pdev->pClass = pclass;
 80027e8:	f8c0 1214 	str.w	r1, [r0, #532]	; 0x214
    status = USBD_OK;
 80027ec:	2000      	movs	r0, #0
 80027ee:	4770      	bx	lr
  }
  else
  {
    USBD_ErrLog("Invalid Class handle");
    status = USBD_FAIL; 
 80027f0:	2002      	movs	r0, #2
  }
  
  return status;
}
 80027f2:	4770      	bx	lr

080027f4 <USBD_Start>:
  *         Start the USB Device Core.
  * @param  pdev: Device Handle
  * @retval USBD Status
  */
USBD_StatusTypeDef  USBD_Start  (USBD_HandleTypeDef *pdev)
{
 80027f4:	b508      	push	{r3, lr}
  
  /* Start the low level driver  */
  USBD_LL_Start(pdev); 
 80027f6:	f7ff fbe5 	bl	8001fc4 <USBD_LL_Start>
  
  return USBD_OK;  
}
 80027fa:	2000      	movs	r0, #0
 80027fc:	bd08      	pop	{r3, pc}

080027fe <USBD_SetClassConfig>:
* @param  cfgidx: configuration index
* @retval status
*/

USBD_StatusTypeDef USBD_SetClassConfig(USBD_HandleTypeDef  *pdev, uint8_t cfgidx)
{
 80027fe:	b508      	push	{r3, lr}
  USBD_StatusTypeDef   ret = USBD_FAIL;
  
  if(pdev->pClass != NULL)
 8002800:	f8d0 3214 	ldr.w	r3, [r0, #532]	; 0x214
 8002804:	b90b      	cbnz	r3, 800280a <USBD_SetClassConfig+0xc>
  USBD_StatusTypeDef   ret = USBD_FAIL;
 8002806:	2002      	movs	r0, #2
 8002808:	bd08      	pop	{r3, pc}
  {
    /* Set configuration  and Start the Class*/
    if(pdev->pClass->Init(pdev, cfgidx) == 0)
 800280a:	681b      	ldr	r3, [r3, #0]
 800280c:	4798      	blx	r3
 800280e:	2800      	cmp	r0, #0
 8002810:	d1f9      	bne.n	8002806 <USBD_SetClassConfig+0x8>
    {
      ret = USBD_OK;
    }
  }
  return ret; 
}
 8002812:	bd08      	pop	{r3, pc}

08002814 <USBD_ClrClassConfig>:
* @param  pdev: device instance
* @param  cfgidx: configuration index
* @retval status: USBD_StatusTypeDef
*/
USBD_StatusTypeDef USBD_ClrClassConfig(USBD_HandleTypeDef  *pdev, uint8_t cfgidx)
{
 8002814:	b508      	push	{r3, lr}
  /* Clear configuration  and De-initialize the Class process*/
  pdev->pClass->DeInit(pdev, cfgidx);  
 8002816:	f8d0 3214 	ldr.w	r3, [r0, #532]	; 0x214
 800281a:	685b      	ldr	r3, [r3, #4]
 800281c:	4798      	blx	r3
  return USBD_OK;
}
 800281e:	2000      	movs	r0, #0
 8002820:	bd08      	pop	{r3, pc}

08002822 <USBD_LL_SetupStage>:
*         Handle the setup stage
* @param  pdev: device instance
* @retval status
*/
USBD_StatusTypeDef USBD_LL_SetupStage(USBD_HandleTypeDef *pdev, uint8_t *psetup)
{
 8002822:	b538      	push	{r3, r4, r5, lr}
 8002824:	4604      	mov	r4, r0

  USBD_ParseSetupRequest(&pdev->request, psetup);
 8002826:	f500 7502 	add.w	r5, r0, #520	; 0x208
 800282a:	4628      	mov	r0, r5
 800282c:	f000 fa75 	bl	8002d1a <USBD_ParseSetupRequest>
  
  pdev->ep0_state = USBD_EP0_SETUP;
 8002830:	2301      	movs	r3, #1
  pdev->ep0_data_len = pdev->request.wLength;
  
  switch (pdev->request.bmRequest & 0x1F) 
 8002832:	f894 1208 	ldrb.w	r1, [r4, #520]	; 0x208
  pdev->ep0_state = USBD_EP0_SETUP;
 8002836:	f8c4 31f4 	str.w	r3, [r4, #500]	; 0x1f4
  pdev->ep0_data_len = pdev->request.wLength;
 800283a:	f8b4 320e 	ldrh.w	r3, [r4, #526]	; 0x20e
 800283e:	f8c4 31f8 	str.w	r3, [r4, #504]	; 0x1f8
  switch (pdev->request.bmRequest & 0x1F) 
 8002842:	f001 031f 	and.w	r3, r1, #31
 8002846:	2b01      	cmp	r3, #1
 8002848:	d00e      	beq.n	8002868 <USBD_LL_SetupStage+0x46>
 800284a:	d307      	bcc.n	800285c <USBD_LL_SetupStage+0x3a>
 800284c:	2b02      	cmp	r3, #2
 800284e:	d010      	beq.n	8002872 <USBD_LL_SetupStage+0x50>
  case USB_REQ_RECIPIENT_ENDPOINT:        
    USBD_StdEPReq(pdev, &pdev->request);   
    break;
    
  default:           
    USBD_LL_StallEP(pdev , pdev->request.bmRequest & 0x80);
 8002850:	f001 0180 	and.w	r1, r1, #128	; 0x80
 8002854:	4620      	mov	r0, r4
 8002856:	f7ff fbcd 	bl	8001ff4 <USBD_LL_StallEP>
    break;
 800285a:	e003      	b.n	8002864 <USBD_LL_SetupStage+0x42>
    USBD_StdDevReq (pdev, &pdev->request);
 800285c:	4629      	mov	r1, r5
 800285e:	4620      	mov	r0, r4
 8002860:	f000 f8e6 	bl	8002a30 <USBD_StdDevReq>
  }  
  return USBD_OK;  
}
 8002864:	2000      	movs	r0, #0
 8002866:	bd38      	pop	{r3, r4, r5, pc}
    USBD_StdItfReq(pdev, &pdev->request);
 8002868:	4629      	mov	r1, r5
 800286a:	4620      	mov	r0, r4
 800286c:	f000 f9da 	bl	8002c24 <USBD_StdItfReq>
    break;
 8002870:	e7f8      	b.n	8002864 <USBD_LL_SetupStage+0x42>
    USBD_StdEPReq(pdev, &pdev->request);   
 8002872:	4629      	mov	r1, r5
 8002874:	4620      	mov	r0, r4
 8002876:	f000 f9ed 	bl	8002c54 <USBD_StdEPReq>
    break;
 800287a:	e7f3      	b.n	8002864 <USBD_LL_SetupStage+0x42>

0800287c <USBD_LL_DataOutStage>:
* @param  pdev: device instance
* @param  epnum: endpoint index
* @retval status
*/
USBD_StatusTypeDef USBD_LL_DataOutStage(USBD_HandleTypeDef *pdev , uint8_t epnum, uint8_t *pdata)
{
 800287c:	b538      	push	{r3, r4, r5, lr}
 800287e:	4604      	mov	r4, r0
 8002880:	4615      	mov	r5, r2
  USBD_EndpointTypeDef    *pep;
  
  if(epnum == 0) 
 8002882:	bb11      	cbnz	r1, 80028ca <USBD_LL_DataOutStage+0x4e>
  {
    pep = &pdev->ep_out[0];
    
    if ( pdev->ep0_state == USBD_EP0_DATA_OUT)
 8002884:	f8d0 31f4 	ldr.w	r3, [r0, #500]	; 0x1f4
 8002888:	2b03      	cmp	r3, #3
 800288a:	d10f      	bne.n	80028ac <USBD_LL_DataOutStage+0x30>
    {
      if(pep->rem_length > pep->maxpacket)
 800288c:	f8d0 310c 	ldr.w	r3, [r0, #268]	; 0x10c
 8002890:	f8d0 2110 	ldr.w	r2, [r0, #272]	; 0x110
 8002894:	4293      	cmp	r3, r2
 8002896:	d90b      	bls.n	80028b0 <USBD_LL_DataOutStage+0x34>
      {
        pep->rem_length -=  pep->maxpacket;
 8002898:	1a9b      	subs	r3, r3, r2
       
        USBD_CtlContinueRx (pdev, 
                            pdata,
                            MIN(pep->rem_length ,pep->maxpacket));
 800289a:	429a      	cmp	r2, r3
 800289c:	bf28      	it	cs
 800289e:	461a      	movcs	r2, r3
        pep->rem_length -=  pep->maxpacket;
 80028a0:	f8c0 310c 	str.w	r3, [r0, #268]	; 0x10c
        USBD_CtlContinueRx (pdev, 
 80028a4:	b292      	uxth	r2, r2
 80028a6:	4629      	mov	r1, r5
 80028a8:	f000 fa8b 	bl	8002dc2 <USBD_CtlContinueRx>
          (pdev->dev_state == USBD_STATE_CONFIGURED))
  {
    pdev->pClass->DataOut(pdev, epnum); 
  }  
  return USBD_OK;
}
 80028ac:	2000      	movs	r0, #0
 80028ae:	bd38      	pop	{r3, r4, r5, pc}
        if((pdev->pClass->EP0_RxReady != NULL)&&
 80028b0:	f8d0 3214 	ldr.w	r3, [r0, #532]	; 0x214
 80028b4:	691b      	ldr	r3, [r3, #16]
 80028b6:	b123      	cbz	r3, 80028c2 <USBD_LL_DataOutStage+0x46>
 80028b8:	f890 21fc 	ldrb.w	r2, [r0, #508]	; 0x1fc
 80028bc:	2a03      	cmp	r2, #3
 80028be:	d100      	bne.n	80028c2 <USBD_LL_DataOutStage+0x46>
          pdev->pClass->EP0_RxReady(pdev); 
 80028c0:	4798      	blx	r3
        USBD_CtlSendStatus(pdev);
 80028c2:	4620      	mov	r0, r4
 80028c4:	f000 fa85 	bl	8002dd2 <USBD_CtlSendStatus>
 80028c8:	e7f0      	b.n	80028ac <USBD_LL_DataOutStage+0x30>
  else if((pdev->pClass->DataOut != NULL)&&
 80028ca:	f8d0 3214 	ldr.w	r3, [r0, #532]	; 0x214
 80028ce:	699b      	ldr	r3, [r3, #24]
 80028d0:	2b00      	cmp	r3, #0
 80028d2:	d0eb      	beq.n	80028ac <USBD_LL_DataOutStage+0x30>
 80028d4:	f890 21fc 	ldrb.w	r2, [r0, #508]	; 0x1fc
 80028d8:	2a03      	cmp	r2, #3
 80028da:	d1e7      	bne.n	80028ac <USBD_LL_DataOutStage+0x30>
    pdev->pClass->DataOut(pdev, epnum); 
 80028dc:	4798      	blx	r3
 80028de:	e7e5      	b.n	80028ac <USBD_LL_DataOutStage+0x30>

080028e0 <USBD_LL_DataInStage>:
* @param  pdev: device instance
* @param  epnum: endpoint index
* @retval status
*/
USBD_StatusTypeDef USBD_LL_DataInStage(USBD_HandleTypeDef *pdev ,uint8_t epnum, uint8_t *pdata)
{
 80028e0:	b570      	push	{r4, r5, r6, lr}
 80028e2:	4613      	mov	r3, r2
 80028e4:	4604      	mov	r4, r0
  USBD_EndpointTypeDef    *pep;
    
  if(epnum == 0) 
 80028e6:	460e      	mov	r6, r1
 80028e8:	2900      	cmp	r1, #0
 80028ea:	d13d      	bne.n	8002968 <USBD_LL_DataInStage+0x88>
  {
    pep = &pdev->ep_in[0];
    
    if ( pdev->ep0_state == USBD_EP0_DATA_IN)
 80028ec:	f8d0 21f4 	ldr.w	r2, [r0, #500]	; 0x1f4
 80028f0:	2a02      	cmp	r2, #2
 80028f2:	d10f      	bne.n	8002914 <USBD_LL_DataInStage+0x34>
    {
      if(pep->rem_length > pep->maxpacket)
 80028f4:	69c5      	ldr	r5, [r0, #28]
 80028f6:	6a02      	ldr	r2, [r0, #32]
 80028f8:	4295      	cmp	r5, r2
 80028fa:	d914      	bls.n	8002926 <USBD_LL_DataInStage+0x46>
      {
        pep->rem_length -=  pep->maxpacket;
 80028fc:	1aaa      	subs	r2, r5, r2
 80028fe:	61c2      	str	r2, [r0, #28]
        
        USBD_CtlContinueSendData (pdev, 
 8002900:	4619      	mov	r1, r3
 8002902:	b292      	uxth	r2, r2
 8002904:	f000 fa46 	bl	8002d94 <USBD_CtlContinueSendData>
                                  pdata, 
                                  pep->rem_length);
        
        /* Prepare endpoint for premature end of transfer */
        USBD_LL_PrepareReceive (pdev,
 8002908:	4633      	mov	r3, r6
          
          USBD_CtlContinueSendData(pdev , NULL, 0);
          pdev->ep0_data_len = 0;
          
        /* Prepare endpoint for premature end of transfer */
        USBD_LL_PrepareReceive (pdev,
 800290a:	461a      	mov	r2, r3
 800290c:	4619      	mov	r1, r3
 800290e:	4620      	mov	r0, r4
 8002910:	f7ff fb9f 	bl	8002052 <USBD_LL_PrepareReceive>
          }          
          USBD_CtlReceiveStatus(pdev);
        }
      }
    }
    if (pdev->dev_test_mode == 1)
 8002914:	f894 3200 	ldrb.w	r3, [r4, #512]	; 0x200
 8002918:	2b01      	cmp	r3, #1
 800291a:	d102      	bne.n	8002922 <USBD_LL_DataInStage+0x42>
    {
      USBD_RunTestMode(pdev); 
      pdev->dev_test_mode = 0;
 800291c:	2300      	movs	r3, #0
 800291e:	f884 3200 	strb.w	r3, [r4, #512]	; 0x200
          (pdev->dev_state == USBD_STATE_CONFIGURED))
  {
    pdev->pClass->DataIn(pdev, epnum); 
  }  
  return USBD_OK;
}
 8002922:	2000      	movs	r0, #0
 8002924:	bd70      	pop	{r4, r5, r6, pc}
        if((pep->total_length % pep->maxpacket == 0) &&
 8002926:	6983      	ldr	r3, [r0, #24]
 8002928:	fbb3 f5f2 	udiv	r5, r3, r2
 800292c:	fb02 3515 	mls	r5, r2, r5, r3
 8002930:	b965      	cbnz	r5, 800294c <USBD_LL_DataInStage+0x6c>
 8002932:	429a      	cmp	r2, r3
 8002934:	d80a      	bhi.n	800294c <USBD_LL_DataInStage+0x6c>
           (pep->total_length >= pep->maxpacket) &&
 8002936:	f8d0 21f8 	ldr.w	r2, [r0, #504]	; 0x1f8
 800293a:	4293      	cmp	r3, r2
 800293c:	d206      	bcs.n	800294c <USBD_LL_DataInStage+0x6c>
          USBD_CtlContinueSendData(pdev , NULL, 0);
 800293e:	462a      	mov	r2, r5
 8002940:	f000 fa28 	bl	8002d94 <USBD_CtlContinueSendData>
          pdev->ep0_data_len = 0;
 8002944:	f8c4 51f8 	str.w	r5, [r4, #504]	; 0x1f8
        USBD_LL_PrepareReceive (pdev,
 8002948:	462b      	mov	r3, r5
 800294a:	e7de      	b.n	800290a <USBD_LL_DataInStage+0x2a>
          if((pdev->pClass->EP0_TxSent != NULL)&&
 800294c:	f8d4 3214 	ldr.w	r3, [r4, #532]	; 0x214
 8002950:	68db      	ldr	r3, [r3, #12]
 8002952:	b12b      	cbz	r3, 8002960 <USBD_LL_DataInStage+0x80>
 8002954:	f894 21fc 	ldrb.w	r2, [r4, #508]	; 0x1fc
 8002958:	2a03      	cmp	r2, #3
 800295a:	d101      	bne.n	8002960 <USBD_LL_DataInStage+0x80>
            pdev->pClass->EP0_TxSent(pdev); 
 800295c:	4620      	mov	r0, r4
 800295e:	4798      	blx	r3
          USBD_CtlReceiveStatus(pdev);
 8002960:	4620      	mov	r0, r4
 8002962:	f000 fa41 	bl	8002de8 <USBD_CtlReceiveStatus>
 8002966:	e7d5      	b.n	8002914 <USBD_LL_DataInStage+0x34>
  else if((pdev->pClass->DataIn != NULL)&& 
 8002968:	f8d0 3214 	ldr.w	r3, [r0, #532]	; 0x214
 800296c:	695b      	ldr	r3, [r3, #20]
 800296e:	2b00      	cmp	r3, #0
 8002970:	d0d7      	beq.n	8002922 <USBD_LL_DataInStage+0x42>
 8002972:	f890 21fc 	ldrb.w	r2, [r0, #508]	; 0x1fc
 8002976:	2a03      	cmp	r2, #3
 8002978:	d1d3      	bne.n	8002922 <USBD_LL_DataInStage+0x42>
    pdev->pClass->DataIn(pdev, epnum); 
 800297a:	4798      	blx	r3
 800297c:	e7d1      	b.n	8002922 <USBD_LL_DataInStage+0x42>

0800297e <USBD_LL_Reset>:
* @param  pdev: device instance
* @retval status
*/

USBD_StatusTypeDef USBD_LL_Reset(USBD_HandleTypeDef  *pdev)
{
 800297e:	b538      	push	{r3, r4, r5, lr}
  /* Open EP0 OUT */
  USBD_LL_OpenEP(pdev,
 8002980:	2200      	movs	r2, #0
{
 8002982:	4604      	mov	r4, r0
  USBD_LL_OpenEP(pdev,
 8002984:	4611      	mov	r1, r2
              0x00,
              USBD_EP_TYPE_CTRL,
              USB_MAX_EP0_SIZE);
  
  pdev->ep_out[0].maxpacket = USB_MAX_EP0_SIZE;
 8002986:	2540      	movs	r5, #64	; 0x40
  USBD_LL_OpenEP(pdev,
 8002988:	2340      	movs	r3, #64	; 0x40
 800298a:	f7ff fb22 	bl	8001fd2 <USBD_LL_OpenEP>
  
  /* Open EP0 IN */
  USBD_LL_OpenEP(pdev,
 800298e:	462b      	mov	r3, r5
  pdev->ep_out[0].maxpacket = USB_MAX_EP0_SIZE;
 8002990:	f8c4 5110 	str.w	r5, [r4, #272]	; 0x110
  USBD_LL_OpenEP(pdev,
 8002994:	2200      	movs	r2, #0
 8002996:	2180      	movs	r1, #128	; 0x80
 8002998:	4620      	mov	r0, r4
 800299a:	f7ff fb1a 	bl	8001fd2 <USBD_LL_OpenEP>
              USBD_EP_TYPE_CTRL,
              USB_MAX_EP0_SIZE);
  
  pdev->ep_in[0].maxpacket = USB_MAX_EP0_SIZE;
  /* Upon Reset call user call back */
  pdev->dev_state = USBD_STATE_DEFAULT;
 800299e:	2301      	movs	r3, #1
 80029a0:	f884 31fc 	strb.w	r3, [r4, #508]	; 0x1fc
  
  if (pdev->pClassData) 
 80029a4:	f8d4 3218 	ldr.w	r3, [r4, #536]	; 0x218
  pdev->ep_in[0].maxpacket = USB_MAX_EP0_SIZE;
 80029a8:	6225      	str	r5, [r4, #32]
  if (pdev->pClassData) 
 80029aa:	b12b      	cbz	r3, 80029b8 <USBD_LL_Reset+0x3a>
    pdev->pClass->DeInit(pdev, pdev->dev_config);  
 80029ac:	f8d4 3214 	ldr.w	r3, [r4, #532]	; 0x214
 80029b0:	7921      	ldrb	r1, [r4, #4]
 80029b2:	685b      	ldr	r3, [r3, #4]
 80029b4:	4620      	mov	r0, r4
 80029b6:	4798      	blx	r3
 
  
  return USBD_OK;
}
 80029b8:	2000      	movs	r0, #0
 80029ba:	bd38      	pop	{r3, r4, r5, pc}

080029bc <USBD_LL_SetSpeed>:
* @param  pdev: device instance
* @retval status
*/
USBD_StatusTypeDef USBD_LL_SetSpeed(USBD_HandleTypeDef  *pdev, USBD_SpeedTypeDef speed)
{
  pdev->dev_speed = speed;
 80029bc:	7401      	strb	r1, [r0, #16]
  return USBD_OK;
}
 80029be:	2000      	movs	r0, #0
 80029c0:	4770      	bx	lr

080029c2 <USBD_LL_Suspend>:
* @retval status
*/

USBD_StatusTypeDef USBD_LL_Suspend(USBD_HandleTypeDef  *pdev)
{
  pdev->dev_old_state =  pdev->dev_state;
 80029c2:	f890 31fc 	ldrb.w	r3, [r0, #508]	; 0x1fc
 80029c6:	f880 31fd 	strb.w	r3, [r0, #509]	; 0x1fd
  pdev->dev_state  = USBD_STATE_SUSPENDED;
 80029ca:	2304      	movs	r3, #4
 80029cc:	f880 31fc 	strb.w	r3, [r0, #508]	; 0x1fc
  return USBD_OK;
}
 80029d0:	2000      	movs	r0, #0
 80029d2:	4770      	bx	lr

080029d4 <USBD_LL_Resume>:
* @retval status
*/

USBD_StatusTypeDef USBD_LL_Resume(USBD_HandleTypeDef  *pdev)
{
  pdev->dev_state = pdev->dev_old_state;  
 80029d4:	f890 31fd 	ldrb.w	r3, [r0, #509]	; 0x1fd
 80029d8:	f880 31fc 	strb.w	r3, [r0, #508]	; 0x1fc
  return USBD_OK;
}
 80029dc:	2000      	movs	r0, #0
 80029de:	4770      	bx	lr

080029e0 <USBD_LL_SOF>:
* @param  pdev: device instance
* @retval status
*/

USBD_StatusTypeDef USBD_LL_SOF(USBD_HandleTypeDef  *pdev)
{
 80029e0:	b508      	push	{r3, lr}
  if(pdev->dev_state == USBD_STATE_CONFIGURED)
 80029e2:	f890 21fc 	ldrb.w	r2, [r0, #508]	; 0x1fc
 80029e6:	2a03      	cmp	r2, #3
 80029e8:	d104      	bne.n	80029f4 <USBD_LL_SOF+0x14>
  {
    if(pdev->pClass->SOF != NULL)
 80029ea:	f8d0 3214 	ldr.w	r3, [r0, #532]	; 0x214
 80029ee:	69db      	ldr	r3, [r3, #28]
 80029f0:	b103      	cbz	r3, 80029f4 <USBD_LL_SOF+0x14>
    {
      pdev->pClass->SOF(pdev);
 80029f2:	4798      	blx	r3
    }
  }
  return USBD_OK;
}
 80029f4:	2000      	movs	r0, #0
 80029f6:	bd08      	pop	{r3, pc}

080029f8 <USBD_LL_IsoINIncomplete>:
 80029f8:	2000      	movs	r0, #0
 80029fa:	4770      	bx	lr

080029fc <USBD_LL_IsoOUTIncomplete>:
* @retval status
*/
USBD_StatusTypeDef USBD_LL_IsoOUTIncomplete(USBD_HandleTypeDef  *pdev, uint8_t epnum)
{
  return USBD_OK;
}
 80029fc:	2000      	movs	r0, #0
 80029fe:	4770      	bx	lr

08002a00 <USBD_LL_DevConnected>:
* @retval status
*/
USBD_StatusTypeDef USBD_LL_DevConnected(USBD_HandleTypeDef  *pdev)
{
  return USBD_OK;
}
 8002a00:	2000      	movs	r0, #0
 8002a02:	4770      	bx	lr

08002a04 <USBD_LL_DevDisconnected>:
*         Handle device disconnection event
* @param  pdev: device instance
* @retval status
*/
USBD_StatusTypeDef USBD_LL_DevDisconnected(USBD_HandleTypeDef  *pdev)
{
 8002a04:	b508      	push	{r3, lr}
  /* Free Class Resources */
  pdev->dev_state = USBD_STATE_DEFAULT;
 8002a06:	2201      	movs	r2, #1
 8002a08:	f880 21fc 	strb.w	r2, [r0, #508]	; 0x1fc
  pdev->pClass->DeInit(pdev, pdev->dev_config);  
 8002a0c:	f8d0 2214 	ldr.w	r2, [r0, #532]	; 0x214
 8002a10:	7901      	ldrb	r1, [r0, #4]
 8002a12:	6852      	ldr	r2, [r2, #4]
 8002a14:	4790      	blx	r2
   
  return USBD_OK;
}
 8002a16:	2000      	movs	r0, #0
 8002a18:	bd08      	pop	{r3, pc}

08002a1a <USBD_CtlError.constprop.0>:
* @param  pdev: device instance
* @param  req: usb request
* @retval None
*/

void USBD_CtlError( USBD_HandleTypeDef *pdev ,
 8002a1a:	b510      	push	{r4, lr}
                            USBD_SetupReqTypedef *req)
{
  USBD_LL_StallEP(pdev , 0x80);
 8002a1c:	2180      	movs	r1, #128	; 0x80
void USBD_CtlError( USBD_HandleTypeDef *pdev ,
 8002a1e:	4604      	mov	r4, r0
  USBD_LL_StallEP(pdev , 0x80);
 8002a20:	f7ff fae8 	bl	8001ff4 <USBD_LL_StallEP>
  USBD_LL_StallEP(pdev , 0);
 8002a24:	4620      	mov	r0, r4
 8002a26:	2100      	movs	r1, #0
}
 8002a28:	e8bd 4010 	ldmia.w	sp!, {r4, lr}
  USBD_LL_StallEP(pdev , 0);
 8002a2c:	f7ff bae2 	b.w	8001ff4 <USBD_LL_StallEP>

08002a30 <USBD_StdDevReq>:
{
 8002a30:	b537      	push	{r0, r1, r2, r4, r5, lr}
  switch (req->bRequest) 
 8002a32:	784b      	ldrb	r3, [r1, #1]
{
 8002a34:	4604      	mov	r4, r0
 8002a36:	460d      	mov	r5, r1
  switch (req->bRequest) 
 8002a38:	2b09      	cmp	r3, #9
 8002a3a:	d879      	bhi.n	8002b30 <USBD_StdDevReq+0x100>
 8002a3c:	e8df f013 	tbh	[pc, r3, lsl #1]
 8002a40:	00e500c9 	.word	0x00e500c9
 8002a44:	00d90078 	.word	0x00d90078
 8002a48:	006d0078 	.word	0x006d0078
 8002a4c:	0078000a 	.word	0x0078000a
 8002a50:	008d00b9 	.word	0x008d00b9
  switch (req->wValue >> 8)
 8002a54:	884b      	ldrh	r3, [r1, #2]
 8002a56:	0a1a      	lsrs	r2, r3, #8
 8002a58:	3a01      	subs	r2, #1
 8002a5a:	2a06      	cmp	r2, #6
 8002a5c:	d868      	bhi.n	8002b30 <USBD_StdDevReq+0x100>
 8002a5e:	e8df f002 	tbb	[pc, r2]
 8002a62:	1c04      	.short	0x1c04
 8002a64:	49676729 	.word	0x49676729
 8002a68:	52          	.byte	0x52
 8002a69:	00          	.byte	0x00
    pbuf = pdev->pDesc->GetDeviceDescriptor(pdev->dev_speed, &len);
 8002a6a:	f8d0 3210 	ldr.w	r3, [r0, #528]	; 0x210
 8002a6e:	681b      	ldr	r3, [r3, #0]
     pbuf = pdev->pDesc->GetLangIDStrDescriptor(pdev->dev_speed, &len);        
 8002a70:	7c20      	ldrb	r0, [r4, #16]
 8002a72:	f10d 0106 	add.w	r1, sp, #6
 8002a76:	4798      	blx	r3
  if((len != 0)&& (req->wLength != 0))
 8002a78:	f8bd 2006 	ldrh.w	r2, [sp, #6]
 8002a7c:	2a00      	cmp	r2, #0
 8002a7e:	d067      	beq.n	8002b50 <USBD_StdDevReq+0x120>
 8002a80:	88eb      	ldrh	r3, [r5, #6]
 8002a82:	2b00      	cmp	r3, #0
 8002a84:	d064      	beq.n	8002b50 <USBD_StdDevReq+0x120>
    len = MIN(len , req->wLength);
 8002a86:	429a      	cmp	r2, r3
 8002a88:	bf28      	it	cs
 8002a8a:	461a      	movcs	r2, r3
 8002a8c:	f8ad 2006 	strh.w	r2, [sp, #6]
    USBD_CtlSendData (pdev, 
 8002a90:	4601      	mov	r1, r0
    USBD_CtlSendData (pdev, 
 8002a92:	4620      	mov	r0, r4
 8002a94:	f000 f971 	bl	8002d7a <USBD_CtlSendData>
 8002a98:	e05a      	b.n	8002b50 <USBD_StdDevReq+0x120>
    if(pdev->dev_speed == USBD_SPEED_HIGH )   
 8002a9a:	7c02      	ldrb	r2, [r0, #16]
 8002a9c:	f8d0 3214 	ldr.w	r3, [r0, #532]	; 0x214
 8002aa0:	b932      	cbnz	r2, 8002ab0 <USBD_StdDevReq+0x80>
      pbuf   = (uint8_t *)pdev->pClass->GetHSConfigDescriptor(&len);
 8002aa2:	6a9b      	ldr	r3, [r3, #40]	; 0x28
      pbuf   = (uint8_t *)pdev->pClass->GetFSConfigDescriptor(&len);
 8002aa4:	f10d 0006 	add.w	r0, sp, #6
 8002aa8:	4798      	blx	r3
      pbuf[1] = USB_DESC_TYPE_CONFIGURATION;
 8002aaa:	2302      	movs	r3, #2
      pbuf[1] = USB_DESC_TYPE_OTHER_SPEED_CONFIGURATION;
 8002aac:	7043      	strb	r3, [r0, #1]
 8002aae:	e7e3      	b.n	8002a78 <USBD_StdDevReq+0x48>
      pbuf   = (uint8_t *)pdev->pClass->GetFSConfigDescriptor(&len);
 8002ab0:	6adb      	ldr	r3, [r3, #44]	; 0x2c
 8002ab2:	e7f7      	b.n	8002aa4 <USBD_StdDevReq+0x74>
    switch ((uint8_t)(req->wValue))
 8002ab4:	b2db      	uxtb	r3, r3
 8002ab6:	2b05      	cmp	r3, #5
 8002ab8:	d83a      	bhi.n	8002b30 <USBD_StdDevReq+0x100>
 8002aba:	e8df f003 	tbb	[pc, r3]
 8002abe:	0703      	.short	0x0703
 8002ac0:	17130f0b 	.word	0x17130f0b
     pbuf = pdev->pDesc->GetLangIDStrDescriptor(pdev->dev_speed, &len);        
 8002ac4:	f8d0 3210 	ldr.w	r3, [r0, #528]	; 0x210
 8002ac8:	685b      	ldr	r3, [r3, #4]
 8002aca:	e7d1      	b.n	8002a70 <USBD_StdDevReq+0x40>
      pbuf = pdev->pDesc->GetManufacturerStrDescriptor(pdev->dev_speed, &len);
 8002acc:	f8d0 3210 	ldr.w	r3, [r0, #528]	; 0x210
 8002ad0:	689b      	ldr	r3, [r3, #8]
 8002ad2:	e7cd      	b.n	8002a70 <USBD_StdDevReq+0x40>
      pbuf = pdev->pDesc->GetProductStrDescriptor(pdev->dev_speed, &len);
 8002ad4:	f8d0 3210 	ldr.w	r3, [r0, #528]	; 0x210
 8002ad8:	68db      	ldr	r3, [r3, #12]
 8002ada:	e7c9      	b.n	8002a70 <USBD_StdDevReq+0x40>
      pbuf = pdev->pDesc->GetSerialStrDescriptor(pdev->dev_speed, &len);
 8002adc:	f8d0 3210 	ldr.w	r3, [r0, #528]	; 0x210
 8002ae0:	691b      	ldr	r3, [r3, #16]
 8002ae2:	e7c5      	b.n	8002a70 <USBD_StdDevReq+0x40>
      pbuf = pdev->pDesc->GetConfigurationStrDescriptor(pdev->dev_speed, &len);
 8002ae4:	f8d0 3210 	ldr.w	r3, [r0, #528]	; 0x210
 8002ae8:	695b      	ldr	r3, [r3, #20]
 8002aea:	e7c1      	b.n	8002a70 <USBD_StdDevReq+0x40>
      pbuf = pdev->pDesc->GetInterfaceStrDescriptor(pdev->dev_speed, &len);
 8002aec:	f8d0 3210 	ldr.w	r3, [r0, #528]	; 0x210
 8002af0:	699b      	ldr	r3, [r3, #24]
 8002af2:	e7bd      	b.n	8002a70 <USBD_StdDevReq+0x40>
    if(pdev->dev_speed == USBD_SPEED_HIGH  )   
 8002af4:	7c03      	ldrb	r3, [r0, #16]
 8002af6:	b9db      	cbnz	r3, 8002b30 <USBD_StdDevReq+0x100>
      pbuf   = (uint8_t *)pdev->pClass->GetDeviceQualifierDescriptor(&len);
 8002af8:	f8d0 3214 	ldr.w	r3, [r0, #532]	; 0x214
 8002afc:	f10d 0006 	add.w	r0, sp, #6
 8002b00:	6b5b      	ldr	r3, [r3, #52]	; 0x34
 8002b02:	4798      	blx	r3
 8002b04:	e7b8      	b.n	8002a78 <USBD_StdDevReq+0x48>
    if(pdev->dev_speed == USBD_SPEED_HIGH  )   
 8002b06:	7c03      	ldrb	r3, [r0, #16]
 8002b08:	b993      	cbnz	r3, 8002b30 <USBD_StdDevReq+0x100>
      pbuf   = (uint8_t *)pdev->pClass->GetOtherSpeedConfigDescriptor(&len);
 8002b0a:	f8d0 3214 	ldr.w	r3, [r0, #532]	; 0x214
 8002b0e:	f10d 0006 	add.w	r0, sp, #6
 8002b12:	6b1b      	ldr	r3, [r3, #48]	; 0x30
 8002b14:	4798      	blx	r3
      pbuf[1] = USB_DESC_TYPE_OTHER_SPEED_CONFIGURATION;
 8002b16:	2307      	movs	r3, #7
 8002b18:	e7c8      	b.n	8002aac <USBD_StdDevReq+0x7c>
  if ((req->wIndex == 0) && (req->wLength == 0)) 
 8002b1a:	888b      	ldrh	r3, [r1, #4]
 8002b1c:	b943      	cbnz	r3, 8002b30 <USBD_StdDevReq+0x100>
 8002b1e:	88cb      	ldrh	r3, [r1, #6]
 8002b20:	b933      	cbnz	r3, 8002b30 <USBD_StdDevReq+0x100>
    if (pdev->dev_state == USBD_STATE_CONFIGURED) 
 8002b22:	f890 31fc 	ldrb.w	r3, [r0, #508]	; 0x1fc
    dev_addr = (uint8_t)(req->wValue) & 0x7F;     
 8002b26:	788d      	ldrb	r5, [r1, #2]
    if (pdev->dev_state == USBD_STATE_CONFIGURED) 
 8002b28:	2b03      	cmp	r3, #3
    dev_addr = (uint8_t)(req->wValue) & 0x7F;     
 8002b2a:	f005 057f 	and.w	r5, r5, #127	; 0x7f
    if (pdev->dev_state == USBD_STATE_CONFIGURED) 
 8002b2e:	d103      	bne.n	8002b38 <USBD_StdDevReq+0x108>
    USBD_CtlError(pdev , req);
 8002b30:	4620      	mov	r0, r4
 8002b32:	f7ff ff72 	bl	8002a1a <USBD_CtlError.constprop.0>
    break;
 8002b36:	e00b      	b.n	8002b50 <USBD_StdDevReq+0x120>
      pdev->dev_address = dev_addr;
 8002b38:	f880 51fe 	strb.w	r5, [r0, #510]	; 0x1fe
      USBD_LL_SetUSBAddress(pdev, dev_addr);               
 8002b3c:	4629      	mov	r1, r5
 8002b3e:	f7ff fa7a 	bl	8002036 <USBD_LL_SetUSBAddress>
      USBD_CtlSendStatus(pdev);                         
 8002b42:	4620      	mov	r0, r4
 8002b44:	f000 f945 	bl	8002dd2 <USBD_CtlSendStatus>
      if (dev_addr != 0) 
 8002b48:	b12d      	cbz	r5, 8002b56 <USBD_StdDevReq+0x126>
        pdev->dev_state  = USBD_STATE_ADDRESSED;
 8002b4a:	2302      	movs	r3, #2
        pdev->dev_state  = USBD_STATE_DEFAULT; 
 8002b4c:	f884 31fc 	strb.w	r3, [r4, #508]	; 0x1fc
}
 8002b50:	2000      	movs	r0, #0
 8002b52:	b003      	add	sp, #12
 8002b54:	bd30      	pop	{r4, r5, pc}
        pdev->dev_state  = USBD_STATE_DEFAULT; 
 8002b56:	2301      	movs	r3, #1
 8002b58:	e7f8      	b.n	8002b4c <USBD_StdDevReq+0x11c>
  cfgidx = (uint8_t)(req->wValue);                 
 8002b5a:	7889      	ldrb	r1, [r1, #2]
 8002b5c:	4d30      	ldr	r5, [pc, #192]	; (8002c20 <USBD_StdDevReq+0x1f0>)
  if (cfgidx > USBD_MAX_NUM_CONFIGURATION ) 
 8002b5e:	2901      	cmp	r1, #1
  cfgidx = (uint8_t)(req->wValue);                 
 8002b60:	7029      	strb	r1, [r5, #0]
  if (cfgidx > USBD_MAX_NUM_CONFIGURATION ) 
 8002b62:	d8e5      	bhi.n	8002b30 <USBD_StdDevReq+0x100>
    switch (pdev->dev_state) 
 8002b64:	f890 31fc 	ldrb.w	r3, [r0, #508]	; 0x1fc
 8002b68:	2b02      	cmp	r3, #2
 8002b6a:	d00c      	beq.n	8002b86 <USBD_StdDevReq+0x156>
 8002b6c:	2b03      	cmp	r3, #3
 8002b6e:	d1df      	bne.n	8002b30 <USBD_StdDevReq+0x100>
      if (cfgidx == 0) 
 8002b70:	b9b1      	cbnz	r1, 8002ba0 <USBD_StdDevReq+0x170>
        pdev->dev_state = USBD_STATE_ADDRESSED;
 8002b72:	2302      	movs	r3, #2
 8002b74:	f880 31fc 	strb.w	r3, [r0, #508]	; 0x1fc
        pdev->dev_config = cfgidx;          
 8002b78:	6041      	str	r1, [r0, #4]
        USBD_ClrClassConfig(pdev , cfgidx);
 8002b7a:	f7ff fe4b 	bl	8002814 <USBD_ClrClassConfig>
      USBD_CtlSendStatus(pdev);
 8002b7e:	4620      	mov	r0, r4
 8002b80:	f000 f927 	bl	8002dd2 <USBD_CtlSendStatus>
 8002b84:	e7e4      	b.n	8002b50 <USBD_StdDevReq+0x120>
      if (cfgidx) 
 8002b86:	2900      	cmp	r1, #0
 8002b88:	d0f9      	beq.n	8002b7e <USBD_StdDevReq+0x14e>
        pdev->dev_config = cfgidx;
 8002b8a:	2101      	movs	r1, #1
        pdev->dev_state = USBD_STATE_CONFIGURED;
 8002b8c:	2303      	movs	r3, #3
        pdev->dev_config = cfgidx;
 8002b8e:	6041      	str	r1, [r0, #4]
        pdev->dev_state = USBD_STATE_CONFIGURED;
 8002b90:	f880 31fc 	strb.w	r3, [r0, #508]	; 0x1fc
        if(USBD_SetClassConfig(pdev , cfgidx) == USBD_FAIL)
 8002b94:	4620      	mov	r0, r4
 8002b96:	f7ff fe32 	bl	80027fe <USBD_SetClassConfig>
 8002b9a:	2802      	cmp	r0, #2
 8002b9c:	d1ef      	bne.n	8002b7e <USBD_StdDevReq+0x14e>
 8002b9e:	e7c7      	b.n	8002b30 <USBD_StdDevReq+0x100>
      else  if (cfgidx != pdev->dev_config) 
 8002ba0:	6841      	ldr	r1, [r0, #4]
 8002ba2:	2901      	cmp	r1, #1
 8002ba4:	d0eb      	beq.n	8002b7e <USBD_StdDevReq+0x14e>
        USBD_ClrClassConfig(pdev , pdev->dev_config);
 8002ba6:	b2c9      	uxtb	r1, r1
 8002ba8:	f7ff fe34 	bl	8002814 <USBD_ClrClassConfig>
        pdev->dev_config = cfgidx;
 8002bac:	7829      	ldrb	r1, [r5, #0]
 8002bae:	6061      	str	r1, [r4, #4]
 8002bb0:	e7f0      	b.n	8002b94 <USBD_StdDevReq+0x164>
  if (req->wLength != 1) 
 8002bb2:	88ca      	ldrh	r2, [r1, #6]
 8002bb4:	2a01      	cmp	r2, #1
 8002bb6:	d1bb      	bne.n	8002b30 <USBD_StdDevReq+0x100>
    switch (pdev->dev_state )  
 8002bb8:	f890 31fc 	ldrb.w	r3, [r0, #508]	; 0x1fc
 8002bbc:	2b02      	cmp	r3, #2
 8002bbe:	d003      	beq.n	8002bc8 <USBD_StdDevReq+0x198>
 8002bc0:	2b03      	cmp	r3, #3
 8002bc2:	d1b5      	bne.n	8002b30 <USBD_StdDevReq+0x100>
      USBD_CtlSendData (pdev, 
 8002bc4:	1d01      	adds	r1, r0, #4
 8002bc6:	e764      	b.n	8002a92 <USBD_StdDevReq+0x62>
      pdev->dev_default_config = 0;
 8002bc8:	4601      	mov	r1, r0
 8002bca:	2300      	movs	r3, #0
 8002bcc:	f841 3f08 	str.w	r3, [r1, #8]!
 8002bd0:	e75f      	b.n	8002a92 <USBD_StdDevReq+0x62>
  switch (pdev->dev_state) 
 8002bd2:	f890 31fc 	ldrb.w	r3, [r0, #508]	; 0x1fc
 8002bd6:	3b02      	subs	r3, #2
 8002bd8:	2b01      	cmp	r3, #1
 8002bda:	d8a9      	bhi.n	8002b30 <USBD_StdDevReq+0x100>
    pdev->dev_config_status = USB_CONFIG_SELF_POWERED;                                  
 8002bdc:	2301      	movs	r3, #1
 8002bde:	60c3      	str	r3, [r0, #12]
    if (pdev->dev_remote_wakeup) 
 8002be0:	f8d0 3204 	ldr.w	r3, [r0, #516]	; 0x204
 8002be4:	b10b      	cbz	r3, 8002bea <USBD_StdDevReq+0x1ba>
       pdev->dev_config_status |= USB_CONFIG_REMOTE_WAKEUP;                                
 8002be6:	2303      	movs	r3, #3
 8002be8:	60c3      	str	r3, [r0, #12]
    USBD_CtlSendData (pdev, 
 8002bea:	2202      	movs	r2, #2
 8002bec:	f104 010c 	add.w	r1, r4, #12
 8002bf0:	e74f      	b.n	8002a92 <USBD_StdDevReq+0x62>
  if (req->wValue == USB_FEATURE_REMOTE_WAKEUP)
 8002bf2:	884b      	ldrh	r3, [r1, #2]
 8002bf4:	2b01      	cmp	r3, #1
 8002bf6:	d1ab      	bne.n	8002b50 <USBD_StdDevReq+0x120>
      pdev->dev_remote_wakeup = 0; 
 8002bf8:	f8c4 3204 	str.w	r3, [r4, #516]	; 0x204
      pdev->pClass->Setup (pdev, req);   
 8002bfc:	f8d4 3214 	ldr.w	r3, [r4, #532]	; 0x214
 8002c00:	4629      	mov	r1, r5
 8002c02:	689b      	ldr	r3, [r3, #8]
 8002c04:	4620      	mov	r0, r4
 8002c06:	4798      	blx	r3
 8002c08:	e7b9      	b.n	8002b7e <USBD_StdDevReq+0x14e>
  switch (pdev->dev_state)
 8002c0a:	f890 31fc 	ldrb.w	r3, [r0, #508]	; 0x1fc
 8002c0e:	3b02      	subs	r3, #2
 8002c10:	2b01      	cmp	r3, #1
 8002c12:	d88d      	bhi.n	8002b30 <USBD_StdDevReq+0x100>
    if (req->wValue == USB_FEATURE_REMOTE_WAKEUP) 
 8002c14:	884b      	ldrh	r3, [r1, #2]
 8002c16:	2b01      	cmp	r3, #1
 8002c18:	d19a      	bne.n	8002b50 <USBD_StdDevReq+0x120>
      pdev->dev_remote_wakeup = 0; 
 8002c1a:	2300      	movs	r3, #0
 8002c1c:	e7ec      	b.n	8002bf8 <USBD_StdDevReq+0x1c8>
 8002c1e:	bf00      	nop
 8002c20:	200001d0 	.word	0x200001d0

08002c24 <USBD_StdItfReq>:
{
 8002c24:	b538      	push	{r3, r4, r5, lr}
  switch (pdev->dev_state) 
 8002c26:	f890 31fc 	ldrb.w	r3, [r0, #508]	; 0x1fc
 8002c2a:	2b03      	cmp	r3, #3
{
 8002c2c:	4604      	mov	r4, r0
 8002c2e:	460d      	mov	r5, r1
  switch (pdev->dev_state) 
 8002c30:	d10d      	bne.n	8002c4e <USBD_StdItfReq+0x2a>
    if (LOBYTE(req->wIndex) <= USBD_MAX_NUM_INTERFACES) 
 8002c32:	790b      	ldrb	r3, [r1, #4]
 8002c34:	2b01      	cmp	r3, #1
 8002c36:	d80a      	bhi.n	8002c4e <USBD_StdItfReq+0x2a>
      pdev->pClass->Setup (pdev, req); 
 8002c38:	f8d0 3214 	ldr.w	r3, [r0, #532]	; 0x214
 8002c3c:	689b      	ldr	r3, [r3, #8]
 8002c3e:	4798      	blx	r3
      if((req->wLength == 0)&& (ret == USBD_OK))
 8002c40:	88eb      	ldrh	r3, [r5, #6]
 8002c42:	b913      	cbnz	r3, 8002c4a <USBD_StdItfReq+0x26>
         USBD_CtlSendStatus(pdev);
 8002c44:	4620      	mov	r0, r4
 8002c46:	f000 f8c4 	bl	8002dd2 <USBD_CtlSendStatus>
}
 8002c4a:	2000      	movs	r0, #0
 8002c4c:	bd38      	pop	{r3, r4, r5, pc}
     USBD_CtlError(pdev , req);
 8002c4e:	f7ff fee4 	bl	8002a1a <USBD_CtlError.constprop.0>
    break;
 8002c52:	e7fa      	b.n	8002c4a <USBD_StdItfReq+0x26>

08002c54 <USBD_StdEPReq>:
{
 8002c54:	b570      	push	{r4, r5, r6, lr}
  if ((req->bmRequest & 0x60) == 0x20)
 8002c56:	780a      	ldrb	r2, [r1, #0]
  ep_addr  = LOBYTE(req->wIndex);   
 8002c58:	888e      	ldrh	r6, [r1, #4]
  if ((req->bmRequest & 0x60) == 0x20)
 8002c5a:	f002 0260 	and.w	r2, r2, #96	; 0x60
 8002c5e:	2a20      	cmp	r2, #32
{
 8002c60:	4604      	mov	r4, r0
 8002c62:	460d      	mov	r5, r1
  ep_addr  = LOBYTE(req->wIndex);   
 8002c64:	b2f3      	uxtb	r3, r6
  if ((req->bmRequest & 0x60) == 0x20)
 8002c66:	d105      	bne.n	8002c74 <USBD_StdEPReq+0x20>
    pdev->pClass->Setup (pdev, req);
 8002c68:	f8d0 3214 	ldr.w	r3, [r0, #532]	; 0x214
 8002c6c:	689b      	ldr	r3, [r3, #8]
 8002c6e:	4798      	blx	r3
}
 8002c70:	2000      	movs	r0, #0
 8002c72:	bd70      	pop	{r4, r5, r6, pc}
  switch (req->bRequest) 
 8002c74:	784a      	ldrb	r2, [r1, #1]
 8002c76:	2a01      	cmp	r2, #1
 8002c78:	d01c      	beq.n	8002cb4 <USBD_StdEPReq+0x60>
 8002c7a:	d32a      	bcc.n	8002cd2 <USBD_StdEPReq+0x7e>
 8002c7c:	2a03      	cmp	r2, #3
 8002c7e:	d1f7      	bne.n	8002c70 <USBD_StdEPReq+0x1c>
    switch (pdev->dev_state) 
 8002c80:	f890 21fc 	ldrb.w	r2, [r0, #508]	; 0x1fc
 8002c84:	2a02      	cmp	r2, #2
 8002c86:	d040      	beq.n	8002d0a <USBD_StdEPReq+0xb6>
 8002c88:	2a03      	cmp	r2, #3
 8002c8a:	d002      	beq.n	8002c92 <USBD_StdEPReq+0x3e>
      USBD_CtlError(pdev , req);
 8002c8c:	f7ff fec5 	bl	8002a1a <USBD_CtlError.constprop.0>
      break;
 8002c90:	e7ee      	b.n	8002c70 <USBD_StdEPReq+0x1c>
      if (req->wValue == USB_FEATURE_EP_HALT)
 8002c92:	884a      	ldrh	r2, [r1, #2]
 8002c94:	b922      	cbnz	r2, 8002ca0 <USBD_StdEPReq+0x4c>
        if ((ep_addr != 0x00) && (ep_addr != 0x80)) 
 8002c96:	065e      	lsls	r6, r3, #25
 8002c98:	d002      	beq.n	8002ca0 <USBD_StdEPReq+0x4c>
          USBD_LL_StallEP(pdev , ep_addr);
 8002c9a:	4619      	mov	r1, r3
 8002c9c:	f7ff f9aa 	bl	8001ff4 <USBD_LL_StallEP>
          pdev->pClass->Setup (pdev, req);
 8002ca0:	f8d4 3214 	ldr.w	r3, [r4, #532]	; 0x214
 8002ca4:	4629      	mov	r1, r5
 8002ca6:	689b      	ldr	r3, [r3, #8]
 8002ca8:	4620      	mov	r0, r4
 8002caa:	4798      	blx	r3
        USBD_CtlSendStatus(pdev);
 8002cac:	4620      	mov	r0, r4
 8002cae:	f000 f890 	bl	8002dd2 <USBD_CtlSendStatus>
 8002cb2:	e7dd      	b.n	8002c70 <USBD_StdEPReq+0x1c>
    switch (pdev->dev_state) 
 8002cb4:	f890 21fc 	ldrb.w	r2, [r0, #508]	; 0x1fc
 8002cb8:	2a02      	cmp	r2, #2
 8002cba:	d026      	beq.n	8002d0a <USBD_StdEPReq+0xb6>
 8002cbc:	2a03      	cmp	r2, #3
 8002cbe:	d1e5      	bne.n	8002c8c <USBD_StdEPReq+0x38>
      if (req->wValue == USB_FEATURE_EP_HALT)
 8002cc0:	884a      	ldrh	r2, [r1, #2]
 8002cc2:	2a00      	cmp	r2, #0
 8002cc4:	d1d4      	bne.n	8002c70 <USBD_StdEPReq+0x1c>
        if ((ep_addr & 0x7F) != 0x00) 
 8002cc6:	0659      	lsls	r1, r3, #25
 8002cc8:	d0f0      	beq.n	8002cac <USBD_StdEPReq+0x58>
          USBD_LL_ClearStallEP(pdev , ep_addr);
 8002cca:	4619      	mov	r1, r3
 8002ccc:	f7ff f999 	bl	8002002 <USBD_LL_ClearStallEP>
 8002cd0:	e7e6      	b.n	8002ca0 <USBD_StdEPReq+0x4c>
    switch (pdev->dev_state) 
 8002cd2:	f890 21fc 	ldrb.w	r2, [r0, #508]	; 0x1fc
 8002cd6:	2a02      	cmp	r2, #2
 8002cd8:	d017      	beq.n	8002d0a <USBD_StdEPReq+0xb6>
 8002cda:	2a03      	cmp	r2, #3
 8002cdc:	d1d6      	bne.n	8002c8c <USBD_StdEPReq+0x38>
 8002cde:	f003 057f 	and.w	r5, r3, #127	; 0x7f
      pep = ((ep_addr & 0x80) == 0x80) ? &pdev->ep_in[ep_addr & 0x7F]:\
 8002ce2:	f016 0f80 	tst.w	r6, #128	; 0x80
 8002ce6:	eb00 1505 	add.w	r5, r0, r5, lsl #4
      if(USBD_LL_IsStallEP(pdev, ep_addr))
 8002cea:	4619      	mov	r1, r3
      pep = ((ep_addr & 0x80) == 0x80) ? &pdev->ep_in[ep_addr & 0x7F]:\
 8002cec:	bf14      	ite	ne
 8002cee:	3514      	addne	r5, #20
 8002cf0:	f505 7582 	addeq.w	r5, r5, #260	; 0x104
      if(USBD_LL_IsStallEP(pdev, ep_addr))
 8002cf4:	f7ff f98c 	bl	8002010 <USBD_LL_IsStallEP>
 8002cf8:	b168      	cbz	r0, 8002d16 <USBD_StdEPReq+0xc2>
        pep->status = 0x0001;     
 8002cfa:	2301      	movs	r3, #1
 8002cfc:	602b      	str	r3, [r5, #0]
      USBD_CtlSendData (pdev,
 8002cfe:	2202      	movs	r2, #2
 8002d00:	4629      	mov	r1, r5
 8002d02:	4620      	mov	r0, r4
 8002d04:	f000 f839 	bl	8002d7a <USBD_CtlSendData>
      break;
 8002d08:	e7b2      	b.n	8002c70 <USBD_StdEPReq+0x1c>
      if ((ep_addr & 0x7F) != 0x00) 
 8002d0a:	065a      	lsls	r2, r3, #25
 8002d0c:	d0b0      	beq.n	8002c70 <USBD_StdEPReq+0x1c>
        USBD_LL_StallEP(pdev , ep_addr);
 8002d0e:	4619      	mov	r1, r3
 8002d10:	f7ff f970 	bl	8001ff4 <USBD_LL_StallEP>
 8002d14:	e7ac      	b.n	8002c70 <USBD_StdEPReq+0x1c>
        pep->status = 0x0000;  
 8002d16:	6028      	str	r0, [r5, #0]
 8002d18:	e7f1      	b.n	8002cfe <USBD_StdEPReq+0xaa>

08002d1a <USBD_ParseSetupRequest>:
  req->bmRequest     = *(uint8_t *)  (pdata);
 8002d1a:	780b      	ldrb	r3, [r1, #0]
 8002d1c:	7003      	strb	r3, [r0, #0]
  req->bRequest      = *(uint8_t *)  (pdata +  1);
 8002d1e:	784b      	ldrb	r3, [r1, #1]
 8002d20:	7043      	strb	r3, [r0, #1]
  req->wValue        = SWAPBYTE      (pdata +  2);
 8002d22:	78ca      	ldrb	r2, [r1, #3]
 8002d24:	788b      	ldrb	r3, [r1, #2]
 8002d26:	eb03 2302 	add.w	r3, r3, r2, lsl #8
 8002d2a:	8043      	strh	r3, [r0, #2]
  req->wIndex        = SWAPBYTE      (pdata +  4);
 8002d2c:	794a      	ldrb	r2, [r1, #5]
 8002d2e:	790b      	ldrb	r3, [r1, #4]
 8002d30:	eb03 2302 	add.w	r3, r3, r2, lsl #8
 8002d34:	8083      	strh	r3, [r0, #4]
  req->wLength       = SWAPBYTE      (pdata +  6);
 8002d36:	79ca      	ldrb	r2, [r1, #7]
 8002d38:	798b      	ldrb	r3, [r1, #6]
 8002d3a:	eb03 2302 	add.w	r3, r3, r2, lsl #8
 8002d3e:	80c3      	strh	r3, [r0, #6]
 8002d40:	4770      	bx	lr

08002d42 <USBD_GetString>:
  * @param  unicode : Formatted string buffer (unicode)
  * @param  len : descriptor length
  * @retval None
  */
void USBD_GetString(uint8_t *desc, uint8_t *unicode, uint16_t *len)
{
 8002d42:	b530      	push	{r4, r5, lr}
  uint8_t idx = 0;
  
  if (desc != NULL) 
 8002d44:	b188      	cbz	r0, 8002d6a <USBD_GetString+0x28>
 8002d46:	4605      	mov	r5, r0
 8002d48:	1a2b      	subs	r3, r5, r0
  */
static uint8_t USBD_GetLen(uint8_t *buf)
{
    uint8_t  len = 0;

    while (*buf != '\0') 
 8002d4a:	f815 4b01 	ldrb.w	r4, [r5], #1
 8002d4e:	b2db      	uxtb	r3, r3
 8002d50:	2c00      	cmp	r4, #0
 8002d52:	d1f9      	bne.n	8002d48 <USBD_GetString+0x6>
    *len =  USBD_GetLen(desc) * 2 + 2;    
 8002d54:	005b      	lsls	r3, r3, #1
 8002d56:	3302      	adds	r3, #2
 8002d58:	8013      	strh	r3, [r2, #0]
    unicode[idx++] = *len;
 8002d5a:	700b      	strb	r3, [r1, #0]
    unicode[idx++] =  USB_DESC_TYPE_STRING;
 8002d5c:	2303      	movs	r3, #3
 8002d5e:	704b      	strb	r3, [r1, #1]
 8002d60:	3801      	subs	r0, #1
 8002d62:	2302      	movs	r3, #2
    while (*desc != '\0') 
 8002d64:	f810 5f01 	ldrb.w	r5, [r0, #1]!
 8002d68:	b905      	cbnz	r5, 8002d6c <USBD_GetString+0x2a>
 8002d6a:	bd30      	pop	{r4, r5, pc}
      unicode[idx++] = *desc++;
 8002d6c:	1c5a      	adds	r2, r3, #1
 8002d6e:	b2d2      	uxtb	r2, r2
 8002d70:	54cd      	strb	r5, [r1, r3]
      unicode[idx++] =  0x00;
 8002d72:	3302      	adds	r3, #2
 8002d74:	b2db      	uxtb	r3, r3
 8002d76:	548c      	strb	r4, [r1, r2]
 8002d78:	e7f4      	b.n	8002d64 <USBD_GetString+0x22>

08002d7a <USBD_CtlSendData>:
* @retval status
*/
USBD_StatusTypeDef  USBD_CtlSendData (USBD_HandleTypeDef  *pdev, 
                               uint8_t *pbuf,
                               uint16_t len)
{
 8002d7a:	b510      	push	{r4, lr}
 8002d7c:	4613      	mov	r3, r2
  /* Set EP0 State */
  pdev->ep0_state          = USBD_EP0_DATA_IN;                                      
 8002d7e:	2202      	movs	r2, #2
 8002d80:	f8c0 21f4 	str.w	r2, [r0, #500]	; 0x1f4
  pdev->ep_in[0].total_length = len;
 8002d84:	6183      	str	r3, [r0, #24]
  pdev->ep_in[0].rem_length   = len;
 /* Start the transfer */
  USBD_LL_Transmit (pdev, 0x00, pbuf, len);  
 8002d86:	460a      	mov	r2, r1
  pdev->ep_in[0].rem_length   = len;
 8002d88:	61c3      	str	r3, [r0, #28]
  USBD_LL_Transmit (pdev, 0x00, pbuf, len);  
 8002d8a:	2100      	movs	r1, #0
 8002d8c:	f7ff f95a 	bl	8002044 <USBD_LL_Transmit>
  
  return USBD_OK;
}
 8002d90:	2000      	movs	r0, #0
 8002d92:	bd10      	pop	{r4, pc}

08002d94 <USBD_CtlContinueSendData>:
* @retval status
*/
USBD_StatusTypeDef  USBD_CtlContinueSendData (USBD_HandleTypeDef  *pdev, 
                                       uint8_t *pbuf,
                                       uint16_t len)
{
 8002d94:	b508      	push	{r3, lr}
 /* Start the next transfer */
  USBD_LL_Transmit (pdev, 0x00, pbuf, len);   
 8002d96:	4613      	mov	r3, r2
 8002d98:	460a      	mov	r2, r1
 8002d9a:	2100      	movs	r1, #0
 8002d9c:	f7ff f952 	bl	8002044 <USBD_LL_Transmit>
  
  return USBD_OK;
}
 8002da0:	2000      	movs	r0, #0
 8002da2:	bd08      	pop	{r3, pc}

08002da4 <USBD_CtlPrepareRx>:
* @retval status
*/
USBD_StatusTypeDef  USBD_CtlPrepareRx (USBD_HandleTypeDef  *pdev,
                                  uint8_t *pbuf,                                  
                                  uint16_t len)
{
 8002da4:	b510      	push	{r4, lr}
 8002da6:	4613      	mov	r3, r2
  /* Set EP0 State */
  pdev->ep0_state = USBD_EP0_DATA_OUT; 
 8002da8:	2203      	movs	r2, #3
 8002daa:	f8c0 21f4 	str.w	r2, [r0, #500]	; 0x1f4
  pdev->ep_out[0].total_length = len;
 8002dae:	f8c0 3108 	str.w	r3, [r0, #264]	; 0x108
  pdev->ep_out[0].rem_length   = len;
  /* Start the transfer */
  USBD_LL_PrepareReceive (pdev,
 8002db2:	460a      	mov	r2, r1
  pdev->ep_out[0].rem_length   = len;
 8002db4:	f8c0 310c 	str.w	r3, [r0, #268]	; 0x10c
  USBD_LL_PrepareReceive (pdev,
 8002db8:	2100      	movs	r1, #0
 8002dba:	f7ff f94a 	bl	8002052 <USBD_LL_PrepareReceive>
                          0,
                          pbuf,
                         len);
  
  return USBD_OK;
}
 8002dbe:	2000      	movs	r0, #0
 8002dc0:	bd10      	pop	{r4, pc}

08002dc2 <USBD_CtlContinueRx>:
* @retval status
*/
USBD_StatusTypeDef  USBD_CtlContinueRx (USBD_HandleTypeDef  *pdev, 
                                          uint8_t *pbuf,                                          
                                          uint16_t len)
{
 8002dc2:	b508      	push	{r3, lr}

  USBD_LL_PrepareReceive (pdev,
 8002dc4:	4613      	mov	r3, r2
 8002dc6:	460a      	mov	r2, r1
 8002dc8:	2100      	movs	r1, #0
 8002dca:	f7ff f942 	bl	8002052 <USBD_LL_PrepareReceive>
                          0,                     
                          pbuf,                         
                          len);
  return USBD_OK;
}
 8002dce:	2000      	movs	r0, #0
 8002dd0:	bd08      	pop	{r3, pc}

08002dd2 <USBD_CtlSendStatus>:
*         send zero lzngth packet on the ctl pipe
* @param  pdev: device instance
* @retval status
*/
USBD_StatusTypeDef  USBD_CtlSendStatus (USBD_HandleTypeDef  *pdev)
{
 8002dd2:	b508      	push	{r3, lr}

  /* Set EP0 State */
  pdev->ep0_state = USBD_EP0_STATUS_IN;
 8002dd4:	2304      	movs	r3, #4
 8002dd6:	f8c0 31f4 	str.w	r3, [r0, #500]	; 0x1f4
  
 /* Start the transfer */
  USBD_LL_Transmit (pdev, 0x00, NULL, 0);   
 8002dda:	2300      	movs	r3, #0
 8002ddc:	461a      	mov	r2, r3
 8002dde:	4619      	mov	r1, r3
 8002de0:	f7ff f930 	bl	8002044 <USBD_LL_Transmit>
  
  return USBD_OK;
}
 8002de4:	2000      	movs	r0, #0
 8002de6:	bd08      	pop	{r3, pc}

08002de8 <USBD_CtlReceiveStatus>:
*         receive zero lzngth packet on the ctl pipe
* @param  pdev: device instance
* @retval status
*/
USBD_StatusTypeDef  USBD_CtlReceiveStatus (USBD_HandleTypeDef  *pdev)
{
 8002de8:	b508      	push	{r3, lr}
  /* Set EP0 State */
  pdev->ep0_state = USBD_EP0_STATUS_OUT; 
 8002dea:	2305      	movs	r3, #5
 8002dec:	f8c0 31f4 	str.w	r3, [r0, #500]	; 0x1f4
  
 /* Start the transfer */  
  USBD_LL_PrepareReceive ( pdev,
 8002df0:	2300      	movs	r3, #0
 8002df2:	461a      	mov	r2, r3
 8002df4:	4619      	mov	r1, r3
 8002df6:	f7ff f92c 	bl	8002052 <USBD_LL_PrepareReceive>
                    0,
                    NULL,
                    0);  

  return USBD_OK;
}
 8002dfa:	2000      	movs	r0, #0
 8002dfc:	bd08      	pop	{r3, pc}
	...

08002e00 <netif_init_cb>:
}

err_t netif_init_cb(struct netif *netif)
{
  LWIP_ASSERT("netif != NULL", (netif != NULL));
  netif->mtu = ETH_MTU;
 8002e00:	f240 52dc 	movw	r2, #1500	; 0x5dc
 8002e04:	8402      	strh	r2, [r0, #32]
{
 8002e06:	4603      	mov	r3, r0
  netif->flags = NETIF_FLAG_BROADCAST | NETIF_FLAG_ETHARP | NETIF_FLAG_LINK_UP | NETIF_FLAG_UP;
 8002e08:	2233      	movs	r2, #51	; 0x33
 8002e0a:	f880 2029 	strb.w	r2, [r0, #41]	; 0x29
  netif->state = NULL;
  netif->name[0] = 'E';
 8002e0e:	2245      	movs	r2, #69	; 0x45
 8002e10:	f883 202a 	strb.w	r2, [r3, #42]	; 0x2a
  netif->name[1] = 'X';
 8002e14:	2258      	movs	r2, #88	; 0x58
 8002e16:	f883 202b 	strb.w	r2, [r3, #43]	; 0x2b
  netif->linkoutput = linkoutput_fn;
 8002e1a:	4a03      	ldr	r2, [pc, #12]	; (8002e28 <netif_init_cb+0x28>)
 8002e1c:	619a      	str	r2, [r3, #24]
  netif->state = NULL;
 8002e1e:	2000      	movs	r0, #0
  netif->output = output_fn;
 8002e20:	4a02      	ldr	r2, [pc, #8]	; (8002e2c <netif_init_cb+0x2c>)
  netif->state = NULL;
 8002e22:	61d8      	str	r0, [r3, #28]
  netif->output = output_fn;
 8002e24:	615a      	str	r2, [r3, #20]
  return ERR_OK;
}
 8002e26:	4770      	bx	lr
 8002e28:	08002e31 	.word	0x08002e31
 8002e2c:	08002e81 	.word	0x08002e81

08002e30 <linkoutput_fn>:
{
 8002e30:	b570      	push	{r4, r5, r6, lr}
 8002e32:	460c      	mov	r4, r1
 8002e34:	25c8      	movs	r5, #200	; 0xc8
    if (!rndis_tx_started()) break;
 8002e36:	f7ff fa5b 	bl	80022f0 <rndis_tx_started>
 8002e3a:	b958      	cbnz	r0, 8002e54 <linkoutput_fn+0x24>
  if (rndis_tx_started())
 8002e3c:	f7ff fa58 	bl	80022f0 <rndis_tx_started>
 8002e40:	b9c8      	cbnz	r0, 8002e76 <linkoutput_fn+0x46>
    memcpy(pbuffer + size, (char *)q->payload, q->len);
 8002e42:	4e0e      	ldr	r6, [pc, #56]	; (8002e7c <linkoutput_fn+0x4c>)
 8002e44:	4605      	mov	r5, r0
  for(q = p; q != NULL; q = q->next)                                            //TODO
 8002e46:	b964      	cbnz	r4, 8002e62 <linkoutput_fn+0x32>
  rndis_tx_start(pbuffer, size);
 8002e48:	4629      	mov	r1, r5
 8002e4a:	480c      	ldr	r0, [pc, #48]	; (8002e7c <linkoutput_fn+0x4c>)
 8002e4c:	f7ff f9e0 	bl	8002210 <rndis_tx_start>
  return ERR_OK;
 8002e50:	4620      	mov	r0, r4
 8002e52:	bd70      	pop	{r4, r5, r6, pc}
    msleep(1);
 8002e54:	f44f 707a 	mov.w	r0, #1000	; 0x3e8
 8002e58:	f000 fa29 	bl	80032ae <usleep>
  for (i = 0; i < 200; i++)
 8002e5c:	3d01      	subs	r5, #1
 8002e5e:	d1ea      	bne.n	8002e36 <linkoutput_fn+0x6>
 8002e60:	e7ec      	b.n	8002e3c <linkoutput_fn+0xc>
    memcpy(pbuffer + size, (char *)q->payload, q->len);
 8002e62:	8962      	ldrh	r2, [r4, #10]
 8002e64:	6861      	ldr	r1, [r4, #4]
 8002e66:	1970      	adds	r0, r6, r5
 8002e68:	f004 feef 	bl	8007c4a <memcpy>
    size += q->len;
 8002e6c:	8960      	ldrh	r0, [r4, #10]
  for(q = p; q != NULL; q = q->next)                                            //TODO
 8002e6e:	6824      	ldr	r4, [r4, #0]
    size += q->len;
 8002e70:	4405      	add	r5, r0
 8002e72:	b2ad      	uxth	r5, r5
 8002e74:	e7e7      	b.n	8002e46 <linkoutput_fn+0x16>
    return ERR_USE;
 8002e76:	f06f 0007 	mvn.w	r0, #7
}
 8002e7a:	bd70      	pop	{r4, r5, r6, pc}
 8002e7c:	200001d1 	.word	0x200001d1

08002e80 <output_fn>:
  return etharp_output(netif, p, ipaddr);
 8002e80:	f004 bd4a 	b.w	8007918 <etharp_output>

08002e84 <tcp_timer_proc>:

TIMER_PROC(tcp_timer, TCP_TMR_INTERVAL * 1000, 1, NULL)
{
  tcp_tmr();
 8002e84:	f002 bb28 	b.w	80054d8 <tcp_tmr>

08002e88 <dns_query_proc>:
}

bool dns_query_proc(const char *name, ip_addr_t *addr)
{
 8002e88:	b538      	push	{r3, r4, r5, lr}
 8002e8a:	460c      	mov	r4, r1
  if (strcmp(name, "run.stm") == 0 || strcmp(name, "www.run.stm") == 0)
 8002e8c:	4908      	ldr	r1, [pc, #32]	; (8002eb0 <dns_query_proc+0x28>)
{
 8002e8e:	4605      	mov	r5, r0
  if (strcmp(name, "run.stm") == 0 || strcmp(name, "www.run.stm") == 0)
 8002e90:	f7fd f9a2 	bl	80001d8 <strcmp>
 8002e94:	b120      	cbz	r0, 8002ea0 <dns_query_proc+0x18>
 8002e96:	4907      	ldr	r1, [pc, #28]	; (8002eb4 <dns_query_proc+0x2c>)
 8002e98:	4628      	mov	r0, r5
 8002e9a:	f7fd f99d 	bl	80001d8 <strcmp>
 8002e9e:	b920      	cbnz	r0, 8002eaa <dns_query_proc+0x22>
  {
    addr->addr = *(uint32_t *)ipaddr;
 8002ea0:	4b05      	ldr	r3, [pc, #20]	; (8002eb8 <dns_query_proc+0x30>)
 8002ea2:	681b      	ldr	r3, [r3, #0]
 8002ea4:	6023      	str	r3, [r4, #0]
    return true;
 8002ea6:	2001      	movs	r0, #1
 8002ea8:	bd38      	pop	{r3, r4, r5, pc}
  }
  return false;
 8002eaa:	2000      	movs	r0, #0
}
 8002eac:	bd38      	pop	{r3, r4, r5, pc}
 8002eae:	bf00      	nop
 8002eb0:	08007d48 	.word	0x08007d48
 8002eb4:	08007d44 	.word	0x08007d44
 8002eb8:	08007d50 	.word	0x08007d50

08002ebc <usb_polling>:
{
 8002ebc:	b570      	push	{r4, r5, r6, lr}
  if (!rndis_rx_data())
 8002ebe:	f7ff f99d 	bl	80021fc <rndis_rx_data>
 8002ec2:	b308      	cbz	r0, 8002f08 <usb_polling+0x4c>
  frame = pbuf_alloc(PBUF_RAW, rndis_rx_size(), PBUF_POOL);
 8002ec4:	f7ff f98e 	bl	80021e4 <rndis_rx_size>
 8002ec8:	2203      	movs	r2, #3
 8002eca:	4601      	mov	r1, r0
 8002ecc:	4610      	mov	r0, r2
 8002ece:	f001 fe1f 	bl	8004b10 <pbuf_alloc>
  if (frame == NULL)
 8002ed2:	4604      	mov	r4, r0
 8002ed4:	b1c0      	cbz	r0, 8002f08 <usb_polling+0x4c>
  memcpy(frame->payload, rndis_rx_data(), rndis_rx_size());
 8002ed6:	6845      	ldr	r5, [r0, #4]
 8002ed8:	f7ff f990 	bl	80021fc <rndis_rx_data>
 8002edc:	4606      	mov	r6, r0
 8002ede:	f7ff f981 	bl	80021e4 <rndis_rx_size>
 8002ee2:	4631      	mov	r1, r6
 8002ee4:	4602      	mov	r2, r0
 8002ee6:	4628      	mov	r0, r5
 8002ee8:	f004 feaf 	bl	8007c4a <memcpy>
  frame->len = rndis_rx_size();
 8002eec:	f7ff f97a 	bl	80021e4 <rndis_rx_size>
 8002ef0:	8160      	strh	r0, [r4, #10]
  rndis_rx_start();
 8002ef2:	f7ff f941 	bl	8002178 <rndis_rx_start>
  ethernet_input(frame, &netif_data);
 8002ef6:	4620      	mov	r0, r4
 8002ef8:	4904      	ldr	r1, [pc, #16]	; (8002f0c <usb_polling+0x50>)
 8002efa:	f004 fd8d 	bl	8007a18 <ethernet_input>
  pbuf_free(frame);
 8002efe:	4620      	mov	r0, r4
}
 8002f00:	e8bd 4070 	ldmia.w	sp!, {r4, r5, r6, lr}
  pbuf_free(frame);
 8002f04:	f001 bddd 	b.w	8004ac2 <pbuf_free>
 8002f08:	bd70      	pop	{r4, r5, r6, pc}
 8002f0a:	bf00      	nop
 8002f0c:	20008150 	.word	0x20008150

08002f10 <init_lwip>:

void init_lwip()
{
 8002f10:	b530      	push	{r4, r5, lr}
 8002f12:	b087      	sub	sp, #28
uint8_t hwaddr[6]  = HWADDR;
uint8_t netmask[4] = NETMASK;
uint8_t gateway[4] = GATEWAY;
 8002f14:	ac06      	add	r4, sp, #24
uint8_t netmask[4] = NETMASK;
 8002f16:	23ff      	movs	r3, #255	; 0xff
 8002f18:	2500      	movs	r5, #0
 8002f1a:	f88d 3010 	strb.w	r3, [sp, #16]
 8002f1e:	f88d 3011 	strb.w	r3, [sp, #17]
 8002f22:	f88d 3012 	strb.w	r3, [sp, #18]
uint8_t gateway[4] = GATEWAY;
 8002f26:	f844 5d04 	str.w	r5, [r4, #-4]!
uint8_t netmask[4] = NETMASK;
 8002f2a:	f88d 5013 	strb.w	r5, [sp, #19]

  struct netif  *netif = &netif_data;

  lwip_init();
 8002f2e:	f000 fc87 	bl	8003840 <lwip_init>
  netif->hwaddr_len = 6;
 8002f32:	4813      	ldr	r0, [pc, #76]	; (8002f80 <init_lwip+0x70>)
  memcpy(netif->hwaddr, hwaddr, 6);

  netif = netif_add(netif, PADDR(ipaddr), PADDR(netmask), PADDR(gateway), NULL, netif_init_cb, ip_input);
 8002f34:	4913      	ldr	r1, [pc, #76]	; (8002f84 <init_lwip+0x74>)
  netif->hwaddr_len = 6;
 8002f36:	2306      	movs	r3, #6
 8002f38:	f880 3022 	strb.w	r3, [r0, #34]	; 0x22
  memcpy(netif->hwaddr, hwaddr, 6);
 8002f3c:	2320      	movs	r3, #32
 8002f3e:	f880 3023 	strb.w	r3, [r0, #35]	; 0x23
 8002f42:	2389      	movs	r3, #137	; 0x89
 8002f44:	f880 3024 	strb.w	r3, [r0, #36]	; 0x24
 8002f48:	2384      	movs	r3, #132	; 0x84
 8002f4a:	f880 3025 	strb.w	r3, [r0, #37]	; 0x25
 8002f4e:	236a      	movs	r3, #106	; 0x6a
 8002f50:	f880 3026 	strb.w	r3, [r0, #38]	; 0x26
 8002f54:	2396      	movs	r3, #150	; 0x96
 8002f56:	f880 3027 	strb.w	r3, [r0, #39]	; 0x27
 8002f5a:	2334      	movs	r3, #52	; 0x34
 8002f5c:	f880 3028 	strb.w	r3, [r0, #40]	; 0x28
  netif = netif_add(netif, PADDR(ipaddr), PADDR(netmask), PADDR(gateway), NULL, netif_init_cb, ip_input);
 8002f60:	4b09      	ldr	r3, [pc, #36]	; (8002f88 <init_lwip+0x78>)
 8002f62:	9302      	str	r3, [sp, #8]
 8002f64:	4b09      	ldr	r3, [pc, #36]	; (8002f8c <init_lwip+0x7c>)
 8002f66:	9301      	str	r3, [sp, #4]
 8002f68:	aa04      	add	r2, sp, #16
 8002f6a:	4623      	mov	r3, r4
 8002f6c:	9500      	str	r5, [sp, #0]
 8002f6e:	f001 fd27 	bl	80049c0 <netif_add>
  netif_set_default(netif);
 8002f72:	f001 fd4b 	bl	8004a0c <netif_set_default>

  stmr_add(&tcp_timer);
 8002f76:	4806      	ldr	r0, [pc, #24]	; (8002f90 <init_lwip+0x80>)
 8002f78:	f000 f9ca 	bl	8003310 <stmr_add>
}
 8002f7c:	b007      	add	sp, #28
 8002f7e:	bd30      	pop	{r4, r5, pc}
 8002f80:	20008150 	.word	0x20008150
 8002f84:	08007d50 	.word	0x08007d50
 8002f88:	08003c35 	.word	0x08003c35
 8002f8c:	08002e01 	.word	0x08002e01
 8002f90:	20000124 	.word	0x20000124

08002f94 <init_netif>:

void init_netif(void)
{
  while (!netif_is_up(&netif_data));
 8002f94:	4b03      	ldr	r3, [pc, #12]	; (8002fa4 <init_netif+0x10>)
 8002f96:	f893 3029 	ldrb.w	r3, [r3, #41]	; 0x29
 8002f9a:	07db      	lsls	r3, r3, #31
 8002f9c:	d400      	bmi.n	8002fa0 <init_netif+0xc>
 8002f9e:	e7fe      	b.n	8002f9e <init_netif+0xa>
 8002fa0:	4770      	bx	lr
 8002fa2:	bf00      	nop
 8002fa4:	20008150 	.word	0x20008150

08002fa8 <init_dnserv>:
}

void init_dnserv(void)
{
 8002fa8:	b537      	push	{r0, r1, r2, r4, r5, lr}
uint8_t ipaddr[4]  = IPADDR;
 8002faa:	4b07      	ldr	r3, [pc, #28]	; (8002fc8 <init_dnserv+0x20>)
  while (dnserv_init(PADDR(ipaddr), 53, dns_query_proc) != ERR_OK) ;
 8002fac:	4d07      	ldr	r5, [pc, #28]	; (8002fcc <init_dnserv+0x24>)
uint8_t ipaddr[4]  = IPADDR;
 8002fae:	6818      	ldr	r0, [r3, #0]
 8002fb0:	ac02      	add	r4, sp, #8
 8002fb2:	f844 0d04 	str.w	r0, [r4, #-4]!
  while (dnserv_init(PADDR(ipaddr), 53, dns_query_proc) != ERR_OK) ;
 8002fb6:	462a      	mov	r2, r5
 8002fb8:	2135      	movs	r1, #53	; 0x35
 8002fba:	4620      	mov	r0, r4
 8002fbc:	f000 fc0e 	bl	80037dc <dnserv_init>
 8002fc0:	2800      	cmp	r0, #0
 8002fc2:	d1f8      	bne.n	8002fb6 <init_dnserv+0xe>
}
 8002fc4:	b003      	add	sp, #12
 8002fc6:	bd30      	pop	{r4, r5, pc}
 8002fc8:	08007c91 	.word	0x08007c91
 8002fcc:	08002e89 	.word	0x08002e89

08002fd0 <init_dhserv>:

void init_dhserv(void)
{
 8002fd0:	b510      	push	{r4, lr}
  while (dhserv_init(&dhcp_config) != ERR_OK) ;
 8002fd2:	4c03      	ldr	r4, [pc, #12]	; (8002fe0 <init_dhserv+0x10>)
 8002fd4:	4620      	mov	r0, r4
 8002fd6:	f000 fb2b 	bl	8003630 <dhserv_init>
 8002fda:	2800      	cmp	r0, #0
 8002fdc:	d1fa      	bne.n	8002fd4 <init_dhserv+0x4>
}
 8002fde:	bd10      	pop	{r4, pc}
 8002fe0:	200000d0 	.word	0x200000d0

08002fe4 <init_htserv>:

void init_htserv(void)
{
 8002fe4:	4770      	bx	lr
	...

08002fe8 <SystemClock_Config>:


/** System Clock Configuration
*/
void SystemClock_Config(void)
{
 8002fe8:	b510      	push	{r4, lr}
 8002fea:	b094      	sub	sp, #80	; 0x50
  RCC_OscInitTypeDef RCC_OscInitStruct;
  RCC_ClkInitTypeDef RCC_ClkInitStruct;

	/**Configure the main internal regulator output voltage
	*/
  __HAL_RCC_PWR_CLK_ENABLE();
 8002fec:	2400      	movs	r4, #0
 8002fee:	4b1c      	ldr	r3, [pc, #112]	; (8003060 <SystemClock_Config+0x78>)
 8002ff0:	9401      	str	r4, [sp, #4]
 8002ff2:	6c1a      	ldr	r2, [r3, #64]	; 0x40
 8002ff4:	f042 5280 	orr.w	r2, r2, #268435456	; 0x10000000
 8002ff8:	641a      	str	r2, [r3, #64]	; 0x40
 8002ffa:	6c1b      	ldr	r3, [r3, #64]	; 0x40
 8002ffc:	f003 5380 	and.w	r3, r3, #268435456	; 0x10000000
 8003000:	9301      	str	r3, [sp, #4]
 8003002:	9b01      	ldr	r3, [sp, #4]

  __HAL_PWR_VOLTAGESCALING_CONFIG(PWR_REGULATOR_VOLTAGE_SCALE1);
 8003004:	4b17      	ldr	r3, [pc, #92]	; (8003064 <SystemClock_Config+0x7c>)
 8003006:	9402      	str	r4, [sp, #8]
 8003008:	681a      	ldr	r2, [r3, #0]
 800300a:	f442 4240 	orr.w	r2, r2, #49152	; 0xc000
 800300e:	601a      	str	r2, [r3, #0]
 8003010:	681b      	ldr	r3, [r3, #0]

	/**Initializes the CPU, AHB and APB busses clocks
	*/
  RCC_OscInitStruct.OscillatorType = RCC_OSCILLATORTYPE_HSI|RCC_OSCILLATORTYPE_HSE;
  RCC_OscInitStruct.HSEState = RCC_HSE_ON;
 8003012:	f44f 3280 	mov.w	r2, #65536	; 0x10000
 8003016:	9209      	str	r2, [sp, #36]	; 0x24
  __HAL_PWR_VOLTAGESCALING_CONFIG(PWR_REGULATOR_VOLTAGE_SCALE1);
 8003018:	f403 4340 	and.w	r3, r3, #49152	; 0xc000
  RCC_OscInitStruct.HSIState = RCC_HSI_ON;
 800301c:	2201      	movs	r2, #1
  RCC_OscInitStruct.HSICalibrationValue = 16;
  RCC_OscInitStruct.PLL.PLLState = RCC_PLL_ON;
  RCC_OscInitStruct.PLL.PLLSource = RCC_PLLSOURCE_HSE;
 800301e:	f44f 0180 	mov.w	r1, #4194304	; 0x400000
  __HAL_PWR_VOLTAGESCALING_CONFIG(PWR_REGULATOR_VOLTAGE_SCALE1);
 8003022:	9302      	str	r3, [sp, #8]
  RCC_OscInitStruct.HSIState = RCC_HSI_ON;
 8003024:	920b      	str	r2, [sp, #44]	; 0x2c
  RCC_OscInitStruct.PLL.PLLSource = RCC_PLLSOURCE_HSE;
 8003026:	910f      	str	r1, [sp, #60]	; 0x3c
  RCC_OscInitStruct.HSICalibrationValue = 16;
 8003028:	2210      	movs	r2, #16
  RCC_OscInitStruct.PLL.PLLM = 4;
 800302a:	2104      	movs	r1, #4
  __HAL_PWR_VOLTAGESCALING_CONFIG(PWR_REGULATOR_VOLTAGE_SCALE1);
 800302c:	9b02      	ldr	r3, [sp, #8]
  RCC_OscInitStruct.HSICalibrationValue = 16;
 800302e:	920c      	str	r2, [sp, #48]	; 0x30
  RCC_OscInitStruct.OscillatorType = RCC_OSCILLATORTYPE_HSI|RCC_OSCILLATORTYPE_HSE;
 8003030:	2303      	movs	r3, #3
  RCC_OscInitStruct.PLL.PLLState = RCC_PLL_ON;
 8003032:	2202      	movs	r2, #2
  RCC_OscInitStruct.PLL.PLLM = 4;
 8003034:	9110      	str	r1, [sp, #64]	; 0x40
  RCC_OscInitStruct.PLL.PLLN = 72;
  RCC_OscInitStruct.PLL.PLLP = RCC_PLLP_DIV2;
  RCC_OscInitStruct.PLL.PLLQ = 3;
  if (HAL_RCC_OscConfig(&RCC_OscInitStruct) != HAL_OK)
 8003036:	a808      	add	r0, sp, #32
  RCC_OscInitStruct.PLL.PLLN = 72;
 8003038:	2148      	movs	r1, #72	; 0x48
  RCC_OscInitStruct.OscillatorType = RCC_OSCILLATORTYPE_HSI|RCC_OSCILLATORTYPE_HSE;
 800303a:	9308      	str	r3, [sp, #32]
  RCC_OscInitStruct.PLL.PLLState = RCC_PLL_ON;
 800303c:	920e      	str	r2, [sp, #56]	; 0x38
  RCC_OscInitStruct.PLL.PLLN = 72;
 800303e:	9111      	str	r1, [sp, #68]	; 0x44
  RCC_OscInitStruct.PLL.PLLP = RCC_PLLP_DIV2;
 8003040:	9212      	str	r2, [sp, #72]	; 0x48
  RCC_OscInitStruct.PLL.PLLQ = 3;
 8003042:	9313      	str	r3, [sp, #76]	; 0x4c
  if (HAL_RCC_OscConfig(&RCC_OscInitStruct) != HAL_OK)
 8003044:	f7fe f898 	bl	8001178 <HAL_RCC_OscConfig>
  {
  }

	/**Initializes the CPU, AHB and APB busses clocks
	*/
  RCC_ClkInitStruct.ClockType = RCC_CLOCKTYPE_HCLK|RCC_CLOCKTYPE_SYSCLK
 8003048:	230f      	movs	r3, #15
  RCC_ClkInitStruct.SYSCLKSource = RCC_SYSCLKSOURCE_HSI;
  RCC_ClkInitStruct.AHBCLKDivider = RCC_SYSCLK_DIV1;
  RCC_ClkInitStruct.APB1CLKDivider = RCC_HCLK_DIV1;
  RCC_ClkInitStruct.APB2CLKDivider = RCC_HCLK_DIV1;

  if (HAL_RCC_ClockConfig(&RCC_ClkInitStruct, FLASH_LATENCY_0) != HAL_OK)
 800304a:	4621      	mov	r1, r4
 800304c:	a803      	add	r0, sp, #12
  RCC_ClkInitStruct.ClockType = RCC_CLOCKTYPE_HCLK|RCC_CLOCKTYPE_SYSCLK
 800304e:	9303      	str	r3, [sp, #12]
  RCC_ClkInitStruct.SYSCLKSource = RCC_SYSCLKSOURCE_HSI;
 8003050:	9404      	str	r4, [sp, #16]
  RCC_ClkInitStruct.AHBCLKDivider = RCC_SYSCLK_DIV1;
 8003052:	9405      	str	r4, [sp, #20]
  RCC_ClkInitStruct.APB1CLKDivider = RCC_HCLK_DIV1;
 8003054:	9406      	str	r4, [sp, #24]
  RCC_ClkInitStruct.APB2CLKDivider = RCC_HCLK_DIV1;
 8003056:	9407      	str	r4, [sp, #28]
  if (HAL_RCC_ClockConfig(&RCC_ClkInitStruct, FLASH_LATENCY_0) != HAL_OK)
 8003058:	f7fe fa32 	bl	80014c0 <HAL_RCC_ClockConfig>
  {
  }
}
 800305c:	b014      	add	sp, #80	; 0x50
 800305e:	bd10      	pop	{r4, pc}
 8003060:	40023800 	.word	0x40023800
 8003064:	40007000 	.word	0x40007000

08003068 <SysTick_Init>:

void SysTick_Init(void)
{
 8003068:	b508      	push	{r3, lr}
  HAL_SYSTICK_Config(HAL_RCC_GetHCLKFreq()/1000);
 800306a:	f7fe fac3 	bl	80015f4 <HAL_RCC_GetHCLKFreq>
 800306e:	f44f 737a 	mov.w	r3, #1000	; 0x3e8
 8003072:	fbb0 f0f3 	udiv	r0, r0, r3
 8003076:	f7fd fb37 	bl	80006e8 <HAL_SYSTICK_Config>

  /**Configure the Systick
  */
  HAL_SYSTICK_CLKSourceConfig(SYSTICK_CLKSOURCE_HCLK);
 800307a:	2004      	movs	r0, #4
 800307c:	f7fd fb4a 	bl	8000714 <HAL_SYSTICK_CLKSourceConfig>

  /* SysTick_IRQn interrupt configuration */
  HAL_NVIC_SetPriority(SysTick_IRQn, 0, 0);
 8003080:	2200      	movs	r2, #0
 8003082:	4611      	mov	r1, r2
 8003084:	f04f 30ff 	mov.w	r0, #4294967295
}
 8003088:	e8bd 4008 	ldmia.w	sp!, {r3, lr}
  HAL_NVIC_SetPriority(SysTick_IRQn, 0, 0);
 800308c:	f7fd baec 	b.w	8000668 <HAL_NVIC_SetPriority>

08003090 <GPIO_Init>:
     PC12   ------> I2S3_SD
     PB6   ------> I2C1_SCL
     PB9   ------> I2C1_SDA
*/
void GPIO_Init(void)
{
 8003090:	b082      	sub	sp, #8

	/* GPIO Ports Clock Enable */
	  __HAL_RCC_GPIOH_CLK_ENABLE();
 8003092:	4b0c      	ldr	r3, [pc, #48]	; (80030c4 <GPIO_Init+0x34>)
 8003094:	2100      	movs	r1, #0
 8003096:	9100      	str	r1, [sp, #0]
 8003098:	6b1a      	ldr	r2, [r3, #48]	; 0x30
 800309a:	f042 0280 	orr.w	r2, r2, #128	; 0x80
 800309e:	631a      	str	r2, [r3, #48]	; 0x30
 80030a0:	6b1a      	ldr	r2, [r3, #48]	; 0x30
 80030a2:	f002 0280 	and.w	r2, r2, #128	; 0x80
 80030a6:	9200      	str	r2, [sp, #0]
 80030a8:	9a00      	ldr	r2, [sp, #0]
	  __HAL_RCC_GPIOA_CLK_ENABLE();
 80030aa:	9101      	str	r1, [sp, #4]
 80030ac:	6b1a      	ldr	r2, [r3, #48]	; 0x30
 80030ae:	f042 0201 	orr.w	r2, r2, #1
 80030b2:	631a      	str	r2, [r3, #48]	; 0x30
 80030b4:	6b1b      	ldr	r3, [r3, #48]	; 0x30
 80030b6:	f003 0301 	and.w	r3, r3, #1
 80030ba:	9301      	str	r3, [sp, #4]
 80030bc:	9b01      	ldr	r3, [sp, #4]

}
 80030be:	b002      	add	sp, #8
 80030c0:	4770      	bx	lr
 80030c2:	bf00      	nop
 80030c4:	40023800 	.word	0x40023800

080030c8 <init_periph>:
{
 80030c8:	b508      	push	{r3, lr}
  HAL_Init();
 80030ca:	f7fd fa83 	bl	80005d4 <HAL_Init>
  SystemClock_Config();
 80030ce:	f7ff ff8b 	bl	8002fe8 <SystemClock_Config>
  SysTick_Init();
 80030d2:	f7ff ffc9 	bl	8003068 <SysTick_Init>
  GPIO_Init();
 80030d6:	f7ff ffdb 	bl	8003090 <GPIO_Init>
  USB_DEVICE_Init();
 80030da:	f7fe fea7 	bl	8001e2c <USB_DEVICE_Init>
}
 80030de:	e8bd 4008 	ldmia.w	sp!, {r3, lr}
  time_init();
 80030e2:	f000 b883 	b.w	80031ec <time_init>

080030e6 <sys_now>:

uint32_t sys_now()
{
 80030e6:	b508      	push	{r3, lr}
  return (uint32_t)mtime();
 80030e8:	f000 f8d8 	bl	800329c <mtime>
}
 80030ec:	bd08      	pop	{r3, pc}
	...

080030f0 <main>:
/* Private function prototypes -----------------------------------------------*/
/* Private function prototypes -----------------------------------------------*/


int main(void)
{
 80030f0:	b508      	push	{r3, lr}
  init_periph();
 80030f2:	f7ff ffe9 	bl	80030c8 <init_periph>
  init_lwip();
 80030f6:	f7ff ff0b 	bl	8002f10 <init_lwip>

  //MX_FATFS_Init();
  //f_mount(&fs, SD_Path, 1);

  init_netif();
 80030fa:	f7ff ff4b 	bl	8002f94 <init_netif>
  init_dhserv();
 80030fe:	f7ff ff67 	bl	8002fd0 <init_dhserv>
  init_dnserv();
 8003102:	f7ff ff51 	bl	8002fa8 <init_dnserv>

  init_htserv();
 8003106:	f7ff ff6d 	bl	8002fe4 <init_htserv>

  while (1)
  {
    usb_polling();     // usb device polling
    stmr();            // call software timers
    cpuLoad.cnt++;     //
 800310a:	4c04      	ldr	r4, [pc, #16]	; (800311c <main+0x2c>)
    usb_polling();     // usb device polling
 800310c:	f7ff fed6 	bl	8002ebc <usb_polling>
    stmr();            // call software timers
 8003110:	f000 f8e2 	bl	80032d8 <stmr>
    cpuLoad.cnt++;     //
 8003114:	6823      	ldr	r3, [r4, #0]
 8003116:	3301      	adds	r3, #1
 8003118:	6023      	str	r3, [r4, #0]
 800311a:	e7f7      	b.n	800310c <main+0x1c>
 800311c:	20008180 	.word	0x20008180

08003120 <rndis_tx_ready_cb>:
 8003120:	4770      	bx	lr

08003122 <rndis_rx_ready_cb>:
void rndis_tx_ready_cb(void)
{
}

void rndis_rx_ready_cb(void)
{
 8003122:	4770      	bx	lr

08003124 <HAL_MspInit>:
/* USER CODE END 0 */
/**
  * Initializes the Global MSP.
  */
void HAL_MspInit(void)
{
 8003124:	b508      	push	{r3, lr}
  /* USER CODE BEGIN MspInit 0 */

  /* USER CODE END MspInit 0 */

  HAL_NVIC_SetPriorityGrouping(NVIC_PRIORITYGROUP_0);
 8003126:	2007      	movs	r0, #7
 8003128:	f7fd fa8c 	bl	8000644 <HAL_NVIC_SetPriorityGrouping>

  /* System interrupt init*/
  /* MemoryManagement_IRQn interrupt configuration */
  HAL_NVIC_SetPriority(MemoryManagement_IRQn, 0, 0);
 800312c:	2200      	movs	r2, #0
 800312e:	4611      	mov	r1, r2
 8003130:	f06f 000b 	mvn.w	r0, #11
 8003134:	f7fd fa98 	bl	8000668 <HAL_NVIC_SetPriority>
  /* BusFault_IRQn interrupt configuration */
  HAL_NVIC_SetPriority(BusFault_IRQn, 0, 0);
 8003138:	2200      	movs	r2, #0
 800313a:	4611      	mov	r1, r2
 800313c:	f06f 000a 	mvn.w	r0, #10
 8003140:	f7fd fa92 	bl	8000668 <HAL_NVIC_SetPriority>
  /* UsageFault_IRQn interrupt configuration */
  HAL_NVIC_SetPriority(UsageFault_IRQn, 0, 0);
 8003144:	2200      	movs	r2, #0
 8003146:	4611      	mov	r1, r2
 8003148:	f06f 0009 	mvn.w	r0, #9
 800314c:	f7fd fa8c 	bl	8000668 <HAL_NVIC_SetPriority>
  /* SVCall_IRQn interrupt configuration */
  HAL_NVIC_SetPriority(SVCall_IRQn, 0, 0);
 8003150:	2200      	movs	r2, #0
 8003152:	4611      	mov	r1, r2
 8003154:	f06f 0004 	mvn.w	r0, #4
 8003158:	f7fd fa86 	bl	8000668 <HAL_NVIC_SetPriority>
  /* DebugMonitor_IRQn interrupt configuration */
  HAL_NVIC_SetPriority(DebugMonitor_IRQn, 0, 0);
 800315c:	2200      	movs	r2, #0
 800315e:	4611      	mov	r1, r2
 8003160:	f06f 0003 	mvn.w	r0, #3
 8003164:	f7fd fa80 	bl	8000668 <HAL_NVIC_SetPriority>
  /* PendSV_IRQn interrupt configuration */
  HAL_NVIC_SetPriority(PendSV_IRQn, 0, 0);
 8003168:	2200      	movs	r2, #0
 800316a:	4611      	mov	r1, r2
 800316c:	f06f 0001 	mvn.w	r0, #1
 8003170:	f7fd fa7a 	bl	8000668 <HAL_NVIC_SetPriority>
  /* SysTick_IRQn interrupt configuration */
  HAL_NVIC_SetPriority(SysTick_IRQn, 0, 0);
 8003174:	2200      	movs	r2, #0
 8003176:	4611      	mov	r1, r2
 8003178:	f04f 30ff 	mov.w	r0, #4294967295

  /* USER CODE BEGIN MspInit 1 */

  /* USER CODE END MspInit 1 */
}
 800317c:	e8bd 4008 	ldmia.w	sp!, {r3, lr}
  HAL_NVIC_SetPriority(SysTick_IRQn, 0, 0);
 8003180:	f7fd ba72 	b.w	8000668 <HAL_NVIC_SetPriority>

08003184 <SysTick_Handler>:

/**
* @brief This function handles System tick timer.
*/
void SysTick_Handler(void)
{
 8003184:	b508      	push	{r3, lr}
  /* USER CODE BEGIN SysTick_IRQn 0 */

  /* USER CODE END SysTick_IRQn 0 */
  HAL_IncTick();
 8003186:	f7fd fa3f 	bl	8000608 <HAL_IncTick>
  HAL_SYSTICK_IRQHandler();
  /* USER CODE BEGIN SysTick_IRQn 1 */

  /* USER CODE END SysTick_IRQn 1 */
}
 800318a:	e8bd 4008 	ldmia.w	sp!, {r3, lr}
  HAL_SYSTICK_IRQHandler();
 800318e:	f7fd bacd 	b.w	800072c <HAL_SYSTICK_IRQHandler>
	...

08003194 <OTG_FS_IRQHandler>:
void OTG_FS_IRQHandler(void)
{
  /* USER CODE BEGIN OTG_FS_IRQn 0 */

  /* USER CODE END OTG_FS_IRQn 0 */
  HAL_PCD_IRQHandler(&hpcd_USB_FS);
 8003194:	4801      	ldr	r0, [pc, #4]	; (800319c <OTG_FS_IRQHandler+0x8>)
 8003196:	f7fd bc25 	b.w	80009e4 <HAL_PCD_IRQHandler>
 800319a:	bf00      	nop
 800319c:	200074c4 	.word	0x200074c4

080031a0 <SystemInit>:
  */
void SystemInit(void)
{
  /* FPU settings ------------------------------------------------------------*/
  #if (__FPU_PRESENT == 1) && (__FPU_USED == 1)
    SCB->CPACR |= ((3UL << 10*2)|(3UL << 11*2));  /* set CP10 and CP11 Full Access */
 80031a0:	490f      	ldr	r1, [pc, #60]	; (80031e0 <SystemInit+0x40>)
 80031a2:	f8d1 3088 	ldr.w	r3, [r1, #136]	; 0x88
 80031a6:	f443 0370 	orr.w	r3, r3, #15728640	; 0xf00000
 80031aa:	f8c1 3088 	str.w	r3, [r1, #136]	; 0x88
  #endif
  /* Reset the RCC clock configuration to the default reset state ------------*/
  /* Set HSION bit */
  RCC->CR |= (uint32_t)0x00000001;
 80031ae:	4b0d      	ldr	r3, [pc, #52]	; (80031e4 <SystemInit+0x44>)
 80031b0:	681a      	ldr	r2, [r3, #0]

  /* Reset CFGR register */
  RCC->CFGR = 0x00000000;
 80031b2:	2000      	movs	r0, #0
  RCC->CR |= (uint32_t)0x00000001;
 80031b4:	f042 0201 	orr.w	r2, r2, #1
 80031b8:	601a      	str	r2, [r3, #0]
  RCC->CFGR = 0x00000000;
 80031ba:	6098      	str	r0, [r3, #8]

  /* Reset HSEON, CSSON and PLLON bits */
  RCC->CR &= (uint32_t)0xFEF6FFFF;
 80031bc:	681a      	ldr	r2, [r3, #0]
 80031be:	f022 7284 	bic.w	r2, r2, #17301504	; 0x1080000
 80031c2:	f422 3280 	bic.w	r2, r2, #65536	; 0x10000
 80031c6:	601a      	str	r2, [r3, #0]

  /* Reset PLLCFGR register */
  RCC->PLLCFGR = 0x24003010;
 80031c8:	4a07      	ldr	r2, [pc, #28]	; (80031e8 <SystemInit+0x48>)
 80031ca:	605a      	str	r2, [r3, #4]

  /* Reset HSEBYP bit */
  RCC->CR &= (uint32_t)0xFFFBFFFF;
 80031cc:	681a      	ldr	r2, [r3, #0]
 80031ce:	f422 2280 	bic.w	r2, r2, #262144	; 0x40000
 80031d2:	601a      	str	r2, [r3, #0]

  /* Disable all interrupts */
  RCC->CIR = 0x00000000;
 80031d4:	60d8      	str	r0, [r3, #12]

  /* Configure the Vector Table location add offset address ------------------*/
#ifdef VECT_TAB_SRAM
  SCB->VTOR = SRAM_BASE | VECT_TAB_OFFSET; /* Vector Table Relocation in Internal SRAM */
#else
  SCB->VTOR = FLASH_BASE | VECT_TAB_OFFSET; /* Vector Table Relocation in Internal FLASH */
 80031d6:	f04f 6300 	mov.w	r3, #134217728	; 0x8000000
 80031da:	608b      	str	r3, [r1, #8]
 80031dc:	4770      	bx	lr
 80031de:	bf00      	nop
 80031e0:	e000ed00 	.word	0xe000ed00
 80031e4:	40023800 	.word	0x40023800
 80031e8:	24003010 	.word	0x24003010

080031ec <time_init>:
volatile uint32_t sysTimeTicks;
volatile uint32_t sysTimeDelayCounter;

void time_init(void)
{
  if (SysTick_Config(SystemCoreClock / 1000))
 80031ec:	4b0a      	ldr	r3, [pc, #40]	; (8003218 <time_init+0x2c>)
 80031ee:	f44f 727a 	mov.w	r2, #1000	; 0x3e8
 80031f2:	681b      	ldr	r3, [r3, #0]
 80031f4:	fbb3 f3f2 	udiv	r3, r3, r2
  if ((ticks - 1UL) > SysTick_LOAD_RELOAD_Msk)
 80031f8:	3b01      	subs	r3, #1
 80031fa:	f1b3 7f80 	cmp.w	r3, #16777216	; 0x1000000
 80031fe:	d20a      	bcs.n	8003216 <time_init+0x2a>
  SysTick->LOAD  = (uint32_t)(ticks - 1UL);                         /* set reload register */
 8003200:	4a06      	ldr	r2, [pc, #24]	; (800321c <time_init+0x30>)
 8003202:	6053      	str	r3, [r2, #4]
    SCB->SHP[(((uint32_t)(int32_t)IRQn) & 0xFUL)-4UL] = (uint8_t)((priority << (8U - __NVIC_PRIO_BITS)) & (uint32_t)0xFFUL);
 8003204:	4b06      	ldr	r3, [pc, #24]	; (8003220 <time_init+0x34>)
 8003206:	21f0      	movs	r1, #240	; 0xf0
 8003208:	f883 1023 	strb.w	r1, [r3, #35]	; 0x23
  SysTick->VAL   = 0UL;                                             /* Load the SysTick Counter Value */
 800320c:	2300      	movs	r3, #0
 800320e:	6093      	str	r3, [r2, #8]
  SysTick->CTRL  = SysTick_CTRL_CLKSOURCE_Msk |
 8003210:	2307      	movs	r3, #7
 8003212:	6013      	str	r3, [r2, #0]
    while (1) {} // Capture error
}
 8003214:	4770      	bx	lr
 8003216:	e7fe      	b.n	8003216 <time_init+0x2a>
 8003218:	2000013c 	.word	0x2000013c
 800321c:	e000e010 	.word	0xe000e010
 8003220:	e000ed00 	.word	0xe000ed00

08003224 <HAL_SYSTICK_Callback>:

volatile int64_t usAddition = 0;

void HAL_SYSTICK_Callback(void)
{
  usAddition += 1000;
 8003224:	4b0b      	ldr	r3, [pc, #44]	; (8003254 <HAL_SYSTICK_Callback+0x30>)
 8003226:	e9d3 0100 	ldrd	r0, r1, [r3]
 800322a:	f510 707a 	adds.w	r0, r0, #1000	; 0x3e8
 800322e:	f141 0100 	adc.w	r1, r1, #0
 8003232:	e9c3 0100 	strd	r0, r1, [r3]
  if ((usAddition & 0x03FF) == 0)
 8003236:	e9d3 2300 	ldrd	r2, r3, [r3]
 800323a:	f240 30ff 	movw	r0, #1023	; 0x3ff
 800323e:	2100      	movs	r1, #0
 8003240:	4002      	ands	r2, r0
 8003242:	400b      	ands	r3, r1
 8003244:	4313      	orrs	r3, r2
 8003246:	d104      	bne.n	8003252 <HAL_SYSTICK_Callback+0x2e>
  {
    cpuLoad.result = cpuLoad.cnt;
 8003248:	4b03      	ldr	r3, [pc, #12]	; (8003258 <HAL_SYSTICK_Callback+0x34>)
 800324a:	681a      	ldr	r2, [r3, #0]
 800324c:	605a      	str	r2, [r3, #4]
    cpuLoad.cnt = 0;
 800324e:	2200      	movs	r2, #0
 8003250:	601a      	str	r2, [r3, #0]
 8003252:	4770      	bx	lr
 8003254:	200007f0 	.word	0x200007f0
 8003258:	20008180 	.word	0x20008180

0800325c <utime>:
{
	uint32_t ctrl;
	static int64_t res;
	uint32_t ticks;

	ctrl = SysTick->CTRL;
 800325c:	4a0b      	ldr	r2, [pc, #44]	; (800328c <utime+0x30>)
{
 800325e:	b530      	push	{r4, r5, lr}
	ctrl = SysTick->CTRL;
 8003260:	6813      	ldr	r3, [r2, #0]

read:
	ticks = SysTick->VAL;
	res = usAddition;
 8003262:	4d0b      	ldr	r5, [pc, #44]	; (8003290 <utime+0x34>)
	ticks = SysTick->VAL;
 8003264:	6893      	ldr	r3, [r2, #8]
	res = usAddition;
 8003266:	e9d5 0100 	ldrd	r0, r1, [r5]
	ctrl = SysTick->CTRL;
 800326a:	6814      	ldr	r4, [r2, #0]
	if (ctrl & SysTick_CTRL_COUNTFLAG_Msk)
 800326c:	03e4      	lsls	r4, r4, #15
 800326e:	d4f9      	bmi.n	8003264 <utime+0x8>
		goto read;

	#define ticksPerUs (SystemCoreClock / 1000000)
	res += 1000 - ticks / ticksPerUs;
 8003270:	4a08      	ldr	r2, [pc, #32]	; (8003294 <utime+0x38>)
 8003272:	4c09      	ldr	r4, [pc, #36]	; (8003298 <utime+0x3c>)
 8003274:	6812      	ldr	r2, [r2, #0]
 8003276:	fbb2 f2f4 	udiv	r2, r2, r4
 800327a:	fbb3 f3f2 	udiv	r3, r3, r2
 800327e:	f5c3 737a 	rsb	r3, r3, #1000	; 0x3e8
	#undef usecPerTick

	return res;
}
 8003282:	18c0      	adds	r0, r0, r3
 8003284:	f141 0100 	adc.w	r1, r1, #0
 8003288:	bd30      	pop	{r4, r5, pc}
 800328a:	bf00      	nop
 800328c:	e000e010 	.word	0xe000e010
 8003290:	200007f0 	.word	0x200007f0
 8003294:	2000013c 	.word	0x2000013c
 8003298:	000f4240 	.word	0x000f4240

0800329c <mtime>:

int64_t mtime(void)
{
 800329c:	b508      	push	{r3, lr}
  //return HAL_GetTick();
  return utime() / 1000;
 800329e:	f7ff ffdd 	bl	800325c <utime>
 80032a2:	f44f 727a 	mov.w	r2, #1000	; 0x3e8
 80032a6:	2300      	movs	r3, #0
 80032a8:	f7fc ffa8 	bl	80001fc <__aeabi_ldivmod>
}
 80032ac:	bd08      	pop	{r3, pc}

080032ae <usleep>:

void usleep(int us)
{
 80032ae:	b5f8      	push	{r3, r4, r5, r6, r7, lr}
 80032b0:	4604      	mov	r4, r0
  uint64_t t = utime();
 80032b2:	f7ff ffd3 	bl	800325c <utime>
  while (true)
  {
    uint64_t t1 = utime();
    if (t1 - t >= us) break;
 80032b6:	17e5      	asrs	r5, r4, #31
  uint64_t t = utime();
 80032b8:	4606      	mov	r6, r0
 80032ba:	460f      	mov	r7, r1
    uint64_t t1 = utime();
 80032bc:	f7ff ffce 	bl	800325c <utime>
    if (t1 - t >= us) break;
 80032c0:	1b82      	subs	r2, r0, r6
 80032c2:	eb61 0307 	sbc.w	r3, r1, r7
 80032c6:	42ab      	cmp	r3, r5
 80032c8:	bf08      	it	eq
 80032ca:	42a2      	cmpeq	r2, r4
 80032cc:	d203      	bcs.n	80032d6 <usleep+0x28>
    if (t1 < t) break; // overflow
 80032ce:	42b9      	cmp	r1, r7
 80032d0:	bf08      	it	eq
 80032d2:	42b0      	cmpeq	r0, r6
 80032d4:	d2f2      	bcs.n	80032bc <usleep+0xe>
 80032d6:	bdf8      	pop	{r3, r4, r5, r6, r7, pc}

080032d8 <stmr>:
}

static stmr_t *stmrs = NULL;

void stmr(void)
{
 80032d8:	b570      	push	{r4, r5, r6, lr}
  stmr_t *tmr;
  uint32_t time;
  time = utime();
 80032da:	f7ff ffbf 	bl	800325c <utime>
  tmr = stmrs;
 80032de:	4b0b      	ldr	r3, [pc, #44]	; (800330c <stmr+0x34>)
 80032e0:	681c      	ldr	r4, [r3, #0]
  time = utime();
 80032e2:	4605      	mov	r5, r0
  while (tmr != NULL)
 80032e4:	b904      	cbnz	r4, 80032e8 <stmr+0x10>
    if (elapsed < t->period)
      continue;
    t->proc(t);
    t->event = utime();
  }
}
 80032e6:	bd70      	pop	{r4, r5, r6, pc}
    if ((t->flags & STMR_ACTIVE) == 0)
 80032e8:	68a3      	ldr	r3, [r4, #8]
    tmr = tmr->next;
 80032ea:	6966      	ldr	r6, [r4, #20]
    if ((t->flags & STMR_ACTIVE) == 0)
 80032ec:	07db      	lsls	r3, r3, #31
 80032ee:	d50a      	bpl.n	8003306 <stmr+0x2e>
    elapsed -= t->event;
 80032f0:	6863      	ldr	r3, [r4, #4]
    if (elapsed < t->period)
 80032f2:	6822      	ldr	r2, [r4, #0]
    elapsed -= t->event;
 80032f4:	1aeb      	subs	r3, r5, r3
    if (elapsed < t->period)
 80032f6:	4293      	cmp	r3, r2
 80032f8:	d305      	bcc.n	8003306 <stmr+0x2e>
    t->proc(t);
 80032fa:	6923      	ldr	r3, [r4, #16]
 80032fc:	4620      	mov	r0, r4
 80032fe:	4798      	blx	r3
    t->event = utime();
 8003300:	f7ff ffac 	bl	800325c <utime>
 8003304:	6060      	str	r0, [r4, #4]
{
 8003306:	4634      	mov	r4, r6
 8003308:	e7ec      	b.n	80032e4 <stmr+0xc>
 800330a:	bf00      	nop
 800330c:	200007e8 	.word	0x200007e8

08003310 <stmr_add>:
  stmrs = tmr;
}*/

void stmr_add(stmr_t *tmr)
{
  tmr->next = stmrs;
 8003310:	4b02      	ldr	r3, [pc, #8]	; (800331c <stmr_add+0xc>)
 8003312:	681a      	ldr	r2, [r3, #0]
 8003314:	6142      	str	r2, [r0, #20]
  stmrs = tmr;
 8003316:	6018      	str	r0, [r3, #0]
 8003318:	4770      	bx	lr
 800331a:	bf00      	nop
 800331c:	200007e8 	.word	0x200007e8

08003320 <entry_by_mac.constprop.0>:
		if (*(uint32_t *)config->entries[i].addr == ip)
			return &config->entries[i];
	return NULL;
}

static dhcp_entry_t *entry_by_mac(uint8_t *mac)
 8003320:	e92d 43f8 	stmdb	sp!, {r3, r4, r5, r6, r7, r8, r9, lr}
{
	int i;
	for (i = 0; i < config->num_entry; i++)
 8003324:	4b0c      	ldr	r3, [pc, #48]	; (8003358 <entry_by_mac.constprop.0+0x38>)
		if (memcmp(config->entries[i].mac, mac, 6) == 0)
 8003326:	f8df 9034 	ldr.w	r9, [pc, #52]	; 800335c <entry_by_mac.constprop.0+0x3c>
	for (i = 0; i < config->num_entry; i++)
 800332a:	681e      	ldr	r6, [r3, #0]
 800332c:	6937      	ldr	r7, [r6, #16]
 800332e:	2500      	movs	r5, #0
		if (memcmp(config->entries[i].mac, mac, 6) == 0)
 8003330:	f04f 0814 	mov.w	r8, #20
	for (i = 0; i < config->num_entry; i++)
 8003334:	42bd      	cmp	r5, r7
 8003336:	db03      	blt.n	8003340 <entry_by_mac.constprop.0+0x20>
			return &config->entries[i];
	return NULL;
 8003338:	2400      	movs	r4, #0
}
 800333a:	4620      	mov	r0, r4
 800333c:	e8bd 83f8 	ldmia.w	sp!, {r3, r4, r5, r6, r7, r8, r9, pc}
		if (memcmp(config->entries[i].mac, mac, 6) == 0)
 8003340:	6974      	ldr	r4, [r6, #20]
 8003342:	fb08 4405 	mla	r4, r8, r5, r4
 8003346:	2206      	movs	r2, #6
 8003348:	4649      	mov	r1, r9
 800334a:	4620      	mov	r0, r4
 800334c:	f004 fc6e 	bl	8007c2c <memcmp>
 8003350:	2800      	cmp	r0, #0
 8003352:	d0f2      	beq.n	800333a <entry_by_mac.constprop.0+0x1a>
	for (i = 0; i < config->num_entry; i++)
 8003354:	3501      	adds	r5, #1
 8003356:	e7ed      	b.n	8003334 <entry_by_mac.constprop.0+0x14>
 8003358:	200007f8 	.word	0x200007f8
 800335c:	200081a4 	.word	0x200081a4

08003360 <find_dhcp_option>:
{
	memset(entry->mac, 0, 6);
}

uint8_t *find_dhcp_option(uint8_t *attrs, int size, uint8_t attr)
{
 8003360:	b530      	push	{r4, r5, lr}
	int i = 0;
 8003362:	2300      	movs	r3, #0
{
 8003364:	4605      	mov	r5, r0
	while ((i + 1) < size)
 8003366:	1c58      	adds	r0, r3, #1
 8003368:	4288      	cmp	r0, r1
 800336a:	db01      	blt.n	8003370 <find_dhcp_option+0x10>
	{
		int next = i + attrs[i + 1] + 2;
		if (next > size) return NULL;
 800336c:	2000      	movs	r0, #0
 800336e:	e00a      	b.n	8003386 <find_dhcp_option+0x26>
		int next = i + attrs[i + 1] + 2;
 8003370:	461c      	mov	r4, r3
 8003372:	18eb      	adds	r3, r5, r3
 8003374:	785b      	ldrb	r3, [r3, #1]
 8003376:	4423      	add	r3, r4
 8003378:	3302      	adds	r3, #2
		if (next > size) return NULL;
 800337a:	4299      	cmp	r1, r3
 800337c:	dbf6      	blt.n	800336c <find_dhcp_option+0xc>
		if (attrs[i] == attr)
 800337e:	1928      	adds	r0, r5, r4
 8003380:	5d2c      	ldrb	r4, [r5, r4]
 8003382:	4294      	cmp	r4, r2
 8003384:	d1ef      	bne.n	8003366 <find_dhcp_option+0x6>
			return attrs + i;
		i = next;
	}
	return NULL;
}
 8003386:	bd30      	pop	{r4, r5, pc}

08003388 <fill_options>:
	uint32_t dns,
	int lease_time,
	uint32_t serverid,
	uint32_t router,
	uint32_t subnet)
{
 8003388:	e92d 43f8 	stmdb	sp!, {r3, r4, r5, r6, r7, r8, r9, lr}
 800338c:	4604      	mov	r4, r0
 800338e:	9808      	ldr	r0, [sp, #32]
	uint8_t *ptr = (uint8_t *)dest;
	// ACK message type
	*ptr++ = 53;
	*ptr++ = 1;
	*ptr++ = msg_type;
 8003390:	70a1      	strb	r1, [r4, #2]

	// dhcp server identifier
	*ptr++ = DHCP_SERVERID;
	*ptr++ = 4;
	*(uint32_t *)ptr = serverid;
 8003392:	9909      	ldr	r1, [sp, #36]	; 0x24
 8003394:	f8c4 1005 	str.w	r1, [r4, #5]
	ptr += 4;

	// lease time
	*ptr++ = DHCP_LEASETIME;
 8003398:	2133      	movs	r1, #51	; 0x33
 800339a:	7261      	strb	r1, [r4, #9]
	*ptr++ = 4;
	*ptr++ = (lease_time >> 24) & 0xFF;
 800339c:	0e01      	lsrs	r1, r0, #24
{
 800339e:	4690      	mov	r8, r2
	*ptr++ = (lease_time >> 24) & 0xFF;
 80033a0:	72e1      	strb	r1, [r4, #11]
	*ptr++ = 53;
 80033a2:	2235      	movs	r2, #53	; 0x35
	*ptr++ = (lease_time >> 16) & 0xFF;
 80033a4:	1401      	asrs	r1, r0, #16
{
 80033a6:	4699      	mov	r9, r3
	*ptr++ = 53;
 80033a8:	7022      	strb	r2, [r4, #0]
	*ptr++ = (lease_time >> 16) & 0xFF;
 80033aa:	7321      	strb	r1, [r4, #12]
	*ptr++ = DHCP_SERVERID;
 80033ac:	2236      	movs	r2, #54	; 0x36
	*ptr++ = (lease_time >> 8) & 0xFF;
 80033ae:	1201      	asrs	r1, r0, #8
{
 80033b0:	9b0a      	ldr	r3, [sp, #40]	; 0x28
	*ptr++ = DHCP_SERVERID;
 80033b2:	70e2      	strb	r2, [r4, #3]
	*ptr++ = 1;
 80033b4:	2501      	movs	r5, #1
	*ptr++ = 4;
 80033b6:	2204      	movs	r2, #4
	*ptr++ = (lease_time >> 8) & 0xFF;
 80033b8:	7361      	strb	r1, [r4, #13]
	*ptr++ = (lease_time >> 0) & 0xFF;

	// subnet mask
	*ptr++ = DHCP_SUBNETMASK;
	*ptr++ = 4;
	*(uint32_t *)ptr = subnet;
 80033ba:	990b      	ldr	r1, [sp, #44]	; 0x2c
	*ptr++ = 1;
 80033bc:	7065      	strb	r5, [r4, #1]
	*ptr++ = 4;
 80033be:	7122      	strb	r2, [r4, #4]
	*ptr++ = 4;
 80033c0:	72a2      	strb	r2, [r4, #10]
	*ptr++ = (lease_time >> 0) & 0xFF;
 80033c2:	73a0      	strb	r0, [r4, #14]
	*ptr++ = DHCP_SUBNETMASK;
 80033c4:	73e5      	strb	r5, [r4, #15]
	*ptr++ = 4;
 80033c6:	7422      	strb	r2, [r4, #16]
	*(uint32_t *)ptr = subnet;
 80033c8:	f8c4 1011 	str.w	r1, [r4, #17]
	ptr += 4;

	// router
	if (router != 0)
 80033cc:	bb1b      	cbnz	r3, 8003416 <fill_options+0x8e>
	ptr += 4;
 80033ce:	f104 0515 	add.w	r5, r4, #21
		*(uint32_t *)ptr = router;
		ptr += 4;
	}

	// domain name
	if (domain != NULL)
 80033d2:	f1b8 0f00 	cmp.w	r8, #0
 80033d6:	d00e      	beq.n	80033f6 <fill_options+0x6e>
	{
		int len = strlen(domain);
		*ptr++ = DHCP_DNSDOMAIN;
 80033d8:	462e      	mov	r6, r5
		int len = strlen(domain);
 80033da:	4640      	mov	r0, r8
 80033dc:	f7fc ff06 	bl	80001ec <strlen>
		*ptr++ = DHCP_DNSDOMAIN;
 80033e0:	230f      	movs	r3, #15
 80033e2:	f806 3b02 	strb.w	r3, [r6], #2
		int len = strlen(domain);
 80033e6:	4607      	mov	r7, r0
		*ptr++ = len;
 80033e8:	7068      	strb	r0, [r5, #1]
		memcpy(ptr, domain, len);
 80033ea:	4602      	mov	r2, r0
 80033ec:	4641      	mov	r1, r8
 80033ee:	4630      	mov	r0, r6
 80033f0:	f004 fc2b 	bl	8007c4a <memcpy>
		ptr += len;
 80033f4:	19f5      	adds	r5, r6, r7
	}

	// domain name server (DNS)
	if (dns != 0)
 80033f6:	f1b9 0f00 	cmp.w	r9, #0
 80033fa:	d006      	beq.n	800340a <fill_options+0x82>
	{
		*ptr++ = DHCP_DNSSERVER;
 80033fc:	2306      	movs	r3, #6
 80033fe:	702b      	strb	r3, [r5, #0]
		*ptr++ = 4;
 8003400:	2304      	movs	r3, #4
 8003402:	706b      	strb	r3, [r5, #1]
		*(uint32_t *)ptr = dns;
 8003404:	f8c5 9002 	str.w	r9, [r5, #2]
		ptr += 4;
 8003408:	3506      	adds	r5, #6
	}

	// end
	*ptr++ = DHCP_END;
 800340a:	23ff      	movs	r3, #255	; 0xff
 800340c:	f805 3b01 	strb.w	r3, [r5], #1
//						*option_ptr++ = DHCP_PERFORMROUTERDISC;
//						*option_ptr++ = 1;
//						*option_ptr++ = 1;
//*/
						// end
}
 8003410:	1b28      	subs	r0, r5, r4
 8003412:	e8bd 83f8 	ldmia.w	sp!, {r3, r4, r5, r6, r7, r8, r9, pc}
		*ptr++ = DHCP_ROUTER;
 8003416:	2103      	movs	r1, #3
 8003418:	7561      	strb	r1, [r4, #21]
		*ptr++ = 4;
 800341a:	75a2      	strb	r2, [r4, #22]
		*(uint32_t *)ptr = router;
 800341c:	f8c4 3017 	str.w	r3, [r4, #23]
		ptr += 4;
 8003420:	f104 051b 	add.w	r5, r4, #27
 8003424:	e7d5      	b.n	80033d2 <fill_options+0x4a>
	...

08003428 <udp_recv_proc>:

static void udp_recv_proc(void *arg, struct udp_pcb *upcb, struct pbuf *p, struct ip_addr *addr, u16_t port)
{
 8003428:	e92d 4ff0 	stmdb	sp!, {r4, r5, r6, r7, r8, r9, sl, fp, lr}
 800342c:	4616      	mov	r6, r2
	dhcp_entry_t *entry;
	struct pbuf *pp;

	int n = p->len;
	if (n > sizeof(dhcp_data)) n = sizeof(dhcp_data);
	memcpy(&dhcp_data, p->payload, n);
 800342e:	8952      	ldrh	r2, [r2, #10]
 8003430:	4c72      	ldr	r4, [pc, #456]	; (80035fc <udp_recv_proc+0x1d4>)
 8003432:	f5b2 7f01 	cmp.w	r2, #516	; 0x204
{
 8003436:	b087      	sub	sp, #28
	memcpy(&dhcp_data, p->payload, n);
 8003438:	bf28      	it	cs
 800343a:	f44f 7201 	movcs.w	r2, #516	; 0x204
{
 800343e:	4688      	mov	r8, r1
	memcpy(&dhcp_data, p->payload, n);
 8003440:	4620      	mov	r0, r4
 8003442:	6871      	ldr	r1, [r6, #4]
{
 8003444:	f8bd 9040 	ldrh.w	r9, [sp, #64]	; 0x40
	memcpy(&dhcp_data, p->payload, n);
 8003448:	f004 fbff 	bl	8007c4a <memcpy>
	switch (dhcp_data.dp_options[2])
 800344c:	f894 30f2 	ldrb.w	r3, [r4, #242]	; 0xf2
 8003450:	2b01      	cmp	r3, #1
 8003452:	d007      	beq.n	8003464 <udp_recv_proc+0x3c>
 8003454:	2b03      	cmp	r3, #3
 8003456:	d063      	beq.n	8003520 <udp_recv_proc+0xf8>
			break;

		default:
				break;
	}
	pbuf_free(p);
 8003458:	4630      	mov	r0, r6
}
 800345a:	b007      	add	sp, #28
 800345c:	e8bd 4ff0 	ldmia.w	sp!, {r4, r5, r6, r7, r8, r9, sl, fp, lr}
	pbuf_free(p);
 8003460:	f001 bb2f 	b.w	8004ac2 <pbuf_free>
			entry = entry_by_mac(dhcp_data.dp_chaddr);
 8003464:	f7ff ff5c 	bl	8003320 <entry_by_mac.constprop.0>
 8003468:	f8df a1a4 	ldr.w	sl, [pc, #420]	; 8003610 <udp_recv_proc+0x1e8>
			if (entry == NULL) entry = vacant_address();
 800346c:	4605      	mov	r5, r0
 800346e:	b9b8      	cbnz	r0, 80034a0 <udp_recv_proc+0x78>
	for (i = 0; i < config->num_entry; i++)
 8003470:	f8da b000 	ldr.w	fp, [sl]
 8003474:	f8db 3010 	ldr.w	r3, [fp, #16]
 8003478:	9304      	str	r3, [sp, #16]
		if (is_vacant(config->entries + i))
 800347a:	2314      	movs	r3, #20
	for (i = 0; i < config->num_entry; i++)
 800347c:	9a04      	ldr	r2, [sp, #16]
 800347e:	4295      	cmp	r5, r2
 8003480:	daea      	bge.n	8003458 <udp_recv_proc+0x30>
		if (is_vacant(config->entries + i))
 8003482:	f8db 7014 	ldr.w	r7, [fp, #20]
	return memcmp("\0\0\0\0\0", entry->mac, 6) == 0;
 8003486:	485e      	ldr	r0, [pc, #376]	; (8003600 <udp_recv_proc+0x1d8>)
 8003488:	9305      	str	r3, [sp, #20]
 800348a:	fb03 7105 	mla	r1, r3, r5, r7
 800348e:	2206      	movs	r2, #6
 8003490:	f004 fbcc 	bl	8007c2c <memcmp>
		if (is_vacant(config->entries + i))
 8003494:	9b05      	ldr	r3, [sp, #20]
 8003496:	2800      	cmp	r0, #0
 8003498:	d140      	bne.n	800351c <udp_recv_proc+0xf4>
			if (entry == NULL) break;
 800349a:	f117 0514 	adds.w	r5, r7, #20
 800349e:	d0db      	beq.n	8003458 <udp_recv_proc+0x30>
			*(uint32_t *)dhcp_data.dp_yiaddr = *(uint32_t *)entry->addr;
 80034a0:	f8d5 3006 	ldr.w	r3, [r5, #6]
 80034a4:	6123      	str	r3, [r4, #16]
			memcpy(dhcp_data.dp_magic, magic_cookie, 4);
 80034a6:	4b57      	ldr	r3, [pc, #348]	; (8003604 <udp_recv_proc+0x1dc>)
			memset(dhcp_data.dp_options, 0, sizeof(dhcp_data.dp_options));
 80034a8:	4857      	ldr	r0, [pc, #348]	; (8003608 <udp_recv_proc+0x1e0>)
			memcpy(dhcp_data.dp_magic, magic_cookie, 4);
 80034aa:	681b      	ldr	r3, [r3, #0]
 80034ac:	f8c4 30ec 	str.w	r3, [r4, #236]	; 0xec
			dhcp_data.dp_secs = 0;
 80034b0:	2700      	movs	r7, #0
			dhcp_data.dp_op = 2; // reply
 80034b2:	f04f 0b02 	mov.w	fp, #2
			memset(dhcp_data.dp_options, 0, sizeof(dhcp_data.dp_options));
 80034b6:	f240 1213 	movw	r2, #275	; 0x113
 80034ba:	4639      	mov	r1, r7
			dhcp_data.dp_op = 2; // reply
 80034bc:	f884 b000 	strb.w	fp, [r4]
			dhcp_data.dp_secs = 0;
 80034c0:	8127      	strh	r7, [r4, #8]
			dhcp_data.dp_flags = 0;
 80034c2:	8167      	strh	r7, [r4, #10]
			memset(dhcp_data.dp_options, 0, sizeof(dhcp_data.dp_options));
 80034c4:	f004 fbcc 	bl	8007c60 <memset>
				config->domain,
 80034c8:	f8da 2000 	ldr.w	r2, [sl]
			fill_options(dhcp_data.dp_options,
 80034cc:	f8d5 100a 	ldr.w	r1, [r5, #10]
 80034d0:	6813      	ldr	r3, [r2, #0]
 80034d2:	9302      	str	r3, [sp, #8]
 80034d4:	9103      	str	r1, [sp, #12]
 80034d6:	9301      	str	r3, [sp, #4]
 80034d8:	692b      	ldr	r3, [r5, #16]
 80034da:	9300      	str	r3, [sp, #0]
 80034dc:	f8d2 3006 	ldr.w	r3, [r2, #6]
 80034e0:	4849      	ldr	r0, [pc, #292]	; (8003608 <udp_recv_proc+0x1e0>)
 80034e2:	68d2      	ldr	r2, [r2, #12]
 80034e4:	4659      	mov	r1, fp
 80034e6:	f7ff ff4f 	bl	8003388 <fill_options>
			pp = pbuf_alloc(PBUF_TRANSPORT, sizeof(dhcp_data), PBUF_POOL);
 80034ea:	2203      	movs	r2, #3
 80034ec:	f44f 7101 	mov.w	r1, #516	; 0x204
 80034f0:	4638      	mov	r0, r7
 80034f2:	f001 fb0d 	bl	8004b10 <pbuf_alloc>
			if (pp == NULL) break;
 80034f6:	4604      	mov	r4, r0
 80034f8:	2800      	cmp	r0, #0
 80034fa:	d0ad      	beq.n	8003458 <udp_recv_proc+0x30>
			memcpy(pp->payload, &dhcp_data, sizeof(dhcp_data));
 80034fc:	f44f 7201 	mov.w	r2, #516	; 0x204
 8003500:	493e      	ldr	r1, [pc, #248]	; (80035fc <udp_recv_proc+0x1d4>)
 8003502:	6840      	ldr	r0, [r0, #4]
 8003504:	f004 fba1 	bl	8007c4a <memcpy>
			udp_sendto(upcb, pp, IP_ADDR_BROADCAST, port);
 8003508:	464b      	mov	r3, r9
 800350a:	4a40      	ldr	r2, [pc, #256]	; (800360c <udp_recv_proc+0x1e4>)
 800350c:	4621      	mov	r1, r4
 800350e:	4640      	mov	r0, r8
 8003510:	f003 ffb6 	bl	8007480 <udp_sendto>
			pbuf_free(pp);
 8003514:	4620      	mov	r0, r4
			pbuf_free(pp);
 8003516:	f001 fad4 	bl	8004ac2 <pbuf_free>
			break;
 800351a:	e79d      	b.n	8003458 <udp_recv_proc+0x30>
	for (i = 0; i < config->num_entry; i++)
 800351c:	3501      	adds	r5, #1
 800351e:	e7ad      	b.n	800347c <udp_recv_proc+0x54>
			ptr = find_dhcp_option(dhcp_data.dp_options, sizeof(dhcp_data.dp_options), DHCP_IPADDRESS);
 8003520:	2232      	movs	r2, #50	; 0x32
 8003522:	f240 1113 	movw	r1, #275	; 0x113
 8003526:	f104 00f0 	add.w	r0, r4, #240	; 0xf0
 800352a:	f7ff ff19 	bl	8003360 <find_dhcp_option>
			if (ptr == NULL) break;
 800352e:	4605      	mov	r5, r0
 8003530:	2800      	cmp	r0, #0
 8003532:	d091      	beq.n	8003458 <udp_recv_proc+0x30>
			if (ptr[1] != 4) break;
 8003534:	7843      	ldrb	r3, [r0, #1]
 8003536:	2b04      	cmp	r3, #4
 8003538:	d18e      	bne.n	8003458 <udp_recv_proc+0x30>
			entry = entry_by_mac(dhcp_data.dp_chaddr);
 800353a:	f7ff fef1 	bl	8003320 <entry_by_mac.constprop.0>
			if (entry != NULL) free_entry(entry);
 800353e:	b110      	cbz	r0, 8003546 <udp_recv_proc+0x11e>
	memset(entry->mac, 0, 6);
 8003540:	2300      	movs	r3, #0
 8003542:	6003      	str	r3, [r0, #0]
 8003544:	8083      	strh	r3, [r0, #4]
	for (i = 0; i < config->num_entry; i++)
 8003546:	4b32      	ldr	r3, [pc, #200]	; (8003610 <udp_recv_proc+0x1e8>)
			entry = entry_by_ip(*(uint32_t *)ptr);
 8003548:	f8d5 b002 	ldr.w	fp, [r5, #2]
	for (i = 0; i < config->num_entry; i++)
 800354c:	681f      	ldr	r7, [r3, #0]
 800354e:	693a      	ldr	r2, [r7, #16]
 8003550:	2300      	movs	r3, #0
		if (*(uint32_t *)config->entries[i].addr == ip)
 8003552:	2014      	movs	r0, #20
	for (i = 0; i < config->num_entry; i++)
 8003554:	4293      	cmp	r3, r2
 8003556:	f6bf af7f 	bge.w	8003458 <udp_recv_proc+0x30>
		if (*(uint32_t *)config->entries[i].addr == ip)
 800355a:	697d      	ldr	r5, [r7, #20]
 800355c:	fb00 5503 	mla	r5, r0, r3, r5
 8003560:	f8d5 1006 	ldr.w	r1, [r5, #6]
 8003564:	458b      	cmp	fp, r1
 8003566:	d001      	beq.n	800356c <udp_recv_proc+0x144>
	for (i = 0; i < config->num_entry; i++)
 8003568:	3301      	adds	r3, #1
 800356a:	e7f3      	b.n	8003554 <udp_recv_proc+0x12c>
	return memcmp("\0\0\0\0\0", entry->mac, 6) == 0;
 800356c:	2206      	movs	r2, #6
 800356e:	4629      	mov	r1, r5
 8003570:	4823      	ldr	r0, [pc, #140]	; (8003600 <udp_recv_proc+0x1d8>)
 8003572:	f004 fb5b 	bl	8007c2c <memcmp>
			if (!is_vacant(entry)) break;
 8003576:	4682      	mov	sl, r0
 8003578:	2800      	cmp	r0, #0
 800357a:	f47f af6d 	bne.w	8003458 <udp_recv_proc+0x30>
			dhcp_data.dp_op = 2; // reply
 800357e:	2302      	movs	r3, #2
 8003580:	7023      	strb	r3, [r4, #0]
			memcpy(dhcp_data.dp_magic, magic_cookie, 4);
 8003582:	4b20      	ldr	r3, [pc, #128]	; (8003604 <udp_recv_proc+0x1dc>)
			memcpy(dhcp_data.dp_yiaddr, ptr, 4);
 8003584:	f8c4 b010 	str.w	fp, [r4, #16]
			memcpy(dhcp_data.dp_magic, magic_cookie, 4);
 8003588:	681b      	ldr	r3, [r3, #0]
 800358a:	f8c4 30ec 	str.w	r3, [r4, #236]	; 0xec
			memset(dhcp_data.dp_options, 0, sizeof(dhcp_data.dp_options));
 800358e:	f240 1213 	movw	r2, #275	; 0x113
 8003592:	4651      	mov	r1, sl
 8003594:	481c      	ldr	r0, [pc, #112]	; (8003608 <udp_recv_proc+0x1e0>)
			dhcp_data.dp_secs = 0;
 8003596:	f8a4 a008 	strh.w	sl, [r4, #8]
			dhcp_data.dp_flags = 0;
 800359a:	f8a4 a00a 	strh.w	sl, [r4, #10]
			memset(dhcp_data.dp_options, 0, sizeof(dhcp_data.dp_options));
 800359e:	f004 fb5f 	bl	8007c60 <memset>
			fill_options(dhcp_data.dp_options,
 80035a2:	683b      	ldr	r3, [r7, #0]
 80035a4:	f8d5 200a 	ldr.w	r2, [r5, #10]
 80035a8:	9203      	str	r2, [sp, #12]
 80035aa:	9302      	str	r3, [sp, #8]
 80035ac:	9301      	str	r3, [sp, #4]
 80035ae:	692b      	ldr	r3, [r5, #16]
 80035b0:	9300      	str	r3, [sp, #0]
 80035b2:	f8d7 3006 	ldr.w	r3, [r7, #6]
 80035b6:	68fa      	ldr	r2, [r7, #12]
 80035b8:	4813      	ldr	r0, [pc, #76]	; (8003608 <udp_recv_proc+0x1e0>)
 80035ba:	2105      	movs	r1, #5
 80035bc:	f7ff fee4 	bl	8003388 <fill_options>
			pp = pbuf_alloc(PBUF_TRANSPORT, sizeof(dhcp_data), PBUF_POOL);
 80035c0:	2203      	movs	r2, #3
 80035c2:	f44f 7101 	mov.w	r1, #516	; 0x204
 80035c6:	4650      	mov	r0, sl
 80035c8:	f001 faa2 	bl	8004b10 <pbuf_alloc>
			if (pp == NULL) break;
 80035cc:	4607      	mov	r7, r0
 80035ce:	2800      	cmp	r0, #0
 80035d0:	f43f af42 	beq.w	8003458 <udp_recv_proc+0x30>
			memcpy(entry->mac, dhcp_data.dp_chaddr, 6);
 80035d4:	69e0      	ldr	r0, [r4, #28]
 80035d6:	490f      	ldr	r1, [pc, #60]	; (8003614 <udp_recv_proc+0x1ec>)
 80035d8:	6028      	str	r0, [r5, #0]
 80035da:	888b      	ldrh	r3, [r1, #4]
 80035dc:	80ab      	strh	r3, [r5, #4]
			memcpy(pp->payload, &dhcp_data, sizeof(dhcp_data));
 80035de:	f44f 7201 	mov.w	r2, #516	; 0x204
 80035e2:	391c      	subs	r1, #28
 80035e4:	6878      	ldr	r0, [r7, #4]
 80035e6:	f004 fb30 	bl	8007c4a <memcpy>
			udp_sendto(upcb, pp, IP_ADDR_BROADCAST, port);
 80035ea:	464b      	mov	r3, r9
 80035ec:	4a07      	ldr	r2, [pc, #28]	; (800360c <udp_recv_proc+0x1e4>)
 80035ee:	4639      	mov	r1, r7
 80035f0:	4640      	mov	r0, r8
 80035f2:	f003 ff45 	bl	8007480 <udp_sendto>
			pbuf_free(pp);
 80035f6:	4638      	mov	r0, r7
 80035f8:	e78d      	b.n	8003516 <udp_recv_proc+0xee>
 80035fa:	bf00      	nop
 80035fc:	20008188 	.word	0x20008188
 8003600:	08007c95 	.word	0x08007c95
 8003604:	20000140 	.word	0x20000140
 8003608:	20008278 	.word	0x20008278
 800360c:	08007d68 	.word	0x08007d68
 8003610:	200007f8 	.word	0x200007f8
 8003614:	200081a4 	.word	0x200081a4

08003618 <dhserv_free>:
	config = c;
	return ERR_OK;
}

void dhserv_free(void)
{
 8003618:	b510      	push	{r4, lr}
	if (pcb == NULL) return;
 800361a:	4c04      	ldr	r4, [pc, #16]	; (800362c <dhserv_free+0x14>)
 800361c:	6820      	ldr	r0, [r4, #0]
 800361e:	b118      	cbz	r0, 8003628 <dhserv_free+0x10>
	udp_remove(pcb);
 8003620:	f003 ff50 	bl	80074c4 <udp_remove>
	pcb = NULL;
 8003624:	2300      	movs	r3, #0
 8003626:	6023      	str	r3, [r4, #0]
 8003628:	bd10      	pop	{r4, pc}
 800362a:	bf00      	nop
 800362c:	200007fc 	.word	0x200007fc

08003630 <dhserv_init>:
{
 8003630:	b570      	push	{r4, r5, r6, lr}
 8003632:	4605      	mov	r5, r0
	udp_init();
 8003634:	f003 fd82 	bl	800713c <udp_init>
	dhserv_free();
 8003638:	f7ff ffee 	bl	8003618 <dhserv_free>
	pcb = udp_new();
 800363c:	f003 ff58 	bl	80074f0 <udp_new>
 8003640:	4e0b      	ldr	r6, [pc, #44]	; (8003670 <dhserv_init+0x40>)
 8003642:	6030      	str	r0, [r6, #0]
	if (pcb == NULL)
 8003644:	b188      	cbz	r0, 800366a <dhserv_init+0x3a>
	err = udp_bind(pcb, IP_ADDR_ANY, c->port);
 8003646:	88aa      	ldrh	r2, [r5, #4]
 8003648:	490a      	ldr	r1, [pc, #40]	; (8003674 <dhserv_init+0x44>)
 800364a:	f003 fe51 	bl	80072f0 <udp_bind>
	if (err != ERR_OK)
 800364e:	4604      	mov	r4, r0
 8003650:	b118      	cbz	r0, 800365a <dhserv_init+0x2a>
		dhserv_free();
 8003652:	f7ff ffe1 	bl	8003618 <dhserv_free>
}
 8003656:	4620      	mov	r0, r4
 8003658:	bd70      	pop	{r4, r5, r6, pc}
	udp_recv(pcb, udp_recv_proc, NULL);
 800365a:	4602      	mov	r2, r0
 800365c:	4906      	ldr	r1, [pc, #24]	; (8003678 <dhserv_init+0x48>)
 800365e:	6830      	ldr	r0, [r6, #0]
 8003660:	f003 ff2c 	bl	80074bc <udp_recv>
	config = c;
 8003664:	4b05      	ldr	r3, [pc, #20]	; (800367c <dhserv_init+0x4c>)
 8003666:	601d      	str	r5, [r3, #0]
	return ERR_OK;
 8003668:	e7f5      	b.n	8003656 <dhserv_init+0x26>
		return ERR_MEM;
 800366a:	f04f 34ff 	mov.w	r4, #4294967295
 800366e:	e7f2      	b.n	8003656 <dhserv_init+0x26>
 8003670:	200007fc 	.word	0x200007fc
 8003674:	08007d64 	.word	0x08007d64
 8003678:	08003429 	.word	0x08003429
 800367c:	200007f8 	.word	0x200007f8

08003680 <udp_recv_proc>:
	ptr += 2;
	return ptr - (uint8_t *)data;
}

static void udp_recv_proc(void *arg, struct udp_pcb *upcb, struct pbuf *p, struct ip_addr *addr, u16_t port)
{
 8003680:	e92d 4ff0 	stmdb	sp!, {r4, r5, r6, r7, r8, r9, sl, fp, lr}
 8003684:	469b      	mov	fp, r3
	static dns_query_t query;
	struct pbuf *out;
	ip_addr_t host_addr;
	dns_answer_t *answer;

	if (p->len <= sizeof(dns_header_t)) goto error;
 8003686:	8953      	ldrh	r3, [r2, #10]
{
 8003688:	b085      	sub	sp, #20
	if (p->len <= sizeof(dns_header_t)) goto error;
 800368a:	2b0c      	cmp	r3, #12
{
 800368c:	9100      	str	r1, [sp, #0]
 800368e:	4617      	mov	r7, r2
	if (p->len <= sizeof(dns_header_t)) goto error;
 8003690:	f240 808e 	bls.w	80037b0 <udp_recv_proc+0x130>
	header = (dns_header_t *)p->payload;
 8003694:	6856      	ldr	r6, [r2, #4]
	if (header->flags.qr != 0) goto error;
 8003696:	f996 3002 	ldrsb.w	r3, [r6, #2]
 800369a:	2b00      	cmp	r3, #0
 800369c:	f2c0 8088 	blt.w	80037b0 <udp_recv_proc+0x130>
	if (ntohs(header->n_record[0]) != 1) goto error;
 80036a0:	88b0      	ldrh	r0, [r6, #4]
 80036a2:	f000 f8c6 	bl	8003832 <lwip_ntohs>
 80036a6:	2801      	cmp	r0, #1
 80036a8:	f040 8082 	bne.w	80037b0 <udp_recv_proc+0x130>

	len = parse_next_query(header->data, p->len - sizeof(dns_header_t), &query);
 80036ac:	897c      	ldrh	r4, [r7, #10]
			query->name[len++] = '.';
 80036ae:	4b43      	ldr	r3, [pc, #268]	; (80037bc <udp_recv_proc+0x13c>)
	len = parse_next_query(header->data, p->len - sizeof(dns_header_t), &query);
 80036b0:	360c      	adds	r6, #12
	lables = 0;
 80036b2:	f04f 0800 	mov.w	r8, #0
	len = parse_next_query(header->data, p->len - sizeof(dns_header_t), &query);
 80036b6:	3c0c      	subs	r4, #12
	ptr = (uint8_t *)data;
 80036b8:	4631      	mov	r1, r6
	len = 0;
 80036ba:	46c6      	mov	lr, r8
		if (size <= 0) return -1;
 80036bc:	2c00      	cmp	r4, #0
 80036be:	dd77      	ble.n	80037b0 <udp_recv_proc+0x130>
		lable_len = *ptr++;
 80036c0:	780d      	ldrb	r5, [r1, #0]
 80036c2:	f101 0a01 	add.w	sl, r1, #1
		size--;
 80036c6:	3c01      	subs	r4, #1
		if (lable_len == 0) break;
 80036c8:	b1f5      	cbz	r5, 8003708 <udp_recv_proc+0x88>
		if (lables > 0)
 80036ca:	f1b8 0f00 	cmp.w	r8, #0
 80036ce:	d005      	beq.n	80036dc <udp_recv_proc+0x5c>
			query->name[len++] = '.';
 80036d0:	f04f 022e 	mov.w	r2, #46	; 0x2e
 80036d4:	f803 200e 	strb.w	r2, [r3, lr]
 80036d8:	f10e 0e01 	add.w	lr, lr, #1
		if (lable_len > size) return -1;
 80036dc:	42ac      	cmp	r4, r5
 80036de:	db67      	blt.n	80037b0 <udp_recv_proc+0x130>
		if (len + lable_len >= DNS_MAX_HOST_NAME_LEN) return -2;
 80036e0:	eb05 090e 	add.w	r9, r5, lr
 80036e4:	f1b9 0f7f 	cmp.w	r9, #127	; 0x7f
 80036e8:	dc62      	bgt.n	80037b0 <udp_recv_proc+0x130>
		memcpy(&query->name[len], ptr, lable_len);
 80036ea:	eb03 000e 	add.w	r0, r3, lr
 80036ee:	4651      	mov	r1, sl
 80036f0:	462a      	mov	r2, r5
 80036f2:	9301      	str	r3, [sp, #4]
		size -= lable_len;
 80036f4:	1b64      	subs	r4, r4, r5
		memcpy(&query->name[len], ptr, lable_len);
 80036f6:	f004 faa8 	bl	8007c4a <memcpy>
		lables++;
 80036fa:	f108 0801 	add.w	r8, r8, #1
		ptr += lable_len;
 80036fe:	eb0a 0105 	add.w	r1, sl, r5
		lables++;
 8003702:	46ce      	mov	lr, r9
 8003704:	9b01      	ldr	r3, [sp, #4]
 8003706:	e7d9      	b.n	80036bc <udp_recv_proc+0x3c>
	if (size < 4) return -1;
 8003708:	2c03      	cmp	r4, #3
 800370a:	dd51      	ble.n	80037b0 <udp_recv_proc+0x130>
	query->name[len] = 0;
 800370c:	482b      	ldr	r0, [pc, #172]	; (80037bc <udp_recv_proc+0x13c>)
 800370e:	f800 500e 	strb.w	r5, [r0, lr]
	query->type = *(uint16_t *)ptr;
 8003712:	f8b1 3001 	ldrh.w	r3, [r1, #1]
 8003716:	f8a0 3080 	strh.w	r3, [r0, #128]	; 0x80
	query->Class = *(uint16_t *)ptr;
 800371a:	f8b1 3003 	ldrh.w	r3, [r1, #3]
 800371e:	f8a0 3082 	strh.w	r3, [r0, #130]	; 0x82
	ptr += 2;
 8003722:	3105      	adds	r1, #5
	if (len < 0) goto error;
 8003724:	1b8e      	subs	r6, r1, r6
 8003726:	d443      	bmi.n	80037b0 <udp_recv_proc+0x130>
	if (!query_proc(query.name, &host_addr)) goto error;
 8003728:	4b25      	ldr	r3, [pc, #148]	; (80037c0 <udp_recv_proc+0x140>)
 800372a:	a903      	add	r1, sp, #12
 800372c:	681b      	ldr	r3, [r3, #0]
 800372e:	4798      	blx	r3
 8003730:	2800      	cmp	r0, #0
 8003732:	d03d      	beq.n	80037b0 <udp_recv_proc+0x130>

	len += sizeof(dns_header_t);
 8003734:	f106 080c 	add.w	r8, r6, #12
	out = pbuf_alloc(PBUF_TRANSPORT, len + 16, PBUF_POOL);
 8003738:	361c      	adds	r6, #28
 800373a:	2203      	movs	r2, #3
 800373c:	b2b1      	uxth	r1, r6
 800373e:	4628      	mov	r0, r5
 8003740:	f001 f9e6 	bl	8004b10 <pbuf_alloc>
	if (out == NULL) goto error;
 8003744:	4604      	mov	r4, r0
 8003746:	b398      	cbz	r0, 80037b0 <udp_recv_proc+0x130>

	memcpy(out->payload, p->payload, len);
 8003748:	4642      	mov	r2, r8
 800374a:	6879      	ldr	r1, [r7, #4]
 800374c:	6840      	ldr	r0, [r0, #4]
 800374e:	f004 fa7c 	bl	8007c4a <memcpy>
	header = (dns_header_t *)out->payload;
 8003752:	6865      	ldr	r5, [r4, #4]
	header->flags.qr = 1;
 8003754:	78ab      	ldrb	r3, [r5, #2]
 8003756:	f043 0380 	orr.w	r3, r3, #128	; 0x80
 800375a:	70ab      	strb	r3, [r5, #2]
	header->n_record[1] = htons(1);
 800375c:	2001      	movs	r0, #1
 800375e:	f000 f865 	bl	800382c <lwip_htons>
 8003762:	80e8      	strh	r0, [r5, #6]
	answer = (struct dns_answer *)((uint8_t *)out->payload + len);
	answer->name = htons(0xC00C);
 8003764:	f24c 000c 	movw	r0, #49164	; 0xc00c
	answer = (struct dns_answer *)((uint8_t *)out->payload + len);
 8003768:	6866      	ldr	r6, [r4, #4]
	answer->name = htons(0xC00C);
 800376a:	f000 f85f 	bl	800382c <lwip_htons>
 800376e:	f826 0008 	strh.w	r0, [r6, r8]
	answer->type = htons(1);
 8003772:	2001      	movs	r0, #1
 8003774:	f000 f85a 	bl	800382c <lwip_htons>
	answer = (struct dns_answer *)((uint8_t *)out->payload + len);
 8003778:	eb06 0508 	add.w	r5, r6, r8
	answer->type = htons(1);
 800377c:	8068      	strh	r0, [r5, #2]
	answer->Class = htons(1);
 800377e:	2001      	movs	r0, #1
 8003780:	f000 f854 	bl	800382c <lwip_htons>
 8003784:	80a8      	strh	r0, [r5, #4]
	answer->ttl = htonl(32);
 8003786:	2020      	movs	r0, #32
 8003788:	f000 f856 	bl	8003838 <lwip_htonl>
 800378c:	f8c5 0006 	str.w	r0, [r5, #6]
	answer->len = htons(4);
 8003790:	2004      	movs	r0, #4
 8003792:	f000 f84b 	bl	800382c <lwip_htons>
	answer->addr = host_addr.addr;
 8003796:	9b03      	ldr	r3, [sp, #12]
	answer->len = htons(4);
 8003798:	8168      	strh	r0, [r5, #10]
	answer->addr = host_addr.addr;
 800379a:	60eb      	str	r3, [r5, #12]
	
	udp_sendto(upcb, out, addr, port);
 800379c:	465a      	mov	r2, fp
 800379e:	f8bd 3038 	ldrh.w	r3, [sp, #56]	; 0x38
 80037a2:	9800      	ldr	r0, [sp, #0]
 80037a4:	4621      	mov	r1, r4
 80037a6:	f003 fe6b 	bl	8007480 <udp_sendto>
	pbuf_free(out);
 80037aa:	4620      	mov	r0, r4
 80037ac:	f001 f989 	bl	8004ac2 <pbuf_free>

error:
	pbuf_free(p);
 80037b0:	4638      	mov	r0, r7
 80037b2:	f001 f986 	bl	8004ac2 <pbuf_free>
}
 80037b6:	b005      	add	sp, #20
 80037b8:	e8bd 8ff0 	ldmia.w	sp!, {r4, r5, r6, r7, r8, r9, sl, fp, pc}
 80037bc:	20000804 	.word	0x20000804
 80037c0:	20000888 	.word	0x20000888

080037c4 <dnserv_free>:
	query_proc = qp;
	return ERR_OK;
}

void dnserv_free()
{
 80037c4:	b510      	push	{r4, lr}
	if (pcb == NULL) return;
 80037c6:	4c04      	ldr	r4, [pc, #16]	; (80037d8 <dnserv_free+0x14>)
 80037c8:	6820      	ldr	r0, [r4, #0]
 80037ca:	b118      	cbz	r0, 80037d4 <dnserv_free+0x10>
	udp_remove(pcb);
 80037cc:	f003 fe7a 	bl	80074c4 <udp_remove>
	pcb = NULL;
 80037d0:	2300      	movs	r3, #0
 80037d2:	6023      	str	r3, [r4, #0]
 80037d4:	bd10      	pop	{r4, pc}
 80037d6:	bf00      	nop
 80037d8:	20000800 	.word	0x20000800

080037dc <dnserv_init>:
{
 80037dc:	b5f8      	push	{r3, r4, r5, r6, r7, lr}
 80037de:	4604      	mov	r4, r0
 80037e0:	460f      	mov	r7, r1
 80037e2:	4616      	mov	r6, r2
	udp_init();
 80037e4:	f003 fcaa 	bl	800713c <udp_init>
	dnserv_free();
 80037e8:	f7ff ffec 	bl	80037c4 <dnserv_free>
	pcb = udp_new();
 80037ec:	f003 fe80 	bl	80074f0 <udp_new>
 80037f0:	4d0b      	ldr	r5, [pc, #44]	; (8003820 <dnserv_init+0x44>)
 80037f2:	6028      	str	r0, [r5, #0]
	if (pcb == NULL)
 80037f4:	b188      	cbz	r0, 800381a <dnserv_init+0x3e>
	err = udp_bind(pcb, bind, port);
 80037f6:	4621      	mov	r1, r4
 80037f8:	463a      	mov	r2, r7
 80037fa:	f003 fd79 	bl	80072f0 <udp_bind>
	if (err != ERR_OK)
 80037fe:	4604      	mov	r4, r0
 8003800:	b118      	cbz	r0, 800380a <dnserv_init+0x2e>
		dnserv_free();
 8003802:	f7ff ffdf 	bl	80037c4 <dnserv_free>
}
 8003806:	4620      	mov	r0, r4
 8003808:	bdf8      	pop	{r3, r4, r5, r6, r7, pc}
	udp_recv(pcb, udp_recv_proc, NULL);
 800380a:	4602      	mov	r2, r0
 800380c:	4905      	ldr	r1, [pc, #20]	; (8003824 <dnserv_init+0x48>)
 800380e:	6828      	ldr	r0, [r5, #0]
 8003810:	f003 fe54 	bl	80074bc <udp_recv>
	query_proc = qp;
 8003814:	4b04      	ldr	r3, [pc, #16]	; (8003828 <dnserv_init+0x4c>)
 8003816:	601e      	str	r6, [r3, #0]
	return ERR_OK;
 8003818:	e7f5      	b.n	8003806 <dnserv_init+0x2a>
		return ERR_MEM;
 800381a:	f04f 34ff 	mov.w	r4, #4294967295
 800381e:	e7f2      	b.n	8003806 <dnserv_init+0x2a>
 8003820:	20000800 	.word	0x20000800
 8003824:	08003681 	.word	0x08003681
 8003828:	20000888 	.word	0x20000888

0800382c <lwip_htons>:
 800382c:	ba40      	rev16	r0, r0
 800382e:	b280      	uxth	r0, r0
 8003830:	4770      	bx	lr

08003832 <lwip_ntohs>:
 * @return n in host byte order
 */
u16_t
lwip_ntohs(u16_t n)
{
  return lwip_htons(n);
 8003832:	ba40      	rev16	r0, r0
}
 8003834:	b280      	uxth	r0, r0
 8003836:	4770      	bx	lr

08003838 <lwip_htonl>:
{
  return ((n & 0xff) << 24) |
    ((n & 0xff00) << 8) |
    ((n & 0xff0000UL) >> 8) |
    ((n & 0xff000000UL) >> 24);
}
 8003838:	ba00      	rev	r0, r0
 800383a:	4770      	bx	lr

0800383c <lwip_ntohl>:
 * @return n in host byte order
 */
u32_t
lwip_ntohl(u32_t n)
{
  return lwip_htonl(n);
 800383c:	f7ff bffc 	b.w	8003838 <lwip_htonl>

08003840 <lwip_init>:
/**
 * Perform Sanity check of user-configurable values, and initialize all modules.
 */
void
lwip_init(void)
{
 8003840:	b508      	push	{r3, lr}
  /* Modules initialization */
  stats_init();
 8003842:	f001 faf5 	bl	8004e30 <stats_init>
#if !NO_SYS
  sys_init();
#endif /* !NO_SYS */
  mem_init();
 8003846:	f000 fe93 	bl	8004570 <mem_init>
  memp_init();
 800384a:	f000 ffff 	bl	800484c <memp_init>
  pbuf_init();
  netif_init();
 800384e:	f001 f87f 	bl	8004950 <netif_init>
#endif /* LWIP_ARP */
#if LWIP_RAW
  raw_init();
#endif /* LWIP_RAW */
#if LWIP_UDP
  udp_init();
 8003852:	f003 fc73 	bl	800713c <udp_init>
#endif /* LWIP_UDP */
#if LWIP_TCP
  tcp_init();
 8003856:	f001 faec 	bl	8004e32 <tcp_init>
#endif /* LWIP_DNS */

#if LWIP_TIMERS
  sys_timeouts_init();
#endif /* LWIP_TIMERS */
}
 800385a:	e8bd 4008 	ldmia.w	sp!, {r3, lr}
  sys_timeouts_init();
 800385e:	f003 bc39 	b.w	80070d4 <sys_timeouts_init>
	...

08003864 <icmp_send_response.isra.0>:
 *          p->payload pointing to the IP header
 * @param type Type of the ICMP header
 * @param code Code of the ICMP header
 */
static void
icmp_send_response(struct pbuf *p, u8_t type, u8_t code)
 8003864:	e92d 41ff 	stmdb	sp!, {r0, r1, r2, r3, r4, r5, r6, r7, r8, lr}
 8003868:	4604      	mov	r4, r0
 800386a:	4688      	mov	r8, r1
 800386c:	4616      	mov	r6, r2
  /* we can use the echo header here */
  struct icmp_echo_hdr *icmphdr;
  ip_addr_t iphdr_src;

  /* ICMP header + IP header + 8 bytes of data */
  q = pbuf_alloc(PBUF_IP, sizeof(struct icmp_echo_hdr) + IP_HLEN + ICMP_DEST_UNREACH_DATASIZE,
 800386e:	2124      	movs	r1, #36	; 0x24
 8003870:	2200      	movs	r2, #0
 8003872:	2001      	movs	r0, #1
 8003874:	f001 f94c 	bl	8004b10 <pbuf_alloc>
                 PBUF_RAM);
  if (q == NULL) {
 8003878:	4605      	mov	r5, r0
 800387a:	b388      	cbz	r0, 80038e0 <icmp_send_response.isra.0+0x7c>
    return;
  }
  LWIP_ASSERT("check that first pbuf can hold icmp message",
             (q->len >= (sizeof(struct icmp_echo_hdr) + IP_HLEN + ICMP_DEST_UNREACH_DATASIZE)));

  iphdr = (struct ip_hdr *)p->payload;
 800387c:	6827      	ldr	r7, [r4, #0]
  ip_addr_debug_print(ICMP_DEBUG, &(iphdr->src));
  LWIP_DEBUGF(ICMP_DEBUG, (" to "));
  ip_addr_debug_print(ICMP_DEBUG, &(iphdr->dest));
  LWIP_DEBUGF(ICMP_DEBUG, ("\n"));

  icmphdr = (struct icmp_echo_hdr *)q->payload;
 800387e:	6844      	ldr	r4, [r0, #4]
  icmphdr->type = type;
  icmphdr->code = code;
  icmphdr->id = 0;
 8003880:	2300      	movs	r3, #0
 8003882:	7123      	strb	r3, [r4, #4]
 8003884:	7163      	strb	r3, [r4, #5]
  icmphdr->seqno = 0;
 8003886:	71a3      	strb	r3, [r4, #6]
 8003888:	71e3      	strb	r3, [r4, #7]
  icmphdr->type = type;
 800388a:	f884 8000 	strb.w	r8, [r4]
  icmphdr->code = code;
 800388e:	7066      	strb	r6, [r4, #1]

  /* copy fields from original packet */
  SMEMCPY((u8_t *)q->payload + sizeof(struct icmp_echo_hdr), (u8_t *)p->payload,
 8003890:	463b      	mov	r3, r7
 8003892:	f104 0208 	add.w	r2, r4, #8
 8003896:	f107 011c 	add.w	r1, r7, #28
 800389a:	f853 0b04 	ldr.w	r0, [r3], #4
 800389e:	f842 0b04 	str.w	r0, [r2], #4
 80038a2:	428b      	cmp	r3, r1
 80038a4:	d1f9      	bne.n	800389a <icmp_send_response.isra.0+0x36>
          IP_HLEN + ICMP_DEST_UNREACH_DATASIZE);

  /* calculate checksum */
  icmphdr->chksum = 0;
 80038a6:	2600      	movs	r6, #0
  icmphdr->chksum = inet_chksum(icmphdr, q->len);
 80038a8:	8969      	ldrh	r1, [r5, #10]
  icmphdr->chksum = 0;
 80038aa:	70a6      	strb	r6, [r4, #2]
 80038ac:	70e6      	strb	r6, [r4, #3]
  icmphdr->chksum = inet_chksum(icmphdr, q->len);
 80038ae:	4620      	mov	r0, r4
 80038b0:	f000 f971 	bl	8003b96 <inet_chksum>
  ICMP_STATS_INC(icmp.xmit);
 80038b4:	4a0c      	ldr	r2, [pc, #48]	; (80038e8 <icmp_send_response.isra.0+0x84>)
  icmphdr->chksum = inet_chksum(icmphdr, q->len);
 80038b6:	8060      	strh	r0, [r4, #2]
  ICMP_STATS_INC(icmp.xmit);
 80038b8:	f8b2 3060 	ldrh.w	r3, [r2, #96]	; 0x60
 80038bc:	3301      	adds	r3, #1
 80038be:	f8a2 3060 	strh.w	r3, [r2, #96]	; 0x60
  /* increase number of messages attempted to send */
  snmp_inc_icmpoutmsgs();
  /* increase number of destination unreachable messages attempted to send */
  snmp_inc_icmpouttimeexcds();
  ip_addr_copy(iphdr_src, iphdr->src);
 80038c2:	aa04      	add	r2, sp, #16
 80038c4:	68fb      	ldr	r3, [r7, #12]
 80038c6:	f842 3d04 	str.w	r3, [r2, #-4]!
  ip_output(q, NULL, &iphdr_src, ICMP_TTL, 0, IP_PROTO_ICMP);
 80038ca:	2301      	movs	r3, #1
 80038cc:	9301      	str	r3, [sp, #4]
 80038ce:	9600      	str	r6, [sp, #0]
 80038d0:	23ff      	movs	r3, #255	; 0xff
 80038d2:	4631      	mov	r1, r6
 80038d4:	4628      	mov	r0, r5
 80038d6:	f000 fb31 	bl	8003f3c <ip_output>
  pbuf_free(q);
 80038da:	4628      	mov	r0, r5
 80038dc:	f001 f8f1 	bl	8004ac2 <pbuf_free>
}
 80038e0:	b004      	add	sp, #16
 80038e2:	e8bd 81f0 	ldmia.w	sp!, {r4, r5, r6, r7, r8, pc}
 80038e6:	bf00      	nop
 80038e8:	2000aaca 	.word	0x2000aaca

080038ec <icmp_input>:
{
 80038ec:	e92d 4ff0 	stmdb	sp!, {r4, r5, r6, r7, r8, r9, sl, fp, lr}
  ICMP_STATS_INC(icmp.recv);
 80038f0:	4d67      	ldr	r5, [pc, #412]	; (8003a90 <icmp_input+0x1a4>)
  iphdr = (struct ip_hdr *)p->payload;
 80038f2:	6846      	ldr	r6, [r0, #4]
  ICMP_STATS_INC(icmp.recv);
 80038f4:	f8b5 3062 	ldrh.w	r3, [r5, #98]	; 0x62
 80038f8:	3301      	adds	r3, #1
 80038fa:	f8a5 3062 	strh.w	r3, [r5, #98]	; 0x62
  hlen = IPH_HL(iphdr) * 4;
 80038fe:	f896 b000 	ldrb.w	fp, [r6]
 8003902:	f00b 0b0f 	and.w	fp, fp, #15
 8003906:	ea4f 0b8b 	mov.w	fp, fp, lsl #2
  if (pbuf_header(p, -hlen) || (p->tot_len < sizeof(u16_t)*2)) {
 800390a:	f1cb 0a00 	rsb	sl, fp, #0
 800390e:	fa0f fa8a 	sxth.w	sl, sl
{
 8003912:	b087      	sub	sp, #28
 8003914:	4688      	mov	r8, r1
  if (pbuf_header(p, -hlen) || (p->tot_len < sizeof(u16_t)*2)) {
 8003916:	4651      	mov	r1, sl
{
 8003918:	4604      	mov	r4, r0
  if (pbuf_header(p, -hlen) || (p->tot_len < sizeof(u16_t)*2)) {
 800391a:	f001 f8a7 	bl	8004a6c <pbuf_header>
 800391e:	462f      	mov	r7, r5
 8003920:	2800      	cmp	r0, #0
 8003922:	f040 80ac 	bne.w	8003a7e <icmp_input+0x192>
 8003926:	8923      	ldrh	r3, [r4, #8]
 8003928:	2b03      	cmp	r3, #3
 800392a:	f240 80a8 	bls.w	8003a7e <icmp_input+0x192>
  type = *((u8_t *)p->payload);
 800392e:	6863      	ldr	r3, [r4, #4]
  switch (type) {
 8003930:	781b      	ldrb	r3, [r3, #0]
 8003932:	b1ab      	cbz	r3, 8003960 <icmp_input+0x74>
 8003934:	2b08      	cmp	r3, #8
 8003936:	f040 8097 	bne.w	8003a68 <icmp_input+0x17c>
      if (ip_addr_ismulticast(&current_iphdr_dest)) {
 800393a:	f8df 915c 	ldr.w	r9, [pc, #348]	; 8003a98 <icmp_input+0x1ac>
 800393e:	f8d9 0000 	ldr.w	r0, [r9]
      if (ip_addr_isbroadcast(&current_iphdr_dest, inp)) {
 8003942:	4641      	mov	r1, r8
      if (ip_addr_ismulticast(&current_iphdr_dest)) {
 8003944:	f000 03f0 	and.w	r3, r0, #240	; 0xf0
 8003948:	9305      	str	r3, [sp, #20]
      if (ip_addr_isbroadcast(&current_iphdr_dest, inp)) {
 800394a:	f000 fb1b 	bl	8003f84 <ip4_addr_isbroadcast>
 800394e:	b910      	cbnz	r0, 8003956 <icmp_input+0x6a>
      if (!accepted) {
 8003950:	9b05      	ldr	r3, [sp, #20]
 8003952:	2be0      	cmp	r3, #224	; 0xe0
 8003954:	d10a      	bne.n	800396c <icmp_input+0x80>
        ICMP_STATS_INC(icmp.err);
 8003956:	f8b7 3074 	ldrh.w	r3, [r7, #116]	; 0x74
 800395a:	3301      	adds	r3, #1
 800395c:	f8a7 3074 	strh.w	r3, [r7, #116]	; 0x74
  pbuf_free(p);
 8003960:	4620      	mov	r0, r4
}
 8003962:	b007      	add	sp, #28
 8003964:	e8bd 4ff0 	ldmia.w	sp!, {r4, r5, r6, r7, r8, r9, sl, fp, lr}
  pbuf_free(p);
 8003968:	f001 b8ab 	b.w	8004ac2 <pbuf_free>
    if (p->tot_len < sizeof(struct icmp_echo_hdr)) {
 800396c:	8923      	ldrh	r3, [r4, #8]
 800396e:	2b07      	cmp	r3, #7
 8003970:	f240 8085 	bls.w	8003a7e <icmp_input+0x192>
    if (inet_chksum_pbuf(p) != 0) {
 8003974:	4620      	mov	r0, r4
 8003976:	f000 f914 	bl	8003ba2 <inet_chksum_pbuf>
 800397a:	b150      	cbz	r0, 8003992 <icmp_input+0xa6>
      pbuf_free(p);
 800397c:	4620      	mov	r0, r4
 800397e:	f001 f8a0 	bl	8004ac2 <pbuf_free>
      ICMP_STATS_INC(icmp.chkerr);
 8003982:	f8b5 3068 	ldrh.w	r3, [r5, #104]	; 0x68
 8003986:	3301      	adds	r3, #1
 8003988:	f8a5 3068 	strh.w	r3, [r5, #104]	; 0x68
}
 800398c:	b007      	add	sp, #28
 800398e:	e8bd 8ff0 	ldmia.w	sp!, {r4, r5, r6, r7, r8, r9, sl, fp, pc}
    if (pbuf_header(p, (PBUF_IP_HLEN + PBUF_LINK_HLEN))) {
 8003992:	2122      	movs	r1, #34	; 0x22
 8003994:	4620      	mov	r0, r4
  hlen = IPH_HL(iphdr) * 4;
 8003996:	fa0f f58b 	sxth.w	r5, fp
    if (pbuf_header(p, (PBUF_IP_HLEN + PBUF_LINK_HLEN))) {
 800399a:	f001 f867 	bl	8004a6c <pbuf_header>
 800399e:	2800      	cmp	r0, #0
 80039a0:	d052      	beq.n	8003a48 <icmp_input+0x15c>
      if (pbuf_header(p, hlen)) {
 80039a2:	4629      	mov	r1, r5
 80039a4:	4620      	mov	r0, r4
 80039a6:	f001 f861 	bl	8004a6c <pbuf_header>
 80039aa:	2800      	cmp	r0, #0
 80039ac:	d153      	bne.n	8003a56 <icmp_input+0x16a>
      r = pbuf_alloc(PBUF_LINK, p->tot_len, PBUF_RAM);
 80039ae:	2200      	movs	r2, #0
 80039b0:	8921      	ldrh	r1, [r4, #8]
 80039b2:	2002      	movs	r0, #2
 80039b4:	f001 f8ac 	bl	8004b10 <pbuf_alloc>
      if (r == NULL) {
 80039b8:	4683      	mov	fp, r0
 80039ba:	2800      	cmp	r0, #0
 80039bc:	d04b      	beq.n	8003a56 <icmp_input+0x16a>
      if (pbuf_copy(r, p) != ERR_OK) {
 80039be:	4621      	mov	r1, r4
 80039c0:	f001 f97b 	bl	8004cba <pbuf_copy>
 80039c4:	2800      	cmp	r0, #0
 80039c6:	d146      	bne.n	8003a56 <icmp_input+0x16a>
      if (pbuf_header(r, -hlen)) {
 80039c8:	4651      	mov	r1, sl
 80039ca:	4658      	mov	r0, fp
      iphdr = (struct ip_hdr *)r->payload;
 80039cc:	f8db 6004 	ldr.w	r6, [fp, #4]
      if (pbuf_header(r, -hlen)) {
 80039d0:	f001 f84c 	bl	8004a6c <pbuf_header>
 80039d4:	2800      	cmp	r0, #0
 80039d6:	d13e      	bne.n	8003a56 <icmp_input+0x16a>
      pbuf_free(p);
 80039d8:	4620      	mov	r0, r4
 80039da:	f001 f872 	bl	8004ac2 <pbuf_free>
 80039de:	465c      	mov	r4, fp
    ip_addr_copy(iphdr->src, *ip_current_dest_addr());
 80039e0:	f8d9 3000 	ldr.w	r3, [r9]
    iecho = (struct icmp_echo_hdr *)p->payload;
 80039e4:	6862      	ldr	r2, [r4, #4]
    ip_addr_copy(iphdr->src, *ip_current_dest_addr());
 80039e6:	60f3      	str	r3, [r6, #12]
    ip_addr_copy(iphdr->dest, *ip_current_src_addr());
 80039e8:	4b2a      	ldr	r3, [pc, #168]	; (8003a94 <icmp_input+0x1a8>)
 80039ea:	681b      	ldr	r3, [r3, #0]
 80039ec:	6133      	str	r3, [r6, #16]
    ICMPH_TYPE_SET(iecho, ICMP_ER);
 80039ee:	2300      	movs	r3, #0
 80039f0:	7013      	strb	r3, [r2, #0]
    if (iecho->chksum >= PP_HTONS(0xffffU - (ICMP_ECHO << 8))) {
 80039f2:	8853      	ldrh	r3, [r2, #2]
 80039f4:	f64f 71f6 	movw	r1, #65526	; 0xfff6
 80039f8:	428b      	cmp	r3, r1
      iecho->chksum += PP_HTONS(ICMP_ECHO << 8) + 1;
 80039fa:	bf8c      	ite	hi
 80039fc:	3309      	addhi	r3, #9
      iecho->chksum += PP_HTONS(ICMP_ECHO << 8);
 80039fe:	3308      	addls	r3, #8
 8003a00:	8053      	strh	r3, [r2, #2]
    IPH_TTL_SET(iphdr, ICMP_TTL);
 8003a02:	f04f 09ff 	mov.w	r9, #255	; 0xff
    IPH_CHKSUM_SET(iphdr, 0);
 8003a06:	2300      	movs	r3, #0
 8003a08:	72b3      	strb	r3, [r6, #10]
 8003a0a:	72f3      	strb	r3, [r6, #11]
    IPH_CHKSUM_SET(iphdr, inet_chksum(iphdr, IP_HLEN));
 8003a0c:	2114      	movs	r1, #20
    IPH_TTL_SET(iphdr, ICMP_TTL);
 8003a0e:	f886 9008 	strb.w	r9, [r6, #8]
    IPH_CHKSUM_SET(iphdr, inet_chksum(iphdr, IP_HLEN));
 8003a12:	4630      	mov	r0, r6
 8003a14:	f000 f8bf 	bl	8003b96 <inet_chksum>
    ICMP_STATS_INC(icmp.xmit);
 8003a18:	f8b7 2060 	ldrh.w	r2, [r7, #96]	; 0x60
    IPH_CHKSUM_SET(iphdr, inet_chksum(iphdr, IP_HLEN));
 8003a1c:	8170      	strh	r0, [r6, #10]
    ICMP_STATS_INC(icmp.xmit);
 8003a1e:	3201      	adds	r2, #1
    if(pbuf_header(p, hlen)) {
 8003a20:	4629      	mov	r1, r5
 8003a22:	4620      	mov	r0, r4
    ICMP_STATS_INC(icmp.xmit);
 8003a24:	f8a7 2060 	strh.w	r2, [r7, #96]	; 0x60
    if(pbuf_header(p, hlen)) {
 8003a28:	f001 f820 	bl	8004a6c <pbuf_header>
 8003a2c:	4602      	mov	r2, r0
 8003a2e:	2800      	cmp	r0, #0
 8003a30:	d196      	bne.n	8003960 <icmp_input+0x74>
      ret = ip_output_if(p, ip_current_dest_addr(), IP_HDRINCL,
 8003a32:	2301      	movs	r3, #1
 8003a34:	e88d 000c 	stmia.w	sp, {r2, r3}
 8003a38:	f8cd 8008 	str.w	r8, [sp, #8]
 8003a3c:	464b      	mov	r3, r9
 8003a3e:	4916      	ldr	r1, [pc, #88]	; (8003a98 <icmp_input+0x1ac>)
 8003a40:	4620      	mov	r0, r4
 8003a42:	f000 f9f1 	bl	8003e28 <ip_output_if>
 8003a46:	e78b      	b.n	8003960 <icmp_input+0x74>
      if (pbuf_header(p, -(s16_t)(PBUF_IP_HLEN + PBUF_LINK_HLEN))) {
 8003a48:	f06f 0121 	mvn.w	r1, #33	; 0x21
 8003a4c:	4620      	mov	r0, r4
 8003a4e:	f001 f80d 	bl	8004a6c <pbuf_header>
 8003a52:	2800      	cmp	r0, #0
 8003a54:	d0c4      	beq.n	80039e0 <icmp_input+0xf4>
  pbuf_free(p);
 8003a56:	4620      	mov	r0, r4
 8003a58:	f001 f833 	bl	8004ac2 <pbuf_free>
  ICMP_STATS_INC(icmp.err);
 8003a5c:	f8b7 3074 	ldrh.w	r3, [r7, #116]	; 0x74
 8003a60:	3301      	adds	r3, #1
 8003a62:	f8a7 3074 	strh.w	r3, [r7, #116]	; 0x74
  return;
 8003a66:	e791      	b.n	800398c <icmp_input+0xa0>
    ICMP_STATS_INC(icmp.proterr);
 8003a68:	f8b5 3070 	ldrh.w	r3, [r5, #112]	; 0x70
 8003a6c:	3301      	adds	r3, #1
 8003a6e:	f8a5 3070 	strh.w	r3, [r5, #112]	; 0x70
    ICMP_STATS_INC(icmp.drop);
 8003a72:	f8b5 3066 	ldrh.w	r3, [r5, #102]	; 0x66
 8003a76:	3301      	adds	r3, #1
 8003a78:	f8a5 3066 	strh.w	r3, [r5, #102]	; 0x66
 8003a7c:	e770      	b.n	8003960 <icmp_input+0x74>
  pbuf_free(p);
 8003a7e:	4620      	mov	r0, r4
 8003a80:	f001 f81f 	bl	8004ac2 <pbuf_free>
  ICMP_STATS_INC(icmp.lenerr);
 8003a84:	f8b7 306a 	ldrh.w	r3, [r7, #106]	; 0x6a
 8003a88:	3301      	adds	r3, #1
 8003a8a:	f8a7 306a 	strh.w	r3, [r7, #106]	; 0x6a
  return;
 8003a8e:	e77d      	b.n	800398c <icmp_input+0xa0>
 8003a90:	2000aaca 	.word	0x2000aaca
 8003a94:	2000838c 	.word	0x2000838c
 8003a98:	20008394 	.word	0x20008394

08003a9c <icmp_dest_unreach>:
  icmp_send_response(p, ICMP_DUR, t);
 8003a9c:	460a      	mov	r2, r1
 8003a9e:	3004      	adds	r0, #4
 8003aa0:	2103      	movs	r1, #3
 8003aa2:	f7ff bedf 	b.w	8003864 <icmp_send_response.isra.0>

08003aa6 <icmp_time_exceeded>:
  icmp_send_response(p, ICMP_TE, t);
 8003aa6:	460a      	mov	r2, r1
 8003aa8:	3004      	adds	r0, #4
 8003aaa:	210b      	movs	r1, #11
 8003aac:	f7ff beda 	b.w	8003864 <icmp_send_response.isra.0>

08003ab0 <lwip_standard_chksum>:
 * @return host order (!) lwip checksum (non-inverted Internet sum) 
 */

static u16_t
lwip_standard_chksum(void *dataptr, int len)
{
 8003ab0:	b513      	push	{r0, r1, r4, lr}
  u8_t *pb = (u8_t *)dataptr;
  u16_t *ps, t = 0;
 8003ab2:	2300      	movs	r3, #0
  u32_t sum = 0;
  int odd = ((mem_ptr_t)pb & 1);

  /* Get aligned to u16_t */
  if (odd && len > 0) {
 8003ab4:	f010 0201 	ands.w	r2, r0, #1
  u16_t *ps, t = 0;
 8003ab8:	f8ad 3006 	strh.w	r3, [sp, #6]
  if (odd && len > 0) {
 8003abc:	d01f      	beq.n	8003afe <lwip_standard_chksum+0x4e>
 8003abe:	4299      	cmp	r1, r3
 8003ac0:	dd24      	ble.n	8003b0c <lwip_standard_chksum+0x5c>
    ((u8_t *)&t)[1] = *pb++;
 8003ac2:	1c43      	adds	r3, r0, #1
 8003ac4:	7800      	ldrb	r0, [r0, #0]
 8003ac6:	f88d 0007 	strb.w	r0, [sp, #7]
    len--;
 8003aca:	3901      	subs	r1, #1
  u32_t sum = 0;
 8003acc:	2000      	movs	r0, #0
  }

  /* Add the bulk of the data */
  ps = (u16_t *)(void *)pb;
  while (len > 1) {
 8003ace:	2901      	cmp	r1, #1
 8003ad0:	dc17      	bgt.n	8003b02 <lwip_standard_chksum+0x52>
    sum += *ps++;
    len -= 2;
  }

  /* Consume left-over byte, if any */
  if (len > 0) {
 8003ad2:	d102      	bne.n	8003ada <lwip_standard_chksum+0x2a>
    ((u8_t *)&t)[0] = *(u8_t *)ps;
 8003ad4:	781b      	ldrb	r3, [r3, #0]
 8003ad6:	f88d 3006 	strb.w	r3, [sp, #6]
  }

  /* Add end bytes */
  sum += t;
 8003ada:	f8bd 3006 	ldrh.w	r3, [sp, #6]
 8003ade:	4403      	add	r3, r0

  /* Fold 32-bit sum to 16 bits
     calling this twice is propably faster than if statements... */
  sum = FOLD_U32T(sum);
 8003ae0:	b298      	uxth	r0, r3
 8003ae2:	eb00 4313 	add.w	r3, r0, r3, lsr #16
  sum = FOLD_U32T(sum);
 8003ae6:	b298      	uxth	r0, r3
 8003ae8:	eb00 4013 	add.w	r0, r0, r3, lsr #16

  /* Swap if alignment was odd */
  if (odd) {
 8003aec:	b122      	cbz	r2, 8003af8 <lwip_standard_chksum+0x48>
    sum = SWAP_BYTES_IN_WORD(sum);
 8003aee:	0203      	lsls	r3, r0, #8
 8003af0:	b29b      	uxth	r3, r3
 8003af2:	f3c0 2007 	ubfx	r0, r0, #8, #8
 8003af6:	4318      	orrs	r0, r3
  }

  return (u16_t)sum;
}
 8003af8:	b280      	uxth	r0, r0
 8003afa:	b002      	add	sp, #8
 8003afc:	bd10      	pop	{r4, pc}
 8003afe:	4603      	mov	r3, r0
 8003b00:	e7e4      	b.n	8003acc <lwip_standard_chksum+0x1c>
    sum += *ps++;
 8003b02:	f833 4b02 	ldrh.w	r4, [r3], #2
    len -= 2;
 8003b06:	3902      	subs	r1, #2
    sum += *ps++;
 8003b08:	4420      	add	r0, r4
 8003b0a:	e7e0      	b.n	8003ace <lwip_standard_chksum+0x1e>
  u32_t sum = 0;
 8003b0c:	4618      	mov	r0, r3
 8003b0e:	e7e4      	b.n	8003ada <lwip_standard_chksum+0x2a>

08003b10 <inet_chksum_pseudo>:
 */
u16_t
inet_chksum_pseudo(struct pbuf *p,
       ip_addr_t *src, ip_addr_t *dest,
       u8_t proto, u16_t proto_len)
{
 8003b10:	e92d 43f8 	stmdb	sp!, {r3, r4, r5, r6, r7, r8, r9, lr}
  u32_t addr;
  struct pbuf *q;
  u8_t swapped;

  acc = 0;
  swapped = 0;
 8003b14:	2500      	movs	r5, #0
{
 8003b16:	4606      	mov	r6, r0
 8003b18:	4688      	mov	r8, r1
 8003b1a:	4691      	mov	r9, r2
 8003b1c:	461f      	mov	r7, r3
  acc = 0;
 8003b1e:	462c      	mov	r4, r5
  /* iterate through all pbuf in chain */
  for(q = p; q != NULL; q = q->next) {
 8003b20:	bb26      	cbnz	r6, 8003b6c <inet_chksum_pseudo+0x5c>
      acc = SWAP_BYTES_IN_WORD(acc);
    }
    /*LWIP_DEBUGF(INET_DEBUG, ("inet_chksum_pseudo(): wrapped lwip_chksum()=%"X32_F" \n", acc));*/
  }

  if (swapped) {
 8003b22:	b125      	cbz	r5, 8003b2e <inet_chksum_pseudo+0x1e>
    acc = SWAP_BYTES_IN_WORD(acc);
 8003b24:	0221      	lsls	r1, r4, #8
 8003b26:	b289      	uxth	r1, r1
 8003b28:	f3c4 2407 	ubfx	r4, r4, #8, #8
 8003b2c:	430c      	orrs	r4, r1
  }
  addr = ip4_addr_get_u32(src);
  acc += (addr & 0xffffUL);
  acc += ((addr >> 16) & 0xffffUL);
  addr = ip4_addr_get_u32(dest);
 8003b2e:	f8d9 2000 	ldr.w	r2, [r9]
  addr = ip4_addr_get_u32(src);
 8003b32:	f8d8 3000 	ldr.w	r3, [r8]
  acc += (addr & 0xffffUL);
  acc += ((addr >> 16) & 0xffffUL);
 8003b36:	0c10      	lsrs	r0, r2, #16
 8003b38:	fa10 f082 	uxtah	r0, r0, r2
 8003b3c:	fa10 f083 	uxtah	r0, r0, r3
 8003b40:	eb00 4013 	add.w	r0, r0, r3, lsr #16
 8003b44:	4404      	add	r4, r0
  acc += (u32_t)htons((u16_t)proto);
 8003b46:	4638      	mov	r0, r7
 8003b48:	f7ff fe70 	bl	800382c <lwip_htons>
 8003b4c:	4404      	add	r4, r0
  acc += (u32_t)htons(proto_len);
 8003b4e:	f8bd 0020 	ldrh.w	r0, [sp, #32]
 8003b52:	f7ff fe6b 	bl	800382c <lwip_htons>
 8003b56:	4420      	add	r0, r4

  /* Fold 32-bit sum to 16 bits
     calling this twice is propably faster than if statements... */
  acc = FOLD_U32T(acc);
 8003b58:	b284      	uxth	r4, r0
 8003b5a:	eb04 4410 	add.w	r4, r4, r0, lsr #16
  acc = FOLD_U32T(acc);
 8003b5e:	b2a0      	uxth	r0, r4
 8003b60:	eb00 4014 	add.w	r0, r0, r4, lsr #16
  LWIP_DEBUGF(INET_DEBUG, ("inet_chksum_pseudo(): pbuf chain lwip_chksum()=%"X32_F"\n", acc));
  return (u16_t)~(acc & 0xffffUL);
 8003b64:	43c0      	mvns	r0, r0
}
 8003b66:	b280      	uxth	r0, r0
 8003b68:	e8bd 83f8 	ldmia.w	sp!, {r3, r4, r5, r6, r7, r8, r9, pc}
    acc += LWIP_CHKSUM(q->payload, q->len);
 8003b6c:	8971      	ldrh	r1, [r6, #10]
 8003b6e:	6870      	ldr	r0, [r6, #4]
 8003b70:	f7ff ff9e 	bl	8003ab0 <lwip_standard_chksum>
    if (q->len % 2 != 0) {
 8003b74:	8973      	ldrh	r3, [r6, #10]
    acc += LWIP_CHKSUM(q->payload, q->len);
 8003b76:	4404      	add	r4, r0
    acc = FOLD_U32T(acc);
 8003b78:	b2a0      	uxth	r0, r4
    if (q->len % 2 != 0) {
 8003b7a:	07db      	lsls	r3, r3, #31
    acc = FOLD_U32T(acc);
 8003b7c:	eb00 4414 	add.w	r4, r0, r4, lsr #16
    if (q->len % 2 != 0) {
 8003b80:	d507      	bpl.n	8003b92 <inet_chksum_pseudo+0x82>
      acc = SWAP_BYTES_IN_WORD(acc);
 8003b82:	0223      	lsls	r3, r4, #8
      swapped = 1 - swapped;
 8003b84:	f1c5 0501 	rsb	r5, r5, #1
      acc = SWAP_BYTES_IN_WORD(acc);
 8003b88:	b29b      	uxth	r3, r3
 8003b8a:	f3c4 2407 	ubfx	r4, r4, #8, #8
      swapped = 1 - swapped;
 8003b8e:	b2ed      	uxtb	r5, r5
      acc = SWAP_BYTES_IN_WORD(acc);
 8003b90:	431c      	orrs	r4, r3
  for(q = p; q != NULL; q = q->next) {
 8003b92:	6836      	ldr	r6, [r6, #0]
 8003b94:	e7c4      	b.n	8003b20 <inet_chksum_pseudo+0x10>

08003b96 <inet_chksum>:
 * @return checksum (as u16_t) to be saved directly in the protocol header
 */

u16_t
inet_chksum(void *dataptr, u16_t len)
{
 8003b96:	b508      	push	{r3, lr}
  return ~LWIP_CHKSUM(dataptr, len);
 8003b98:	f7ff ff8a 	bl	8003ab0 <lwip_standard_chksum>
 8003b9c:	43c0      	mvns	r0, r0
}
 8003b9e:	b280      	uxth	r0, r0
 8003ba0:	bd08      	pop	{r3, pc}

08003ba2 <inet_chksum_pbuf>:
 * @param p pbuf chain over that the checksum should be calculated
 * @return checksum (as u16_t) to be saved directly in the protocol header
 */
u16_t
inet_chksum_pbuf(struct pbuf *p)
{
 8003ba2:	b570      	push	{r4, r5, r6, lr}
  u32_t acc;
  struct pbuf *q;
  u8_t swapped;

  acc = 0;
  swapped = 0;
 8003ba4:	2500      	movs	r5, #0
{
 8003ba6:	4606      	mov	r6, r0
  acc = 0;
 8003ba8:	462c      	mov	r4, r5
  for(q = p; q != NULL; q = q->next) {
 8003baa:	b946      	cbnz	r6, 8003bbe <inet_chksum_pbuf+0x1c>
      swapped = 1 - swapped;
      acc = SWAP_BYTES_IN_WORD(acc);
    }
  }

  if (swapped) {
 8003bac:	b125      	cbz	r5, 8003bb8 <inet_chksum_pbuf+0x16>
    acc = SWAP_BYTES_IN_WORD(acc);
 8003bae:	0223      	lsls	r3, r4, #8
 8003bb0:	b29b      	uxth	r3, r3
 8003bb2:	f3c4 2407 	ubfx	r4, r4, #8, #8
 8003bb6:	431c      	orrs	r4, r3
  }
  return (u16_t)~(acc & 0xffffUL);
 8003bb8:	43e0      	mvns	r0, r4
}
 8003bba:	b280      	uxth	r0, r0
 8003bbc:	bd70      	pop	{r4, r5, r6, pc}
    acc += LWIP_CHKSUM(q->payload, q->len);
 8003bbe:	8971      	ldrh	r1, [r6, #10]
 8003bc0:	6870      	ldr	r0, [r6, #4]
 8003bc2:	f7ff ff75 	bl	8003ab0 <lwip_standard_chksum>
    if (q->len % 2 != 0) {
 8003bc6:	8973      	ldrh	r3, [r6, #10]
    acc += LWIP_CHKSUM(q->payload, q->len);
 8003bc8:	4420      	add	r0, r4
    acc = FOLD_U32T(acc);
 8003bca:	b284      	uxth	r4, r0
    if (q->len % 2 != 0) {
 8003bcc:	07db      	lsls	r3, r3, #31
    acc = FOLD_U32T(acc);
 8003bce:	eb04 4410 	add.w	r4, r4, r0, lsr #16
    if (q->len % 2 != 0) {
 8003bd2:	d507      	bpl.n	8003be4 <inet_chksum_pbuf+0x42>
      acc = SWAP_BYTES_IN_WORD(acc);
 8003bd4:	0223      	lsls	r3, r4, #8
      swapped = 1 - swapped;
 8003bd6:	f1c5 0501 	rsb	r5, r5, #1
      acc = SWAP_BYTES_IN_WORD(acc);
 8003bda:	b29b      	uxth	r3, r3
 8003bdc:	f3c4 2407 	ubfx	r4, r4, #8, #8
      swapped = 1 - swapped;
 8003be0:	b2ed      	uxtb	r5, r5
      acc = SWAP_BYTES_IN_WORD(acc);
 8003be2:	431c      	orrs	r4, r3
  for(q = p; q != NULL; q = q->next) {
 8003be4:	6836      	ldr	r6, [r6, #0]
 8003be6:	e7e0      	b.n	8003baa <inet_chksum_pbuf+0x8>

08003be8 <ip_route>:
    return netif;
  }
#endif

  /* iterate through netifs */
  for (netif = netif_list; netif != NULL; netif = netif->next) {
 8003be8:	4b0f      	ldr	r3, [pc, #60]	; (8003c28 <ip_route+0x40>)
 8003bea:	681b      	ldr	r3, [r3, #0]
 8003bec:	b96b      	cbnz	r3, 8003c0a <ip_route+0x22>
        /* return netif on which to forward IP packet */
        return netif;
      }
    }
  }
  if ((netif_default == NULL) || (!netif_is_up(netif_default))) {
 8003bee:	4a0f      	ldr	r2, [pc, #60]	; (8003c2c <ip_route+0x44>)
 8003bf0:	6812      	ldr	r2, [r2, #0]
 8003bf2:	b11a      	cbz	r2, 8003bfc <ip_route+0x14>
 8003bf4:	f892 1029 	ldrb.w	r1, [r2, #41]	; 0x29
 8003bf8:	07c9      	lsls	r1, r1, #31
 8003bfa:	d412      	bmi.n	8003c22 <ip_route+0x3a>
    LWIP_DEBUGF(IP_DEBUG | LWIP_DBG_LEVEL_SERIOUS, ("ip_route: No route to %"U16_F".%"U16_F".%"U16_F".%"U16_F"\n",
      ip4_addr1_16(dest), ip4_addr2_16(dest), ip4_addr3_16(dest), ip4_addr4_16(dest)));
    IP_STATS_INC(ip.rterr);
 8003bfc:	490c      	ldr	r1, [pc, #48]	; (8003c30 <ip_route+0x48>)
 8003bfe:	f8b1 2056 	ldrh.w	r2, [r1, #86]	; 0x56
 8003c02:	3201      	adds	r2, #1
 8003c04:	f8a1 2056 	strh.w	r2, [r1, #86]	; 0x56
 8003c08:	e009      	b.n	8003c1e <ip_route+0x36>
    if (netif_is_up(netif)) {
 8003c0a:	f893 2029 	ldrb.w	r2, [r3, #41]	; 0x29
 8003c0e:	07d2      	lsls	r2, r2, #31
 8003c10:	d5eb      	bpl.n	8003bea <ip_route+0x2>
      if (ip_addr_netcmp(dest, &(netif->ip_addr), &(netif->netmask))) {
 8003c12:	6859      	ldr	r1, [r3, #4]
 8003c14:	6802      	ldr	r2, [r0, #0]
 8003c16:	404a      	eors	r2, r1
 8003c18:	6899      	ldr	r1, [r3, #8]
 8003c1a:	420a      	tst	r2, r1
 8003c1c:	d1e5      	bne.n	8003bea <ip_route+0x2>
    snmp_inc_ipoutnoroutes();
    return NULL;
  }
  /* no matching netif found, use default netif */
  return netif_default;
}
 8003c1e:	4618      	mov	r0, r3
 8003c20:	4770      	bx	lr
 8003c22:	4613      	mov	r3, r2
 8003c24:	e7fb      	b.n	8003c1e <ip_route+0x36>
 8003c26:	bf00      	nop
 8003c28:	2000aac0 	.word	0x2000aac0
 8003c2c:	2000aac4 	.word	0x2000aac4
 8003c30:	2000aaca 	.word	0x2000aaca

08003c34 <ip_input>:
 * @return ERR_OK if the packet was processed (could return ERR_* if it wasn't
 *         processed, but currently always returns ERR_OK)
 */
err_t
ip_input(struct pbuf *p, struct netif *inp)
{
 8003c34:	e92d 4ff7 	stmdb	sp!, {r0, r1, r2, r4, r5, r6, r7, r8, r9, sl, fp, lr}
  u16_t iphdr_len;
#if IP_ACCEPT_LINK_LAYER_ADDRESSING
  int check_ip_src=1;
#endif /* IP_ACCEPT_LINK_LAYER_ADDRESSING */

  IP_STATS_INC(ip.recv);
 8003c38:	4e75      	ldr	r6, [pc, #468]	; (8003e10 <ip_input+0x1dc>)
  snmp_inc_ipinreceives();

  /* identify the IP header */
  iphdr = (struct ip_hdr *)p->payload;
 8003c3a:	6845      	ldr	r5, [r0, #4]
  IP_STATS_INC(ip.recv);
 8003c3c:	f8b6 304a 	ldrh.w	r3, [r6, #74]	; 0x4a
 8003c40:	3301      	adds	r3, #1
 8003c42:	f8a6 304a 	strh.w	r3, [r6, #74]	; 0x4a
  if (IPH_V(iphdr) != 4) {
 8003c46:	f895 9000 	ldrb.w	r9, [r5]
 8003c4a:	ea4f 1319 	mov.w	r3, r9, lsr #4
 8003c4e:	2b04      	cmp	r3, #4
{
 8003c50:	4604      	mov	r4, r0
 8003c52:	460f      	mov	r7, r1
 8003c54:	46b0      	mov	r8, r6
  if (IPH_V(iphdr) != 4) {
 8003c56:	d00f      	beq.n	8003c78 <ip_input+0x44>
    LWIP_DEBUGF(IP_DEBUG | LWIP_DBG_LEVEL_WARNING, ("IP packet dropped due to bad version number %"U16_F"\n", IPH_V(iphdr)));
    ip_debug_print(p);
    pbuf_free(p);
 8003c58:	f000 ff33 	bl	8004ac2 <pbuf_free>
    IP_STATS_INC(ip.err);
 8003c5c:	f8b6 305c 	ldrh.w	r3, [r6, #92]	; 0x5c
 8003c60:	3301      	adds	r3, #1
 8003c62:	f8a6 305c 	strh.w	r3, [r6, #92]	; 0x5c
    LWIP_DEBUGF(IP_DEBUG | LWIP_DBG_LEVEL_SERIOUS,
      ("Checksum (0x%"X16_F") failed, IP packet dropped.\n", inet_chksum(iphdr, iphdr_hlen)));
    ip_debug_print(p);
    pbuf_free(p);
    IP_STATS_INC(ip.chkerr);
    IP_STATS_INC(ip.drop);
 8003c66:	f8b6 304e 	ldrh.w	r3, [r6, #78]	; 0x4e
 8003c6a:	3301      	adds	r3, #1
 8003c6c:	f8a6 304e 	strh.w	r3, [r6, #78]	; 0x4e
  current_header = NULL;
  ip_addr_set_any(&current_iphdr_src);
  ip_addr_set_any(&current_iphdr_dest);

  return ERR_OK;
}
 8003c70:	2000      	movs	r0, #0
 8003c72:	b003      	add	sp, #12
 8003c74:	e8bd 8ff0 	ldmia.w	sp!, {r4, r5, r6, r7, r8, r9, sl, fp, pc}
  iphdr_len = ntohs(IPH_LEN(iphdr));
 8003c78:	8868      	ldrh	r0, [r5, #2]
 8003c7a:	f7ff fdda 	bl	8003832 <lwip_ntohs>
  iphdr_hlen = IPH_HL(iphdr);
 8003c7e:	f009 090f 	and.w	r9, r9, #15
  if ((iphdr_hlen > p->len) || (iphdr_len > p->tot_len)) {
 8003c82:	8963      	ldrh	r3, [r4, #10]
  iphdr_hlen *= 4;
 8003c84:	ea4f 0989 	mov.w	r9, r9, lsl #2
  if ((iphdr_hlen > p->len) || (iphdr_len > p->tot_len)) {
 8003c88:	454b      	cmp	r3, r9
  iphdr_len = ntohs(IPH_LEN(iphdr));
 8003c8a:	4682      	mov	sl, r0
  if ((iphdr_hlen > p->len) || (iphdr_len > p->tot_len)) {
 8003c8c:	d302      	bcc.n	8003c94 <ip_input+0x60>
 8003c8e:	8923      	ldrh	r3, [r4, #8]
 8003c90:	4283      	cmp	r3, r0
 8003c92:	d20d      	bcs.n	8003cb0 <ip_input+0x7c>
    pbuf_free(p);
 8003c94:	4620      	mov	r0, r4
 8003c96:	f000 ff14 	bl	8004ac2 <pbuf_free>
    IP_STATS_INC(ip.lenerr);
 8003c9a:	f8b8 3052 	ldrh.w	r3, [r8, #82]	; 0x52
 8003c9e:	3301      	adds	r3, #1
 8003ca0:	f8a8 3052 	strh.w	r3, [r8, #82]	; 0x52
      IP_STATS_INC(ip.drop);
 8003ca4:	f8b8 304e 	ldrh.w	r3, [r8, #78]	; 0x4e
 8003ca8:	3301      	adds	r3, #1
 8003caa:	f8a8 304e 	strh.w	r3, [r8, #78]	; 0x4e
      return ERR_OK;
 8003cae:	e7df      	b.n	8003c70 <ip_input+0x3c>
  if (inet_chksum(iphdr, iphdr_hlen) != 0) {
 8003cb0:	4649      	mov	r1, r9
 8003cb2:	4628      	mov	r0, r5
 8003cb4:	f7ff ff6f 	bl	8003b96 <inet_chksum>
 8003cb8:	b140      	cbz	r0, 8003ccc <ip_input+0x98>
    pbuf_free(p);
 8003cba:	4620      	mov	r0, r4
 8003cbc:	f000 ff01 	bl	8004ac2 <pbuf_free>
    IP_STATS_INC(ip.chkerr);
 8003cc0:	f8b6 3050 	ldrh.w	r3, [r6, #80]	; 0x50
 8003cc4:	3301      	adds	r3, #1
 8003cc6:	f8a6 3050 	strh.w	r3, [r6, #80]	; 0x50
 8003cca:	e7cc      	b.n	8003c66 <ip_input+0x32>
  pbuf_realloc(p, iphdr_len);
 8003ccc:	4651      	mov	r1, sl
 8003cce:	4620      	mov	r0, r4
 8003cd0:	f000 ffaa 	bl	8004c28 <pbuf_realloc>
  ip_addr_copy(current_iphdr_dest, iphdr->dest);
 8003cd4:	494f      	ldr	r1, [pc, #316]	; (8003e14 <ip_input+0x1e0>)
 8003cd6:	692b      	ldr	r3, [r5, #16]
  ip_addr_copy(current_iphdr_src, iphdr->src);
 8003cd8:	4a4f      	ldr	r2, [pc, #316]	; (8003e18 <ip_input+0x1e4>)
  ip_addr_copy(current_iphdr_dest, iphdr->dest);
 8003cda:	600b      	str	r3, [r1, #0]
  ip_addr_copy(current_iphdr_src, iphdr->src);
 8003cdc:	68eb      	ldr	r3, [r5, #12]
 8003cde:	6013      	str	r3, [r2, #0]
 8003ce0:	4693      	mov	fp, r2
        netif = netif_list;
 8003ce2:	4a4e      	ldr	r2, [pc, #312]	; (8003e1c <ip_input+0x1e8>)
  ip_addr_copy(current_iphdr_src, iphdr->src);
 8003ce4:	463e      	mov	r6, r7
    int first = 1;
 8003ce6:	2301      	movs	r3, #1
 8003ce8:	468a      	mov	sl, r1
      if ((netif_is_up(netif)) && (!ip_addr_isany(&(netif->ip_addr)))) {
 8003cea:	f896 1029 	ldrb.w	r1, [r6, #41]	; 0x29
 8003cee:	07c9      	lsls	r1, r1, #31
 8003cf0:	d402      	bmi.n	8003cf8 <ip_input+0xc4>
      if (first) {
 8003cf2:	bb13      	cbnz	r3, 8003d3a <ip_input+0x106>
        netif = netif->next;
 8003cf4:	6836      	ldr	r6, [r6, #0]
 8003cf6:	e021      	b.n	8003d3c <ip_input+0x108>
      if ((netif_is_up(netif)) && (!ip_addr_isany(&(netif->ip_addr)))) {
 8003cf8:	6871      	ldr	r1, [r6, #4]
 8003cfa:	2900      	cmp	r1, #0
 8003cfc:	d0f9      	beq.n	8003cf2 <ip_input+0xbe>
        if (ip_addr_cmp(&current_iphdr_dest, &(netif->ip_addr)) ||
 8003cfe:	f8da 0000 	ldr.w	r0, [sl]
 8003d02:	9201      	str	r2, [sp, #4]
 8003d04:	4281      	cmp	r1, r0
 8003d06:	9300      	str	r3, [sp, #0]
 8003d08:	d006      	beq.n	8003d18 <ip_input+0xe4>
            ip_addr_isbroadcast(&current_iphdr_dest, netif)) {
 8003d0a:	4631      	mov	r1, r6
 8003d0c:	f000 f93a 	bl	8003f84 <ip4_addr_isbroadcast>
        if (ip_addr_cmp(&current_iphdr_dest, &(netif->ip_addr)) ||
 8003d10:	9b00      	ldr	r3, [sp, #0]
 8003d12:	9a01      	ldr	r2, [sp, #4]
 8003d14:	2800      	cmp	r0, #0
 8003d16:	d0ec      	beq.n	8003cf2 <ip_input+0xbe>
  if (check_ip_src && !ip_addr_isany(&current_iphdr_src))
 8003d18:	f8db 0000 	ldr.w	r0, [fp]
 8003d1c:	b1f0      	cbz	r0, 8003d5c <ip_input+0x128>
  {  if ((ip_addr_isbroadcast(&current_iphdr_src, inp)) ||
 8003d1e:	4639      	mov	r1, r7
 8003d20:	f000 f930 	bl	8003f84 <ip4_addr_isbroadcast>
 8003d24:	b928      	cbnz	r0, 8003d32 <ip_input+0xfe>
         (ip_addr_ismulticast(&current_iphdr_src))) {
 8003d26:	f8db 3000 	ldr.w	r3, [fp]
 8003d2a:	f003 03f0 	and.w	r3, r3, #240	; 0xf0
  {  if ((ip_addr_isbroadcast(&current_iphdr_src, inp)) ||
 8003d2e:	2be0      	cmp	r3, #224	; 0xe0
 8003d30:	d114      	bne.n	8003d5c <ip_input+0x128>
      pbuf_free(p);
 8003d32:	4620      	mov	r0, r4
 8003d34:	f000 fec5 	bl	8004ac2 <pbuf_free>
 8003d38:	e7b4      	b.n	8003ca4 <ip_input+0x70>
        netif = netif_list;
 8003d3a:	6816      	ldr	r6, [r2, #0]
      if (netif == inp) {
 8003d3c:	42be      	cmp	r6, r7
        netif = netif->next;
 8003d3e:	bf08      	it	eq
 8003d40:	6836      	ldreq	r6, [r6, #0]
 8003d42:	2300      	movs	r3, #0
    } while(netif != NULL);
 8003d44:	2e00      	cmp	r6, #0
 8003d46:	d1d0      	bne.n	8003cea <ip_input+0xb6>
    if (IPH_PROTO(iphdr) == IP_PROTO_UDP) {
 8003d48:	7a6b      	ldrb	r3, [r5, #9]
 8003d4a:	2b11      	cmp	r3, #17
 8003d4c:	d1e4      	bne.n	8003d18 <ip_input+0xe4>
      if (IP_ACCEPT_LINK_LAYER_ADDRESSED_PORT(udphdr->dest)) {
 8003d4e:	44a9      	add	r9, r5
 8003d50:	f8b9 3002 	ldrh.w	r3, [r9, #2]
 8003d54:	f5b3 4f86 	cmp.w	r3, #17152	; 0x4300
 8003d58:	d1de      	bne.n	8003d18 <ip_input+0xe4>
 8003d5a:	463e      	mov	r6, r7
  if (netif == NULL) {
 8003d5c:	b91e      	cbnz	r6, 8003d66 <ip_input+0x132>
    pbuf_free(p);
 8003d5e:	4620      	mov	r0, r4
 8003d60:	f000 feaf 	bl	8004ac2 <pbuf_free>
    return ERR_OK;
 8003d64:	e784      	b.n	8003c70 <ip_input+0x3c>
  if ((IPH_OFFSET(iphdr) & PP_HTONS(IP_OFFMASK | IP_MF)) != 0) {
 8003d66:	88eb      	ldrh	r3, [r5, #6]
 8003d68:	f023 03c0 	bic.w	r3, r3, #192	; 0xc0
 8003d6c:	b13b      	cbz	r3, 8003d7e <ip_input+0x14a>
    p = ip_reass(p);
 8003d6e:	4620      	mov	r0, r4
 8003d70:	f000 f9c4 	bl	80040fc <ip_reass>
    if (p == NULL) {
 8003d74:	4604      	mov	r4, r0
 8003d76:	2800      	cmp	r0, #0
 8003d78:	f43f af7a 	beq.w	8003c70 <ip_input+0x3c>
    iphdr = (struct ip_hdr *)p->payload;
 8003d7c:	6845      	ldr	r5, [r0, #4]
  current_netif = inp;
 8003d7e:	f8df 90a4 	ldr.w	r9, [pc, #164]	; 8003e24 <ip_input+0x1f0>
  current_header = iphdr;
 8003d82:	4e27      	ldr	r6, [pc, #156]	; (8003e20 <ip_input+0x1ec>)
  current_netif = inp;
 8003d84:	f8c9 7000 	str.w	r7, [r9]
  if (raw_input(p, inp) == 0)
 8003d88:	4639      	mov	r1, r7
 8003d8a:	4620      	mov	r0, r4
  current_header = iphdr;
 8003d8c:	6035      	str	r5, [r6, #0]
  if (raw_input(p, inp) == 0)
 8003d8e:	f001 f811 	bl	8004db4 <raw_input>
 8003d92:	b978      	cbnz	r0, 8003db4 <ip_input+0x180>
    switch (IPH_PROTO(iphdr)) {
 8003d94:	7a6b      	ldrb	r3, [r5, #9]
 8003d96:	2b06      	cmp	r3, #6
 8003d98:	d015      	beq.n	8003dc6 <ip_input+0x192>
 8003d9a:	2b11      	cmp	r3, #17
 8003d9c:	d006      	beq.n	8003dac <ip_input+0x178>
 8003d9e:	2b01      	cmp	r3, #1
 8003da0:	d116      	bne.n	8003dd0 <ip_input+0x19c>
      icmp_input(p, inp);
 8003da2:	4639      	mov	r1, r7
 8003da4:	4620      	mov	r0, r4
 8003da6:	f7ff fda1 	bl	80038ec <icmp_input>
      break;
 8003daa:	e003      	b.n	8003db4 <ip_input+0x180>
      udp_input(p, inp);
 8003dac:	4639      	mov	r1, r7
 8003dae:	4620      	mov	r0, r4
 8003db0:	f003 f9c6 	bl	8007140 <udp_input>
  current_netif = NULL;
 8003db4:	2300      	movs	r3, #0
 8003db6:	f8c9 3000 	str.w	r3, [r9]
  current_header = NULL;
 8003dba:	6033      	str	r3, [r6, #0]
  ip_addr_set_any(&current_iphdr_src);
 8003dbc:	f8cb 3000 	str.w	r3, [fp]
  ip_addr_set_any(&current_iphdr_dest);
 8003dc0:	f8ca 3000 	str.w	r3, [sl]
  return ERR_OK;
 8003dc4:	e754      	b.n	8003c70 <ip_input+0x3c>
      tcp_input(p, inp);
 8003dc6:	4639      	mov	r1, r7
 8003dc8:	4620      	mov	r0, r4
 8003dca:	f002 f8ff 	bl	8005fcc <tcp_input>
      break;
 8003dce:	e7f1      	b.n	8003db4 <ip_input+0x180>
      if (!ip_addr_isbroadcast(&current_iphdr_dest, inp) &&
 8003dd0:	4639      	mov	r1, r7
 8003dd2:	f8da 0000 	ldr.w	r0, [sl]
 8003dd6:	f000 f8d5 	bl	8003f84 <ip4_addr_isbroadcast>
 8003dda:	b950      	cbnz	r0, 8003df2 <ip_input+0x1be>
          !ip_addr_ismulticast(&current_iphdr_dest)) {
 8003ddc:	f8da 3000 	ldr.w	r3, [sl]
 8003de0:	f003 03f0 	and.w	r3, r3, #240	; 0xf0
      if (!ip_addr_isbroadcast(&current_iphdr_dest, inp) &&
 8003de4:	2be0      	cmp	r3, #224	; 0xe0
 8003de6:	d004      	beq.n	8003df2 <ip_input+0x1be>
        p->payload = iphdr;
 8003de8:	6065      	str	r5, [r4, #4]
        icmp_dest_unreach(p, ICMP_DUR_PROTO);
 8003dea:	2102      	movs	r1, #2
 8003dec:	4620      	mov	r0, r4
 8003dee:	f7ff fe55 	bl	8003a9c <icmp_dest_unreach>
      pbuf_free(p);
 8003df2:	4620      	mov	r0, r4
 8003df4:	f000 fe65 	bl	8004ac2 <pbuf_free>
      IP_STATS_INC(ip.proterr);
 8003df8:	f8b8 3058 	ldrh.w	r3, [r8, #88]	; 0x58
 8003dfc:	3301      	adds	r3, #1
 8003dfe:	f8a8 3058 	strh.w	r3, [r8, #88]	; 0x58
      IP_STATS_INC(ip.drop);
 8003e02:	f8b8 304e 	ldrh.w	r3, [r8, #78]	; 0x4e
 8003e06:	3301      	adds	r3, #1
 8003e08:	f8a8 304e 	strh.w	r3, [r8, #78]	; 0x4e
 8003e0c:	e7d2      	b.n	8003db4 <ip_input+0x180>
 8003e0e:	bf00      	nop
 8003e10:	2000aaca 	.word	0x2000aaca
 8003e14:	20008394 	.word	0x20008394
 8003e18:	2000838c 	.word	0x2000838c
 8003e1c:	2000aac0 	.word	0x2000aac0
 8003e20:	20008398 	.word	0x20008398
 8003e24:	20008390 	.word	0x20008390

08003e28 <ip_output_if>:
 */
err_t
ip_output_if(struct pbuf *p, ip_addr_t *src, ip_addr_t *dest,
             u8_t ttl, u8_t tos,
             u8_t proto, struct netif *netif)
{
 8003e28:	e92d 4ff0 	stmdb	sp!, {r4, r5, r6, r7, r8, r9, sl, fp, lr}
 8003e2c:	b085      	sub	sp, #20
 8003e2e:	461c      	mov	r4, r3
 8003e30:	f89d 303c 	ldrb.w	r3, [sp, #60]	; 0x3c
 8003e34:	f89d b038 	ldrb.w	fp, [sp, #56]	; 0x38
 8003e38:	9301      	str	r3, [sp, #4]
 8003e3a:	4606      	mov	r6, r0
 8003e3c:	468a      	mov	sl, r1
 8003e3e:	9f10      	ldr	r7, [sp, #64]	; 0x40
 8003e40:	f8df 80f4 	ldr.w	r8, [pc, #244]	; 8003f38 <ip_output_if+0x110>
  LWIP_ASSERT("p->ref == 1", p->ref == 1);

  snmp_inc_ipoutrequests();

  /* Should the IP header be generated or is it already included in p? */
  if (dest != IP_HDRINCL) {
 8003e44:	4615      	mov	r5, r2
 8003e46:	2a00      	cmp	r2, #0
 8003e48:	d067      	beq.n	8003f1a <ip_output_if+0xf2>
      }
#endif /* CHECKSUM_GEN_IP_INLINE */
    }
#endif /* IP_OPTIONS_SEND */
    /* generate IP header */
    if (pbuf_header(p, IP_HLEN)) {
 8003e4a:	2114      	movs	r1, #20
 8003e4c:	f000 fe0e 	bl	8004a6c <pbuf_header>
 8003e50:	9b01      	ldr	r3, [sp, #4]
 8003e52:	b148      	cbz	r0, 8003e68 <ip_output_if+0x40>
      LWIP_DEBUGF(IP_DEBUG | LWIP_DBG_LEVEL_SERIOUS, ("ip_output: not enough room for IP header in pbuf\n"));

      IP_STATS_INC(ip.err);
 8003e54:	f8b8 305c 	ldrh.w	r3, [r8, #92]	; 0x5c
 8003e58:	3301      	adds	r3, #1
 8003e5a:	f8a8 305c 	strh.w	r3, [r8, #92]	; 0x5c
      snmp_inc_ipoutdiscards();
      return ERR_BUF;
 8003e5e:	f06f 0001 	mvn.w	r0, #1
  }
#endif /* IP_FRAG */

  LWIP_DEBUGF(IP_DEBUG, ("netif->output()"));
  return netif->output(netif, p, dest);
}
 8003e62:	b005      	add	sp, #20
 8003e64:	e8bd 8ff0 	ldmia.w	sp!, {r4, r5, r6, r7, r8, r9, sl, fp, pc}
    iphdr = (struct ip_hdr *)p->payload;
 8003e68:	f8d6 9004 	ldr.w	r9, [r6, #4]
 8003e6c:	9001      	str	r0, [sp, #4]
    IPH_TTL_SET(iphdr, ttl);
 8003e6e:	f889 4008 	strb.w	r4, [r9, #8]
    IPH_PROTO_SET(iphdr, proto);
 8003e72:	f889 3009 	strb.w	r3, [r9, #9]
    ip_addr_copy(iphdr->dest, *dest);
 8003e76:	6828      	ldr	r0, [r5, #0]
    IPH_TOS_SET(iphdr, tos);
 8003e78:	f889 b001 	strb.w	fp, [r9, #1]
    IPH_VHL_SET(iphdr, 4, ip_hlen / 4);
 8003e7c:	2145      	movs	r1, #69	; 0x45
    chk_sum += LWIP_MAKE_U16(proto, ttl);
 8003e7e:	ea44 2403 	orr.w	r4, r4, r3, lsl #8
    chk_sum += LWIP_MAKE_U16(tos, iphdr->_v_hl);
 8003e82:	ea4f 2b0b 	mov.w	fp, fp, lsl #8
 8003e86:	ea4b 0b01 	orr.w	fp, fp, r1
    chk_sum += ip4_addr_get_u32(&iphdr->dest) & 0xFFFF;
 8003e8a:	fa14 f480 	uxtah	r4, r4, r0
    IPH_VHL_SET(iphdr, 4, ip_hlen / 4);
 8003e8e:	f889 1000 	strb.w	r1, [r9]
 8003e92:	445c      	add	r4, fp
    ip_addr_copy(iphdr->dest, *dest);
 8003e94:	f8c9 0010 	str.w	r0, [r9, #16]
 8003e98:	eb04 4410 	add.w	r4, r4, r0, lsr #16
    IPH_LEN_SET(iphdr, htons(p->tot_len));
 8003e9c:	8930      	ldrh	r0, [r6, #8]
 8003e9e:	f7ff fcc5 	bl	800382c <lwip_htons>
    IPH_ID_SET(iphdr, htons(ip_id));
 8003ea2:	4b24      	ldr	r3, [pc, #144]	; (8003f34 <ip_output_if+0x10c>)
    IPH_OFFSET_SET(iphdr, 0);
 8003ea4:	9a01      	ldr	r2, [sp, #4]
    IPH_LEN_SET(iphdr, htons(p->tot_len));
 8003ea6:	f8a9 0002 	strh.w	r0, [r9, #2]
    IPH_OFFSET_SET(iphdr, 0);
 8003eaa:	f889 2006 	strb.w	r2, [r9, #6]
 8003eae:	f889 2007 	strb.w	r2, [r9, #7]
    IPH_LEN_SET(iphdr, htons(p->tot_len));
 8003eb2:	4683      	mov	fp, r0
    IPH_ID_SET(iphdr, htons(ip_id));
 8003eb4:	8818      	ldrh	r0, [r3, #0]
 8003eb6:	9301      	str	r3, [sp, #4]
 8003eb8:	f7ff fcb8 	bl	800382c <lwip_htons>
    ++ip_id;
 8003ebc:	9b01      	ldr	r3, [sp, #4]
    IPH_ID_SET(iphdr, htons(ip_id));
 8003ebe:	f8a9 0004 	strh.w	r0, [r9, #4]
    ++ip_id;
 8003ec2:	881a      	ldrh	r2, [r3, #0]
 8003ec4:	3201      	adds	r2, #1
 8003ec6:	801a      	strh	r2, [r3, #0]
    if (ip_addr_isany(src)) {
 8003ec8:	f1ba 0f00 	cmp.w	sl, #0
 8003ecc:	d002      	beq.n	8003ed4 <ip_output_if+0xac>
 8003ece:	f8da 3000 	ldr.w	r3, [sl]
 8003ed2:	b903      	cbnz	r3, 8003ed6 <ip_output_if+0xae>
      ip_addr_copy(iphdr->src, netif->ip_addr);
 8003ed4:	687b      	ldr	r3, [r7, #4]
      ip_addr_copy(iphdr->src, *src);
 8003ed6:	f8c9 300c 	str.w	r3, [r9, #12]
    chk_sum += ip4_addr_get_u32(&iphdr->src) & 0xFFFF;
 8003eda:	f8d9 300c 	ldr.w	r3, [r9, #12]
    chk_sum += ip4_addr_get_u32(&iphdr->src) >> 16;
 8003ede:	fa14 f483 	uxtah	r4, r4, r3
 8003ee2:	eb04 4413 	add.w	r4, r4, r3, lsr #16
 8003ee6:	445c      	add	r4, fp
 8003ee8:	4420      	add	r0, r4
    chk_sum = (chk_sum >> 16) + (chk_sum & 0xFFFF);
 8003eea:	b283      	uxth	r3, r0
 8003eec:	eb03 4010 	add.w	r0, r3, r0, lsr #16
    chk_sum = (chk_sum >> 16) + chk_sum;
 8003ef0:	eb00 4010 	add.w	r0, r0, r0, lsr #16
    iphdr->_chksum = chk_sum; /* network order */
 8003ef4:	43c0      	mvns	r0, r0
 8003ef6:	f8a9 000a 	strh.w	r0, [r9, #10]
  IP_STATS_INC(ip.xmit);
 8003efa:	f8b8 3048 	ldrh.w	r3, [r8, #72]	; 0x48
 8003efe:	3301      	adds	r3, #1
 8003f00:	f8a8 3048 	strh.w	r3, [r8, #72]	; 0x48
  if (netif->mtu && (p->tot_len > netif->mtu)) {
 8003f04:	8c3b      	ldrh	r3, [r7, #32]
 8003f06:	b173      	cbz	r3, 8003f26 <ip_output_if+0xfe>
 8003f08:	8932      	ldrh	r2, [r6, #8]
 8003f0a:	429a      	cmp	r2, r3
 8003f0c:	d90b      	bls.n	8003f26 <ip_output_if+0xfe>
    return ip_frag(p, netif, dest);
 8003f0e:	462a      	mov	r2, r5
 8003f10:	4639      	mov	r1, r7
 8003f12:	4630      	mov	r0, r6
 8003f14:	f000 fa6e 	bl	80043f4 <ip_frag>
 8003f18:	e7a3      	b.n	8003e62 <ip_output_if+0x3a>
    ip_addr_copy(dest_addr, iphdr->dest);
 8003f1a:	6843      	ldr	r3, [r0, #4]
 8003f1c:	ad04      	add	r5, sp, #16
 8003f1e:	691b      	ldr	r3, [r3, #16]
 8003f20:	f845 3d04 	str.w	r3, [r5, #-4]!
 8003f24:	e7e9      	b.n	8003efa <ip_output_if+0xd2>
  return netif->output(netif, p, dest);
 8003f26:	697b      	ldr	r3, [r7, #20]
 8003f28:	462a      	mov	r2, r5
 8003f2a:	4631      	mov	r1, r6
 8003f2c:	4638      	mov	r0, r7
 8003f2e:	4798      	blx	r3
 8003f30:	e797      	b.n	8003e62 <ip_output_if+0x3a>
 8003f32:	bf00      	nop
 8003f34:	2000088c 	.word	0x2000088c
 8003f38:	2000aaca 	.word	0x2000aaca

08003f3c <ip_output>:
 *         see ip_output_if() for more return values
 */
err_t
ip_output(struct pbuf *p, ip_addr_t *src, ip_addr_t *dest,
          u8_t ttl, u8_t tos, u8_t proto)
{
 8003f3c:	b5f0      	push	{r4, r5, r6, r7, lr}
 8003f3e:	4605      	mov	r5, r0
 8003f40:	b085      	sub	sp, #20

  /* pbufs passed to IP must have a ref-count of 1 as their payload pointer
     gets altered as the packet is passed down the stack */
  LWIP_ASSERT("p->ref == 1", p->ref == 1);

  if ((netif = ip_route(dest)) == NULL) {
 8003f42:	4610      	mov	r0, r2
{
 8003f44:	460e      	mov	r6, r1
 8003f46:	4614      	mov	r4, r2
 8003f48:	461f      	mov	r7, r3
  if ((netif = ip_route(dest)) == NULL) {
 8003f4a:	f7ff fe4d 	bl	8003be8 <ip_route>
 8003f4e:	b948      	cbnz	r0, 8003f64 <ip_output+0x28>
    LWIP_DEBUGF(IP_DEBUG, ("ip_output: No route to %"U16_F".%"U16_F".%"U16_F".%"U16_F"\n",
      ip4_addr1_16(dest), ip4_addr2_16(dest), ip4_addr3_16(dest), ip4_addr4_16(dest)));
    IP_STATS_INC(ip.rterr);
 8003f50:	4a0b      	ldr	r2, [pc, #44]	; (8003f80 <ip_output+0x44>)
 8003f52:	f8b2 3056 	ldrh.w	r3, [r2, #86]	; 0x56
 8003f56:	3301      	adds	r3, #1
 8003f58:	f8a2 3056 	strh.w	r3, [r2, #86]	; 0x56
    return ERR_RTE;
 8003f5c:	f06f 0003 	mvn.w	r0, #3
  }

  return ip_output_if(p, src, dest, ttl, tos, proto, netif);
}
 8003f60:	b005      	add	sp, #20
 8003f62:	bdf0      	pop	{r4, r5, r6, r7, pc}
  return ip_output_if(p, src, dest, ttl, tos, proto, netif);
 8003f64:	f89d 302c 	ldrb.w	r3, [sp, #44]	; 0x2c
 8003f68:	9301      	str	r3, [sp, #4]
 8003f6a:	f89d 3028 	ldrb.w	r3, [sp, #40]	; 0x28
 8003f6e:	9002      	str	r0, [sp, #8]
 8003f70:	9300      	str	r3, [sp, #0]
 8003f72:	4622      	mov	r2, r4
 8003f74:	463b      	mov	r3, r7
 8003f76:	4631      	mov	r1, r6
 8003f78:	4628      	mov	r0, r5
 8003f7a:	f7ff ff55 	bl	8003e28 <ip_output_if>
 8003f7e:	e7ef      	b.n	8003f60 <ip_output+0x24>
 8003f80:	2000aaca 	.word	0x2000aaca

08003f84 <ip4_addr_isbroadcast>:
{
  ip_addr_t ipaddr;
  ip4_addr_set_u32(&ipaddr, addr);

  /* all ones (broadcast) or all zeroes (old skool broadcast) */
  if ((~addr == IPADDR_ANY) ||
 8003f84:	1e43      	subs	r3, r0, #1
 8003f86:	3303      	adds	r3, #3
 8003f88:	d811      	bhi.n	8003fae <ip4_addr_isbroadcast+0x2a>
      (addr == IPADDR_ANY)) {
    return 1;
  /* no broadcast support on this network interface? */
  } else if ((netif->flags & NETIF_FLAG_BROADCAST) == 0) {
 8003f8a:	f891 3029 	ldrb.w	r3, [r1, #41]	; 0x29
 8003f8e:	f013 0302 	ands.w	r3, r3, #2
 8003f92:	d00e      	beq.n	8003fb2 <ip4_addr_isbroadcast+0x2e>
    /* the given address cannot be a broadcast address
     * nor can we check against any broadcast addresses */
    return 0;
  /* address matches network interface address exactly? => no broadcast */
  } else if (addr == ip4_addr_get_u32(&netif->ip_addr)) {
 8003f94:	684a      	ldr	r2, [r1, #4]
 8003f96:	4290      	cmp	r0, r2
 8003f98:	d00b      	beq.n	8003fb2 <ip4_addr_isbroadcast+0x2e>
    return 0;
  /*  on the same (sub) network... */
  } else if (ip_addr_netcmp(&ipaddr, &(netif->ip_addr), &(netif->netmask))
 8003f9a:	688b      	ldr	r3, [r1, #8]
 8003f9c:	4042      	eors	r2, r0
 8003f9e:	421a      	tst	r2, r3
 8003fa0:	d107      	bne.n	8003fb2 <ip4_addr_isbroadcast+0x2e>
         /* ...and host identifier bits are all ones? =>... */
          && ((addr & ~ip4_addr_get_u32(&netif->netmask)) ==
 8003fa2:	43db      	mvns	r3, r3
 8003fa4:	4383      	bics	r3, r0
    return 1;
 8003fa6:	bf0c      	ite	eq
 8003fa8:	2001      	moveq	r0, #1
 8003faa:	2000      	movne	r0, #0
 8003fac:	4770      	bx	lr
 8003fae:	2001      	movs	r0, #1
 8003fb0:	4770      	bx	lr
           (IPADDR_BROADCAST & ~ip4_addr_get_u32(&netif->netmask)))) {
    /* => network broadcast address */
    return 1;
  } else {
    return 0;
 8003fb2:	2000      	movs	r0, #0
  }
}
 8003fb4:	4770      	bx	lr

08003fb6 <ipfrag_free_pbuf_custom>:

/** Free-callback function to free a 'struct pbuf_custom_ref', called by
 * pbuf_free. */
static void
ipfrag_free_pbuf_custom(struct pbuf *p)
{
 8003fb6:	b510      	push	{r4, lr}
 8003fb8:	4604      	mov	r4, r0
  struct pbuf_custom_ref *pcr = (struct pbuf_custom_ref*)p;
  LWIP_ASSERT("pcr != NULL", pcr != NULL);
  LWIP_ASSERT("pcr == p", (void*)pcr == (void*)p);
  if (pcr->original != NULL) {
 8003fba:	6940      	ldr	r0, [r0, #20]
 8003fbc:	b108      	cbz	r0, 8003fc2 <ipfrag_free_pbuf_custom+0xc>
    pbuf_free(pcr->original);
 8003fbe:	f000 fd80 	bl	8004ac2 <pbuf_free>
  memp_free(MEMP_FRAG_PBUF, p);
 8003fc2:	4621      	mov	r1, r4
 8003fc4:	2006      	movs	r0, #6
  }
  ip_frag_free_pbuf_custom_ref(pcr);
}
 8003fc6:	e8bd 4010 	ldmia.w	sp!, {r4, lr}
  memp_free(MEMP_FRAG_PBUF, p);
 8003fca:	f000 bcab 	b.w	8004924 <memp_free>
	...

08003fd0 <ip_reass_free_complete_datagram>:
{
 8003fd0:	e92d 41f0 	stmdb	sp!, {r4, r5, r6, r7, r8, lr}
  iprh = (struct ip_reass_helper *)ipr->p->payload;
 8003fd4:	6846      	ldr	r6, [r0, #4]
 8003fd6:	6873      	ldr	r3, [r6, #4]
  if (iprh->start == 0) {
 8003fd8:	889a      	ldrh	r2, [r3, #4]
{
 8003fda:	4604      	mov	r4, r0
 8003fdc:	460f      	mov	r7, r1
  if (iprh->start == 0) {
 8003fde:	bb62      	cbnz	r2, 800403a <ip_reass_free_complete_datagram+0x6a>
    ipr->p = iprh->next_pbuf;
 8003fe0:	681a      	ldr	r2, [r3, #0]
 8003fe2:	6042      	str	r2, [r0, #4]
    SMEMCPY(p->payload, &ipr->iphdr, IP_HLEN);
 8003fe4:	f100 011c 	add.w	r1, r0, #28
 8003fe8:	f100 0208 	add.w	r2, r0, #8
 8003fec:	f852 0b04 	ldr.w	r0, [r2], #4
 8003ff0:	f843 0b04 	str.w	r0, [r3], #4
 8003ff4:	428a      	cmp	r2, r1
 8003ff6:	d1f9      	bne.n	8003fec <ip_reass_free_complete_datagram+0x1c>
    icmp_time_exceeded(p, ICMP_TE_FRAG);
 8003ff8:	2101      	movs	r1, #1
 8003ffa:	4630      	mov	r0, r6
 8003ffc:	f7ff fd53 	bl	8003aa6 <icmp_time_exceeded>
    clen = pbuf_clen(p);
 8004000:	4630      	mov	r0, r6
 8004002:	f000 fe37 	bl	8004c74 <pbuf_clen>
    pbufs_freed += clen;
 8004006:	b285      	uxth	r5, r0
    pbuf_free(p);
 8004008:	4630      	mov	r0, r6
 800400a:	f000 fd5a 	bl	8004ac2 <pbuf_free>
  p = ipr->p;
 800400e:	6866      	ldr	r6, [r4, #4]
  while (p != NULL) {
 8004010:	b9ae      	cbnz	r6, 800403e <ip_reass_free_complete_datagram+0x6e>
  if (reassdatagrams == ipr) {
 8004012:	4a11      	ldr	r2, [pc, #68]	; (8004058 <ip_reass_free_complete_datagram+0x88>)
 8004014:	6813      	ldr	r3, [r2, #0]
 8004016:	429c      	cmp	r4, r3
 8004018:	6823      	ldr	r3, [r4, #0]
    prev->next = ipr->next;
 800401a:	bf18      	it	ne
 800401c:	603b      	strne	r3, [r7, #0]
  memp_free(MEMP_REASSDATA, ipr);
 800401e:	4621      	mov	r1, r4
 8004020:	f04f 0005 	mov.w	r0, #5
    reassdatagrams = ipr->next;
 8004024:	bf08      	it	eq
 8004026:	6013      	streq	r3, [r2, #0]
  memp_free(MEMP_REASSDATA, ipr);
 8004028:	f000 fc7c 	bl	8004924 <memp_free>
  ip_reass_pbufcount -= pbufs_freed;
 800402c:	4a0b      	ldr	r2, [pc, #44]	; (800405c <ip_reass_free_complete_datagram+0x8c>)
 800402e:	8813      	ldrh	r3, [r2, #0]
 8004030:	1b5b      	subs	r3, r3, r5
 8004032:	8013      	strh	r3, [r2, #0]
}
 8004034:	4628      	mov	r0, r5
 8004036:	e8bd 81f0 	ldmia.w	sp!, {r4, r5, r6, r7, r8, pc}
  u16_t pbufs_freed = 0;
 800403a:	2500      	movs	r5, #0
 800403c:	e7e7      	b.n	800400e <ip_reass_free_complete_datagram+0x3e>
    iprh = (struct ip_reass_helper *)p->payload;
 800403e:	6873      	ldr	r3, [r6, #4]
    clen = pbuf_clen(pcur);
 8004040:	4630      	mov	r0, r6
    p = iprh->next_pbuf;
 8004042:	f8d3 8000 	ldr.w	r8, [r3]
    clen = pbuf_clen(pcur);
 8004046:	f000 fe15 	bl	8004c74 <pbuf_clen>
    pbufs_freed += clen;
 800404a:	4405      	add	r5, r0
    pbuf_free(pcur);
 800404c:	4630      	mov	r0, r6
    pbufs_freed += clen;
 800404e:	b2ad      	uxth	r5, r5
    pbuf_free(pcur);
 8004050:	f000 fd37 	bl	8004ac2 <pbuf_free>
    p = iprh->next_pbuf;
 8004054:	4646      	mov	r6, r8
 8004056:	e7db      	b.n	8004010 <ip_reass_free_complete_datagram+0x40>
 8004058:	20000890 	.word	0x20000890
 800405c:	2000088e 	.word	0x2000088e

08004060 <ip_reass_remove_oldest_datagram>:
{
 8004060:	e92d 41f0 	stmdb	sp!, {r4, r5, r6, r7, r8, lr}
    r = reassdatagrams;
 8004064:	f8df 8068 	ldr.w	r8, [pc, #104]	; 80040d0 <ip_reass_remove_oldest_datagram+0x70>
{
 8004068:	4606      	mov	r6, r0
 800406a:	460f      	mov	r7, r1
  int pbufs_freed = 0, pbufs_freed_current;
 800406c:	2500      	movs	r5, #0
    other_datagrams = 0;
 800406e:	2400      	movs	r4, #0
    r = reassdatagrams;
 8004070:	f8d8 3000 	ldr.w	r3, [r8]
    prev = NULL;
 8004074:	4621      	mov	r1, r4
    oldest = NULL;
 8004076:	4620      	mov	r0, r4
    while (r != NULL) {
 8004078:	b953      	cbnz	r3, 8004090 <ip_reass_remove_oldest_datagram+0x30>
    if (oldest != NULL) {
 800407a:	b110      	cbz	r0, 8004082 <ip_reass_remove_oldest_datagram+0x22>
      pbufs_freed_current = ip_reass_free_complete_datagram(oldest, prev);
 800407c:	f7ff ffa8 	bl	8003fd0 <ip_reass_free_complete_datagram>
      pbufs_freed += pbufs_freed_current;
 8004080:	4405      	add	r5, r0
  } while ((pbufs_freed < pbufs_needed) && (other_datagrams > 1));
 8004082:	42bd      	cmp	r5, r7
 8004084:	da01      	bge.n	800408a <ip_reass_remove_oldest_datagram+0x2a>
 8004086:	2c01      	cmp	r4, #1
 8004088:	dcf1      	bgt.n	800406e <ip_reass_remove_oldest_datagram+0xe>
}
 800408a:	4628      	mov	r0, r5
 800408c:	e8bd 81f0 	ldmia.w	sp!, {r4, r5, r6, r7, r8, pc}
      if (!IP_ADDRESSES_AND_ID_MATCH(&r->iphdr, fraghdr)) {
 8004090:	f8d6 e00c 	ldr.w	lr, [r6, #12]
 8004094:	695a      	ldr	r2, [r3, #20]
 8004096:	4572      	cmp	r2, lr
 8004098:	d109      	bne.n	80040ae <ip_reass_remove_oldest_datagram+0x4e>
 800409a:	f8d6 e010 	ldr.w	lr, [r6, #16]
 800409e:	699a      	ldr	r2, [r3, #24]
 80040a0:	4572      	cmp	r2, lr
 80040a2:	d104      	bne.n	80040ae <ip_reass_remove_oldest_datagram+0x4e>
 80040a4:	f8b3 e00c 	ldrh.w	lr, [r3, #12]
 80040a8:	88b2      	ldrh	r2, [r6, #4]
 80040aa:	4596      	cmp	lr, r2
 80040ac:	d007      	beq.n	80040be <ip_reass_remove_oldest_datagram+0x5e>
        other_datagrams++;
 80040ae:	3401      	adds	r4, #1
        if (oldest == NULL) {
 80040b0:	b158      	cbz	r0, 80040ca <ip_reass_remove_oldest_datagram+0x6a>
        } else if (r->timer <= oldest->timer) {
 80040b2:	f893 e01f 	ldrb.w	lr, [r3, #31]
 80040b6:	7fc2      	ldrb	r2, [r0, #31]
 80040b8:	4596      	cmp	lr, r2
 80040ba:	bf98      	it	ls
 80040bc:	4618      	movls	r0, r3
      if (r->next != NULL) {
 80040be:	681a      	ldr	r2, [r3, #0]
 80040c0:	2a00      	cmp	r2, #0
 80040c2:	bf18      	it	ne
 80040c4:	4619      	movne	r1, r3
 80040c6:	4613      	mov	r3, r2
 80040c8:	e7d6      	b.n	8004078 <ip_reass_remove_oldest_datagram+0x18>
 80040ca:	4618      	mov	r0, r3
 80040cc:	e7f7      	b.n	80040be <ip_reass_remove_oldest_datagram+0x5e>
 80040ce:	bf00      	nop
 80040d0:	20000890 	.word	0x20000890

080040d4 <ip_reass_tmr>:
{
 80040d4:	b538      	push	{r3, r4, r5, lr}
  r = reassdatagrams;
 80040d6:	4b08      	ldr	r3, [pc, #32]	; (80040f8 <ip_reass_tmr+0x24>)
 80040d8:	6818      	ldr	r0, [r3, #0]
  struct ip_reassdata *r, *prev = NULL;
 80040da:	2400      	movs	r4, #0
  while (r != NULL) {
 80040dc:	b900      	cbnz	r0, 80040e0 <ip_reass_tmr+0xc>
}
 80040de:	bd38      	pop	{r3, r4, r5, pc}
    if (r->timer > 0) {
 80040e0:	7fc3      	ldrb	r3, [r0, #31]
 80040e2:	6805      	ldr	r5, [r0, #0]
 80040e4:	b123      	cbz	r3, 80040f0 <ip_reass_tmr+0x1c>
      r->timer--;
 80040e6:	3b01      	subs	r3, #1
 80040e8:	77c3      	strb	r3, [r0, #31]
 80040ea:	4604      	mov	r4, r0
      r = r->next;
 80040ec:	4628      	mov	r0, r5
 80040ee:	e7f5      	b.n	80040dc <ip_reass_tmr+0x8>
      ip_reass_free_complete_datagram(tmp, prev);
 80040f0:	4621      	mov	r1, r4
 80040f2:	f7ff ff6d 	bl	8003fd0 <ip_reass_free_complete_datagram>
 80040f6:	e7f9      	b.n	80040ec <ip_reass_tmr+0x18>
 80040f8:	20000890 	.word	0x20000890

080040fc <ip_reass>:
  IPFRAG_STATS_INC(ip_frag.recv);
 80040fc:	4aba      	ldr	r2, [pc, #744]	; (80043e8 <ip_reass+0x2ec>)
{
 80040fe:	e92d 4ff0 	stmdb	sp!, {r4, r5, r6, r7, r8, r9, sl, fp, lr}
  IPFRAG_STATS_INC(ip_frag.recv);
 8004102:	8e53      	ldrh	r3, [r2, #50]	; 0x32
  fraghdr = (struct ip_hdr*)p->payload;
 8004104:	6844      	ldr	r4, [r0, #4]
  IPFRAG_STATS_INC(ip_frag.recv);
 8004106:	3301      	adds	r3, #1
 8004108:	8653      	strh	r3, [r2, #50]	; 0x32
  if ((IPH_HL(fraghdr) * 4) != IP_HLEN) {
 800410a:	7823      	ldrb	r3, [r4, #0]
 800410c:	f003 030f 	and.w	r3, r3, #15
 8004110:	2b05      	cmp	r3, #5
{
 8004112:	b085      	sub	sp, #20
 8004114:	4605      	mov	r5, r0
 8004116:	4692      	mov	sl, r2
  if ((IPH_HL(fraghdr) * 4) != IP_HLEN) {
 8004118:	d00a      	beq.n	8004130 <ip_reass+0x34>
    IPFRAG_STATS_INC(ip_frag.err);
 800411a:	f8b2 3044 	ldrh.w	r3, [r2, #68]	; 0x44
 800411e:	3301      	adds	r3, #1
 8004120:	f8a2 3044 	strh.w	r3, [r2, #68]	; 0x44
  IPFRAG_STATS_INC(ip_frag.drop);
 8004124:	f8ba 3036 	ldrh.w	r3, [sl, #54]	; 0x36
 8004128:	3301      	adds	r3, #1
 800412a:	f8aa 3036 	strh.w	r3, [sl, #54]	; 0x36
 800412e:	e147      	b.n	80043c0 <ip_reass+0x2c4>
  offset = (ntohs(IPH_OFFSET(fraghdr)) & IP_OFFMASK) * 8;
 8004130:	88e0      	ldrh	r0, [r4, #6]
  if ((ip_reass_pbufcount + clen) > IP_REASS_MAX_PBUFS) {
 8004132:	4eae      	ldr	r6, [pc, #696]	; (80043ec <ip_reass+0x2f0>)
  offset = (ntohs(IPH_OFFSET(fraghdr)) & IP_OFFMASK) * 8;
 8004134:	f7ff fb7d 	bl	8003832 <lwip_ntohs>
 8004138:	9002      	str	r0, [sp, #8]
  len = ntohs(IPH_LEN(fraghdr)) - IPH_HL(fraghdr) * 4;
 800413a:	8860      	ldrh	r0, [r4, #2]
 800413c:	f7ff fb79 	bl	8003832 <lwip_ntohs>
 8004140:	7823      	ldrb	r3, [r4, #0]
 8004142:	9303      	str	r3, [sp, #12]
 8004144:	4683      	mov	fp, r0
  clen = pbuf_clen(p);
 8004146:	4628      	mov	r0, r5
 8004148:	f000 fd94 	bl	8004c74 <pbuf_clen>
  if ((ip_reass_pbufcount + clen) > IP_REASS_MAX_PBUFS) {
 800414c:	8833      	ldrh	r3, [r6, #0]
 800414e:	4403      	add	r3, r0
 8004150:	2b0a      	cmp	r3, #10
  clen = pbuf_clen(p);
 8004152:	4680      	mov	r8, r0
  if ((ip_reass_pbufcount + clen) > IP_REASS_MAX_PBUFS) {
 8004154:	dd0e      	ble.n	8004174 <ip_reass+0x78>
    if (!ip_reass_remove_oldest_datagram(fraghdr, clen) ||
 8004156:	4601      	mov	r1, r0
 8004158:	4620      	mov	r0, r4
 800415a:	f7ff ff81 	bl	8004060 <ip_reass_remove_oldest_datagram>
 800415e:	b118      	cbz	r0, 8004168 <ip_reass+0x6c>
        ((ip_reass_pbufcount + clen) > IP_REASS_MAX_PBUFS))
 8004160:	8833      	ldrh	r3, [r6, #0]
 8004162:	4443      	add	r3, r8
    if (!ip_reass_remove_oldest_datagram(fraghdr, clen) ||
 8004164:	2b0a      	cmp	r3, #10
 8004166:	dd05      	ble.n	8004174 <ip_reass+0x78>
      IPFRAG_STATS_INC(ip_frag.memerr);
 8004168:	f8ba 303c 	ldrh.w	r3, [sl, #60]	; 0x3c
 800416c:	3301      	adds	r3, #1
 800416e:	f8aa 303c 	strh.w	r3, [sl, #60]	; 0x3c
 8004172:	e7d7      	b.n	8004124 <ip_reass+0x28>
  for (ipr = reassdatagrams; ipr != NULL; ipr = ipr->next) {
 8004174:	4f9e      	ldr	r7, [pc, #632]	; (80043f0 <ip_reass+0x2f4>)
  struct ip_reassdata *ipr_prev = NULL;
 8004176:	2300      	movs	r3, #0
  for (ipr = reassdatagrams; ipr != NULL; ipr = ipr->next) {
 8004178:	f8d7 9000 	ldr.w	r9, [r7]
  struct ip_reassdata *ipr_prev = NULL;
 800417c:	9301      	str	r3, [sp, #4]
  for (ipr = reassdatagrams; ipr != NULL; ipr = ipr->next) {
 800417e:	f1b9 0f00 	cmp.w	r9, #0
 8004182:	d169      	bne.n	8004258 <ip_reass+0x15c>
  ipr = (struct ip_reassdata *)memp_malloc(MEMP_REASSDATA);
 8004184:	2005      	movs	r0, #5
 8004186:	f000 fba3 	bl	80048d0 <memp_malloc>
  if (ipr == NULL) {
 800418a:	4681      	mov	r9, r0
 800418c:	b958      	cbnz	r0, 80041a6 <ip_reass+0xaa>
    if (ip_reass_remove_oldest_datagram(fraghdr, clen) >= clen) {
 800418e:	4641      	mov	r1, r8
 8004190:	4620      	mov	r0, r4
 8004192:	f7ff ff65 	bl	8004060 <ip_reass_remove_oldest_datagram>
 8004196:	4580      	cmp	r8, r0
 8004198:	dce6      	bgt.n	8004168 <ip_reass+0x6c>
      ipr = (struct ip_reassdata *)memp_malloc(MEMP_REASSDATA);
 800419a:	2005      	movs	r0, #5
 800419c:	f000 fb98 	bl	80048d0 <memp_malloc>
    if (ipr == NULL)
 80041a0:	4681      	mov	r9, r0
 80041a2:	2800      	cmp	r0, #0
 80041a4:	d0e0      	beq.n	8004168 <ip_reass+0x6c>
  memset(ipr, 0, sizeof(struct ip_reassdata));
 80041a6:	2220      	movs	r2, #32
 80041a8:	2100      	movs	r1, #0
 80041aa:	4648      	mov	r0, r9
 80041ac:	f003 fd58 	bl	8007c60 <memset>
  ipr->timer = IP_REASS_MAXAGE;
 80041b0:	2203      	movs	r2, #3
 80041b2:	f889 201f 	strb.w	r2, [r9, #31]
  ipr->next = reassdatagrams;
 80041b6:	683a      	ldr	r2, [r7, #0]
 80041b8:	f8c9 2000 	str.w	r2, [r9]
  reassdatagrams = ipr;
 80041bc:	f8c7 9000 	str.w	r9, [r7]
  SMEMCPY(&(ipr->iphdr), fraghdr, IP_HLEN);
 80041c0:	4622      	mov	r2, r4
 80041c2:	f109 0108 	add.w	r1, r9, #8
 80041c6:	f104 0014 	add.w	r0, r4, #20
 80041ca:	f852 eb04 	ldr.w	lr, [r2], #4
 80041ce:	f841 eb04 	str.w	lr, [r1], #4
 80041d2:	4282      	cmp	r2, r0
 80041d4:	d1f9      	bne.n	80041ca <ip_reass+0xce>
  ip_reass_pbufcount += clen;
 80041d6:	8832      	ldrh	r2, [r6, #0]
 80041d8:	4490      	add	r8, r2
 80041da:	f8a6 8000 	strh.w	r8, [r6]
  if ((IPH_OFFSET(fraghdr) & PP_NTOHS(IP_MF)) == 0) {
 80041de:	88e2      	ldrh	r2, [r4, #6]
 80041e0:	0693      	lsls	r3, r2, #26
 80041e2:	d40f      	bmi.n	8004204 <ip_reass+0x108>
    ipr->flags |= IP_REASS_FLAG_LASTFRAG;
 80041e4:	f899 201e 	ldrb.w	r2, [r9, #30]
  len = ntohs(IPH_LEN(fraghdr)) - IPH_HL(fraghdr) * 4;
 80041e8:	9b03      	ldr	r3, [sp, #12]
    ipr->flags |= IP_REASS_FLAG_LASTFRAG;
 80041ea:	f042 0201 	orr.w	r2, r2, #1
 80041ee:	f889 201e 	strb.w	r2, [r9, #30]
  len = ntohs(IPH_LEN(fraghdr)) - IPH_HL(fraghdr) * 4;
 80041f2:	f003 020f 	and.w	r2, r3, #15
    ipr->datagram_len = offset + len;
 80041f6:	9b02      	ldr	r3, [sp, #8]
  len = ntohs(IPH_LEN(fraghdr)) - IPH_HL(fraghdr) * 4;
 80041f8:	ebab 0b82 	sub.w	fp, fp, r2, lsl #2
    ipr->datagram_len = offset + len;
 80041fc:	eb0b 0ac3 	add.w	sl, fp, r3, lsl #3
 8004200:	f8a9 a01c 	strh.w	sl, [r9, #28]
  fraghdr = (struct ip_hdr*)new_p->payload; 
 8004204:	f8d5 8004 	ldr.w	r8, [r5, #4]
  len = ntohs(IPH_LEN(fraghdr)) - IPH_HL(fraghdr) * 4;
 8004208:	f8b8 0002 	ldrh.w	r0, [r8, #2]
 800420c:	f7ff fb11 	bl	8003832 <lwip_ntohs>
 8004210:	f898 4000 	ldrb.w	r4, [r8]
 8004214:	f004 040f 	and.w	r4, r4, #15
 8004218:	eba0 0484 	sub.w	r4, r0, r4, lsl #2
  offset = (ntohs(IPH_OFFSET(fraghdr)) & IP_OFFMASK) * 8;
 800421c:	f8b8 0006 	ldrh.w	r0, [r8, #6]
 8004220:	f7ff fb07 	bl	8003832 <lwip_ntohs>
 8004224:	f3c0 000c 	ubfx	r0, r0, #0, #13
 8004228:	00c0      	lsls	r0, r0, #3
  len = ntohs(IPH_LEN(fraghdr)) - IPH_HL(fraghdr) * 4;
 800422a:	b2a4      	uxth	r4, r4
  iprh = (struct ip_reass_helper*)new_p->payload;
 800422c:	6869      	ldr	r1, [r5, #4]
  for (q = ipr->p; q != NULL;) {
 800422e:	f8d9 c004 	ldr.w	ip, [r9, #4]
  iprh->start = offset;
 8004232:	8088      	strh	r0, [r1, #4]
  iprh->end = offset + len;
 8004234:	4404      	add	r4, r0
  iprh->next_pbuf = NULL;
 8004236:	2200      	movs	r2, #0
  iprh->end = offset + len;
 8004238:	b2a4      	uxth	r4, r4
  iprh->next_pbuf = NULL;
 800423a:	700a      	strb	r2, [r1, #0]
 800423c:	704a      	strb	r2, [r1, #1]
 800423e:	708a      	strb	r2, [r1, #2]
 8004240:	70ca      	strb	r2, [r1, #3]
  iprh->end = offset + len;
 8004242:	80cc      	strh	r4, [r1, #6]
  int valid = 1;
 8004244:	2301      	movs	r3, #1
  for (q = ipr->p; q != NULL;) {
 8004246:	f1bc 0f00 	cmp.w	ip, #0
 800424a:	d139      	bne.n	80042c0 <ip_reass+0x1c4>
    if (iprh_prev != NULL) {
 800424c:	2a00      	cmp	r2, #0
 800424e:	f040 80a3 	bne.w	8004398 <ip_reass+0x29c>
      ipr->p = new_p;
 8004252:	f8c9 5004 	str.w	r5, [r9, #4]
 8004256:	e044      	b.n	80042e2 <ip_reass+0x1e6>
    if (IP_ADDRESSES_AND_ID_MATCH(&ipr->iphdr, fraghdr)) {
 8004258:	68e1      	ldr	r1, [r4, #12]
 800425a:	f8d9 0014 	ldr.w	r0, [r9, #20]
 800425e:	4288      	cmp	r0, r1
 8004260:	d129      	bne.n	80042b6 <ip_reass+0x1ba>
 8004262:	6921      	ldr	r1, [r4, #16]
 8004264:	f8d9 0018 	ldr.w	r0, [r9, #24]
 8004268:	4288      	cmp	r0, r1
 800426a:	d124      	bne.n	80042b6 <ip_reass+0x1ba>
 800426c:	f8b9 000c 	ldrh.w	r0, [r9, #12]
 8004270:	88a1      	ldrh	r1, [r4, #4]
 8004272:	4288      	cmp	r0, r1
 8004274:	d11f      	bne.n	80042b6 <ip_reass+0x1ba>
      IPFRAG_STATS_INC(ip_frag.cachehit);
 8004276:	f8ba 1046 	ldrh.w	r1, [sl, #70]	; 0x46
 800427a:	3101      	adds	r1, #1
 800427c:	f8aa 1046 	strh.w	r1, [sl, #70]	; 0x46
    if (((ntohs(IPH_OFFSET(fraghdr)) & IP_OFFMASK) == 0) && 
 8004280:	88e0      	ldrh	r0, [r4, #6]
 8004282:	f7ff fad6 	bl	8003832 <lwip_ntohs>
 8004286:	f3c0 000c 	ubfx	r0, r0, #0, #13
 800428a:	2800      	cmp	r0, #0
 800428c:	d1a3      	bne.n	80041d6 <ip_reass+0xda>
      ((ntohs(IPH_OFFSET(&ipr->iphdr)) & IP_OFFMASK) != 0)) {
 800428e:	f8b9 000e 	ldrh.w	r0, [r9, #14]
 8004292:	f7ff face 	bl	8003832 <lwip_ntohs>
    if (((ntohs(IPH_OFFSET(fraghdr)) & IP_OFFMASK) == 0) && 
 8004296:	f3c0 000c 	ubfx	r0, r0, #0, #13
 800429a:	2800      	cmp	r0, #0
 800429c:	d09b      	beq.n	80041d6 <ip_reass+0xda>
      SMEMCPY(&ipr->iphdr, fraghdr, IP_HLEN);
 800429e:	4622      	mov	r2, r4
 80042a0:	f109 0108 	add.w	r1, r9, #8
 80042a4:	f104 0014 	add.w	r0, r4, #20
 80042a8:	f852 eb04 	ldr.w	lr, [r2], #4
 80042ac:	f841 eb04 	str.w	lr, [r1], #4
 80042b0:	4282      	cmp	r2, r0
 80042b2:	d1f9      	bne.n	80042a8 <ip_reass+0x1ac>
 80042b4:	e78f      	b.n	80041d6 <ip_reass+0xda>
  for (ipr = reassdatagrams; ipr != NULL; ipr = ipr->next) {
 80042b6:	f8cd 9004 	str.w	r9, [sp, #4]
 80042ba:	f8d9 9000 	ldr.w	r9, [r9]
 80042be:	e75e      	b.n	800417e <ip_reass+0x82>
    iprh_tmp = (struct ip_reass_helper*)q->payload;
 80042c0:	f8dc 8004 	ldr.w	r8, [ip, #4]
    if (iprh->start < iprh_tmp->start) {
 80042c4:	f8b8 a004 	ldrh.w	sl, [r8, #4]
 80042c8:	4550      	cmp	r0, sl
 80042ca:	d257      	bcs.n	800437c <ip_reass+0x280>
      iprh->next_pbuf = q;
 80042cc:	f8c1 c000 	str.w	ip, [r1]
      if (iprh_prev != NULL) {
 80042d0:	2a00      	cmp	r2, #0
 80042d2:	d0be      	beq.n	8004252 <ip_reass+0x156>
        if ((iprh->start < iprh_prev->end) || (iprh->end > iprh_tmp->start)) {
 80042d4:	f8b2 c006 	ldrh.w	ip, [r2, #6]
 80042d8:	4584      	cmp	ip, r0
 80042da:	d86b      	bhi.n	80043b4 <ip_reass+0x2b8>
 80042dc:	4554      	cmp	r4, sl
 80042de:	d869      	bhi.n	80043b4 <ip_reass+0x2b8>
        iprh_prev->next_pbuf = new_p;
 80042e0:	6015      	str	r5, [r2, #0]
  if ((ipr->flags & IP_REASS_FLAG_LASTFRAG) != 0) {
 80042e2:	f899 201e 	ldrb.w	r2, [r9, #30]
 80042e6:	f012 0401 	ands.w	r4, r2, #1
 80042ea:	d043      	beq.n	8004374 <ip_reass+0x278>
    if (valid) {
 80042ec:	2b00      	cmp	r3, #0
 80042ee:	d06a      	beq.n	80043c6 <ip_reass+0x2ca>
      if (((struct ip_reass_helper*)ipr->p->payload)->start != 0) {
 80042f0:	f8d9 2004 	ldr.w	r2, [r9, #4]
 80042f4:	6854      	ldr	r4, [r2, #4]
 80042f6:	88a2      	ldrh	r2, [r4, #4]
 80042f8:	2a00      	cmp	r2, #0
 80042fa:	d164      	bne.n	80043c6 <ip_reass+0x2ca>
        q = iprh->next_pbuf;
 80042fc:	680a      	ldr	r2, [r1, #0]
        while (q != NULL) {
 80042fe:	2a00      	cmp	r2, #0
 8004300:	d150      	bne.n	80043a4 <ip_reass+0x2a8>
    ipr->datagram_len += IP_HLEN;
 8004302:	f8b9 201c 	ldrh.w	r2, [r9, #28]
    r = ((struct ip_reass_helper*)ipr->p->payload)->next_pbuf;
 8004306:	6825      	ldr	r5, [r4, #0]
    ipr->datagram_len += IP_HLEN;
 8004308:	3214      	adds	r2, #20
 800430a:	f8a9 201c 	strh.w	r2, [r9, #28]
    SMEMCPY(fraghdr, &ipr->iphdr, IP_HLEN);
 800430e:	4621      	mov	r1, r4
 8004310:	f109 0208 	add.w	r2, r9, #8
 8004314:	f109 001c 	add.w	r0, r9, #28
 8004318:	f852 eb04 	ldr.w	lr, [r2], #4
 800431c:	f841 eb04 	str.w	lr, [r1], #4
 8004320:	4282      	cmp	r2, r0
 8004322:	d1f9      	bne.n	8004318 <ip_reass+0x21c>
    IPH_LEN_SET(fraghdr, htons(ipr->datagram_len));
 8004324:	f8b9 001c 	ldrh.w	r0, [r9, #28]
 8004328:	f7ff fa80 	bl	800382c <lwip_htons>
    IPH_OFFSET_SET(fraghdr, 0);
 800432c:	2200      	movs	r2, #0
    IPH_LEN_SET(fraghdr, htons(ipr->datagram_len));
 800432e:	8060      	strh	r0, [r4, #2]
    IPH_OFFSET_SET(fraghdr, 0);
 8004330:	71a2      	strb	r2, [r4, #6]
 8004332:	71e2      	strb	r2, [r4, #7]
    IPH_CHKSUM_SET(fraghdr, 0);
 8004334:	72a2      	strb	r2, [r4, #10]
 8004336:	72e2      	strb	r2, [r4, #11]
    IPH_CHKSUM_SET(fraghdr, inet_chksum(fraghdr, IP_HLEN));
 8004338:	4620      	mov	r0, r4
 800433a:	2114      	movs	r1, #20
 800433c:	f7ff fc2b 	bl	8003b96 <inet_chksum>
 8004340:	8160      	strh	r0, [r4, #10]
    p = ipr->p;
 8004342:	f8d9 4004 	ldr.w	r4, [r9, #4]
    while(r != NULL) {
 8004346:	2d00      	cmp	r5, #0
 8004348:	d13f      	bne.n	80043ca <ip_reass+0x2ce>
  if (reassdatagrams == ipr) {
 800434a:	683a      	ldr	r2, [r7, #0]
 800434c:	4591      	cmp	r9, r2
    prev->next = ipr->next;
 800434e:	bf18      	it	ne
 8004350:	9b01      	ldrne	r3, [sp, #4]
 8004352:	f8d9 2000 	ldr.w	r2, [r9]
 8004356:	bf18      	it	ne
 8004358:	601a      	strne	r2, [r3, #0]
  memp_free(MEMP_REASSDATA, ipr);
 800435a:	4649      	mov	r1, r9
 800435c:	f04f 0005 	mov.w	r0, #5
    reassdatagrams = ipr->next;
 8004360:	bf08      	it	eq
 8004362:	603a      	streq	r2, [r7, #0]
  memp_free(MEMP_REASSDATA, ipr);
 8004364:	f000 fade 	bl	8004924 <memp_free>
    ip_reass_pbufcount -= pbuf_clen(p);
 8004368:	4620      	mov	r0, r4
 800436a:	f000 fc83 	bl	8004c74 <pbuf_clen>
 800436e:	8833      	ldrh	r3, [r6, #0]
 8004370:	1a18      	subs	r0, r3, r0
 8004372:	8030      	strh	r0, [r6, #0]
}
 8004374:	4620      	mov	r0, r4
 8004376:	b005      	add	sp, #20
 8004378:	e8bd 8ff0 	ldmia.w	sp!, {r4, r5, r6, r7, r8, r9, sl, fp, pc}
    } else if(iprh->start == iprh_tmp->start) {
 800437c:	d01a      	beq.n	80043b4 <ip_reass+0x2b8>
    } else if(iprh->start < iprh_tmp->end) {
 800437e:	f8b8 c006 	ldrh.w	ip, [r8, #6]
 8004382:	4584      	cmp	ip, r0
 8004384:	d816      	bhi.n	80043b4 <ip_reass+0x2b8>
      if (iprh_prev != NULL) {
 8004386:	b11a      	cbz	r2, 8004390 <ip_reass+0x294>
        if (iprh_prev->end != iprh_tmp->start) {
 8004388:	88d2      	ldrh	r2, [r2, #6]
          valid = 0;
 800438a:	4552      	cmp	r2, sl
 800438c:	bf18      	it	ne
 800438e:	2300      	movne	r3, #0
    q = iprh_tmp->next_pbuf;
 8004390:	f8d8 c000 	ldr.w	ip, [r8]
 8004394:	4642      	mov	r2, r8
 8004396:	e756      	b.n	8004246 <ip_reass+0x14a>
      LWIP_ASSERT("check fragments don't overlap", iprh_prev->end <= iprh->start);
 8004398:	88d4      	ldrh	r4, [r2, #6]
      iprh_prev->next_pbuf = new_p;
 800439a:	6015      	str	r5, [r2, #0]
        valid = 0;
 800439c:	42a0      	cmp	r0, r4
 800439e:	bf18      	it	ne
 80043a0:	2300      	movne	r3, #0
 80043a2:	e79e      	b.n	80042e2 <ip_reass+0x1e6>
          iprh = (struct ip_reass_helper*)q->payload;
 80043a4:	6850      	ldr	r0, [r2, #4]
          if (iprh_prev->end != iprh->start) {
 80043a6:	88c9      	ldrh	r1, [r1, #6]
 80043a8:	8882      	ldrh	r2, [r0, #4]
 80043aa:	4291      	cmp	r1, r2
 80043ac:	d10b      	bne.n	80043c6 <ip_reass+0x2ca>
          q = iprh->next_pbuf;
 80043ae:	6802      	ldr	r2, [r0, #0]
 80043b0:	4601      	mov	r1, r0
 80043b2:	e7a4      	b.n	80042fe <ip_reass+0x202>
  ip_reass_pbufcount -= pbuf_clen(new_p);
 80043b4:	4628      	mov	r0, r5
 80043b6:	f000 fc5d 	bl	8004c74 <pbuf_clen>
 80043ba:	8833      	ldrh	r3, [r6, #0]
 80043bc:	1a18      	subs	r0, r3, r0
 80043be:	8030      	strh	r0, [r6, #0]
  pbuf_free(p);
 80043c0:	4628      	mov	r0, r5
 80043c2:	f000 fb7e 	bl	8004ac2 <pbuf_free>
  return NULL;
 80043c6:	2400      	movs	r4, #0
 80043c8:	e7d4      	b.n	8004374 <ip_reass+0x278>
      iprh = (struct ip_reass_helper*)r->payload;
 80043ca:	f8d5 8004 	ldr.w	r8, [r5, #4]
      pbuf_header(r, -IP_HLEN);
 80043ce:	f06f 0113 	mvn.w	r1, #19
 80043d2:	4628      	mov	r0, r5
 80043d4:	f000 fb4a 	bl	8004a6c <pbuf_header>
      pbuf_cat(p, r);
 80043d8:	4629      	mov	r1, r5
 80043da:	4620      	mov	r0, r4
 80043dc:	f000 fc57 	bl	8004c8e <pbuf_cat>
      r = iprh->next_pbuf;
 80043e0:	f8d8 5000 	ldr.w	r5, [r8]
 80043e4:	e7af      	b.n	8004346 <ip_reass+0x24a>
 80043e6:	bf00      	nop
 80043e8:	2000aaca 	.word	0x2000aaca
 80043ec:	2000088e 	.word	0x2000088e
 80043f0:	20000890 	.word	0x20000890

080043f4 <ip_frag>:
 *
 * @return ERR_OK if sent successfully, err_t otherwise
 */
err_t 
ip_frag(struct pbuf *p, struct netif *netif, ip_addr_t *dest)
{
 80043f4:	e92d 4ff0 	stmdb	sp!, {r4, r5, r6, r7, r8, r9, sl, fp, lr}
 80043f8:	b08d      	sub	sp, #52	; 0x34
  struct ip_hdr *original_iphdr;
#endif
  struct ip_hdr *iphdr;
  u16_t nfb;
  u16_t left, cop;
  u16_t mtu = netif->mtu;
 80043fa:	8c0b      	ldrh	r3, [r1, #32]
 80043fc:	9306      	str	r3, [sp, #24]

  /* Copy the IP header in it */
  iphdr = (struct ip_hdr *)rambuf->payload;
  SMEMCPY(iphdr, p->payload, IP_HLEN);
#else /* IP_FRAG_USES_STATIC_BUF */
  original_iphdr = (struct ip_hdr *)p->payload;
 80043fe:	6843      	ldr	r3, [r0, #4]
{
 8004400:	920a      	str	r2, [sp, #40]	; 0x28
  original_iphdr = (struct ip_hdr *)p->payload;
 8004402:	9303      	str	r3, [sp, #12]
{
 8004404:	9105      	str	r1, [sp, #20]
 8004406:	4605      	mov	r5, r0
  iphdr = original_iphdr;
#endif /* IP_FRAG_USES_STATIC_BUF */

  /* Save original offset */
  tmp = ntohs(IPH_OFFSET(iphdr));
 8004408:	88d8      	ldrh	r0, [r3, #6]
 800440a:	f7ff fa12 	bl	8003832 <lwip_ntohs>
  ofo = tmp & IP_OFFMASK;
 800440e:	f3c0 030c 	ubfx	r3, r0, #0, #13
 8004412:	9302      	str	r3, [sp, #8]
  omf = tmp & IP_MF;
 8004414:	f400 5300 	and.w	r3, r0, #8192	; 0x2000
 8004418:	9308      	str	r3, [sp, #32]

  left = p->tot_len - IP_HLEN;

  nfb = (mtu - IP_HLEN) / 8;
 800441a:	9b06      	ldr	r3, [sp, #24]
  left = p->tot_len - IP_HLEN;
 800441c:	892c      	ldrh	r4, [r5, #8]
  nfb = (mtu - IP_HLEN) / 8;
 800441e:	3b14      	subs	r3, #20
 8004420:	2208      	movs	r2, #8
 8004422:	fb93 f3f2 	sdiv	r3, r3, r2
 8004426:	b29b      	uxth	r3, r3
 8004428:	9307      	str	r3, [sp, #28]
    if (!last) {
      tmp = tmp | IP_MF;
    }

    /* Fill this fragment */
    cop = last ? left : nfb * 8;
 800442a:	00db      	lsls	r3, r3, #3
  left = p->tot_len - IP_HLEN;
 800442c:	3c14      	subs	r4, #20
    cop = last ? left : nfb * 8;
 800442e:	b29b      	uxth	r3, r3
  left = p->tot_len - IP_HLEN;
 8004430:	b2a4      	uxth	r4, r4
    cop = last ? left : nfb * 8;
 8004432:	9309      	str	r3, [sp, #36]	; 0x24
  u16_t newpbuflen = 0;
 8004434:	2600      	movs	r6, #0
  u16_t poff = IP_HLEN;
 8004436:	2714      	movs	r7, #20
  while (left) {
 8004438:	b91c      	cbnz	r4, 8004442 <ip_frag+0x4e>
  }
#if IP_FRAG_USES_STATIC_BUF
  pbuf_free(rambuf);
#endif /* IP_FRAG_USES_STATIC_BUF */
  snmp_inc_ipfragoks();
  return ERR_OK;
 800443a:	4620      	mov	r0, r4
}
 800443c:	b00d      	add	sp, #52	; 0x34
 800443e:	e8bd 8ff0 	ldmia.w	sp!, {r4, r5, r6, r7, r8, r9, sl, fp, pc}
    tmp = omf | (IP_OFFMASK & (ofo));
 8004442:	9b02      	ldr	r3, [sp, #8]
 8004444:	f3c3 0a0c 	ubfx	sl, r3, #0, #13
 8004448:	9b08      	ldr	r3, [sp, #32]
 800444a:	ea43 030a 	orr.w	r3, r3, sl
 800444e:	9304      	str	r3, [sp, #16]
    last = (left <= mtu - IP_HLEN);
 8004450:	9b06      	ldr	r3, [sp, #24]
 8004452:	3b13      	subs	r3, #19
    if (!last) {
 8004454:	42a3      	cmp	r3, r4
      tmp = tmp | IP_MF;
 8004456:	bfde      	ittt	le
 8004458:	9b04      	ldrle	r3, [sp, #16]
    cop = last ? left : nfb * 8;
 800445a:	f8dd a024 	ldrle.w	sl, [sp, #36]	; 0x24
      tmp = tmp | IP_MF;
 800445e:	f443 5300 	orrle.w	r3, r3, #8192	; 0x2000
    rambuf = pbuf_alloc(PBUF_LINK, IP_HLEN, PBUF_RAM);
 8004462:	f04f 0200 	mov.w	r2, #0
 8004466:	f04f 0114 	mov.w	r1, #20
 800446a:	f04f 0002 	mov.w	r0, #2
      tmp = tmp | IP_MF;
 800446e:	bfd4      	ite	le
 8004470:	9304      	strle	r3, [sp, #16]
 8004472:	46a2      	movgt	sl, r4
    rambuf = pbuf_alloc(PBUF_LINK, IP_HLEN, PBUF_RAM);
 8004474:	f000 fb4c 	bl	8004b10 <pbuf_alloc>
    if (rambuf == NULL) {
 8004478:	4680      	mov	r8, r0
 800447a:	b318      	cbz	r0, 80044c4 <ip_frag+0xd0>
    SMEMCPY(rambuf->payload, original_iphdr, IP_HLEN);
 800447c:	9b03      	ldr	r3, [sp, #12]
 800447e:	6842      	ldr	r2, [r0, #4]
 8004480:	4619      	mov	r1, r3
 8004482:	3114      	adds	r1, #20
 8004484:	f853 0b04 	ldr.w	r0, [r3], #4
 8004488:	f842 0b04 	str.w	r0, [r2], #4
 800448c:	428b      	cmp	r3, r1
 800448e:	d1f9      	bne.n	8004484 <ip_frag+0x90>
    p->payload = (u8_t *)p->payload + poff;
 8004490:	686b      	ldr	r3, [r5, #4]
    iphdr = (struct ip_hdr *)rambuf->payload;
 8004492:	f8d8 9004 	ldr.w	r9, [r8, #4]
    p->payload = (u8_t *)p->payload + poff;
 8004496:	443b      	add	r3, r7
 8004498:	606b      	str	r3, [r5, #4]
    p->len -= poff;
 800449a:	896b      	ldrh	r3, [r5, #10]
 800449c:	1bdf      	subs	r7, r3, r7
 800449e:	816f      	strh	r7, [r5, #10]
    left_to_copy = cop;
 80044a0:	4657      	mov	r7, sl
    while (left_to_copy) {
 80044a2:	b397      	cbz	r7, 800450a <ip_frag+0x116>
      newpbuflen = (left_to_copy < p->len) ? left_to_copy : p->len;
 80044a4:	896e      	ldrh	r6, [r5, #10]
 80044a6:	42be      	cmp	r6, r7
 80044a8:	bf28      	it	cs
 80044aa:	463e      	movcs	r6, r7
 80044ac:	b2b6      	uxth	r6, r6
      if (!newpbuflen) {
 80044ae:	b90e      	cbnz	r6, 80044b4 <ip_frag+0xc0>
        p = p->next;
 80044b0:	682d      	ldr	r5, [r5, #0]
 80044b2:	e7f6      	b.n	80044a2 <ip_frag+0xae>
  return (struct pbuf_custom_ref*)memp_malloc(MEMP_FRAG_PBUF);
 80044b4:	2006      	movs	r0, #6
 80044b6:	f000 fa0b 	bl	80048d0 <memp_malloc>
      if (pcr == NULL) {
 80044ba:	4683      	mov	fp, r0
 80044bc:	b928      	cbnz	r0, 80044ca <ip_frag+0xd6>
        pbuf_free(rambuf);
 80044be:	4640      	mov	r0, r8
 80044c0:	f000 faff 	bl	8004ac2 <pbuf_free>
      return ERR_MEM;
 80044c4:	f04f 30ff 	mov.w	r0, #4294967295
 80044c8:	e7b8      	b.n	800443c <ip_frag+0x48>
      newpbuf = pbuf_alloced_custom(PBUF_RAW, newpbuflen, PBUF_REF, &pcr->pc, p->payload, newpbuflen);
 80044ca:	9601      	str	r6, [sp, #4]
 80044cc:	686b      	ldr	r3, [r5, #4]
 80044ce:	9300      	str	r3, [sp, #0]
 80044d0:	2202      	movs	r2, #2
 80044d2:	4603      	mov	r3, r0
 80044d4:	4631      	mov	r1, r6
 80044d6:	2003      	movs	r0, #3
 80044d8:	f000 fa9e 	bl	8004a18 <pbuf_alloced_custom>
      if (newpbuf == NULL) {
 80044dc:	b920      	cbnz	r0, 80044e8 <ip_frag+0xf4>
  memp_free(MEMP_FRAG_PBUF, p);
 80044de:	4659      	mov	r1, fp
 80044e0:	2006      	movs	r0, #6
 80044e2:	f000 fa1f 	bl	8004924 <memp_free>
 80044e6:	e7ea      	b.n	80044be <ip_frag+0xca>
 80044e8:	900b      	str	r0, [sp, #44]	; 0x2c
      pbuf_ref(p);
 80044ea:	4628      	mov	r0, r5
 80044ec:	f000 fbca 	bl	8004c84 <pbuf_ref>
      left_to_copy -= newpbuflen;
 80044f0:	1bbf      	subs	r7, r7, r6
      pcr->pc.custom_free_function = ipfrag_free_pbuf_custom;
 80044f2:	4b1d      	ldr	r3, [pc, #116]	; (8004568 <ip_frag+0x174>)
      pcr->original = p;
 80044f4:	f8cb 5014 	str.w	r5, [fp, #20]
      pcr->pc.custom_free_function = ipfrag_free_pbuf_custom;
 80044f8:	f8cb 3010 	str.w	r3, [fp, #16]
      pbuf_cat(rambuf, newpbuf);
 80044fc:	990b      	ldr	r1, [sp, #44]	; 0x2c
 80044fe:	4640      	mov	r0, r8
      left_to_copy -= newpbuflen;
 8004500:	b2bf      	uxth	r7, r7
      pbuf_cat(rambuf, newpbuf);
 8004502:	f000 fbc4 	bl	8004c8e <pbuf_cat>
      if (left_to_copy) {
 8004506:	2f00      	cmp	r7, #0
 8004508:	d1d2      	bne.n	80044b0 <ip_frag+0xbc>
    IPH_OFFSET_SET(iphdr, htons(tmp));
 800450a:	9804      	ldr	r0, [sp, #16]
 800450c:	f7ff f98e 	bl	800382c <lwip_htons>
 8004510:	f8a9 0006 	strh.w	r0, [r9, #6]
    IPH_LEN_SET(iphdr, htons(cop + IP_HLEN));
 8004514:	f10a 0014 	add.w	r0, sl, #20
 8004518:	b280      	uxth	r0, r0
 800451a:	f7ff f987 	bl	800382c <lwip_htons>
    IPH_CHKSUM_SET(iphdr, 0);
 800451e:	f889 700a 	strb.w	r7, [r9, #10]
    IPH_LEN_SET(iphdr, htons(cop + IP_HLEN));
 8004522:	f8a9 0002 	strh.w	r0, [r9, #2]
    IPH_CHKSUM_SET(iphdr, 0);
 8004526:	f889 700b 	strb.w	r7, [r9, #11]
    IPH_CHKSUM_SET(iphdr, inet_chksum(iphdr, IP_HLEN));
 800452a:	2114      	movs	r1, #20
 800452c:	4648      	mov	r0, r9
 800452e:	f7ff fb32 	bl	8003b96 <inet_chksum>
    netif->output(netif, rambuf, dest);
 8004532:	9b05      	ldr	r3, [sp, #20]
    IPH_CHKSUM_SET(iphdr, inet_chksum(iphdr, IP_HLEN));
 8004534:	f8a9 000a 	strh.w	r0, [r9, #10]
    netif->output(netif, rambuf, dest);
 8004538:	695b      	ldr	r3, [r3, #20]
 800453a:	9a0a      	ldr	r2, [sp, #40]	; 0x28
 800453c:	9805      	ldr	r0, [sp, #20]
 800453e:	4641      	mov	r1, r8
 8004540:	4798      	blx	r3
    IPFRAG_STATS_INC(ip_frag.xmit);
 8004542:	4b0a      	ldr	r3, [pc, #40]	; (800456c <ip_frag+0x178>)
 8004544:	4a09      	ldr	r2, [pc, #36]	; (800456c <ip_frag+0x178>)
 8004546:	8e1b      	ldrh	r3, [r3, #48]	; 0x30
    pbuf_free(rambuf);
 8004548:	4640      	mov	r0, r8
    IPFRAG_STATS_INC(ip_frag.xmit);
 800454a:	3301      	adds	r3, #1
 800454c:	8613      	strh	r3, [r2, #48]	; 0x30
    pbuf_free(rambuf);
 800454e:	f000 fab8 	bl	8004ac2 <pbuf_free>
    ofo += nfb;
 8004552:	9b02      	ldr	r3, [sp, #8]
 8004554:	9a07      	ldr	r2, [sp, #28]
 8004556:	4413      	add	r3, r2
    left -= cop;
 8004558:	eba4 040a 	sub.w	r4, r4, sl
    ofo += nfb;
 800455c:	b29b      	uxth	r3, r3
    left -= cop;
 800455e:	b2a4      	uxth	r4, r4
    ofo += nfb;
 8004560:	9302      	str	r3, [sp, #8]
 8004562:	4637      	mov	r7, r6
 8004564:	e768      	b.n	8004438 <ip_frag+0x44>
 8004566:	bf00      	nop
 8004568:	08003fb7 	.word	0x08003fb7
 800456c:	2000aaca 	.word	0x2000aaca

08004570 <mem_init>:

  LWIP_ASSERT("Sanity check alignment",
    (SIZEOF_STRUCT_MEM & (MEM_ALIGNMENT-1)) == 0);

  /* align the heap */
  ram = (u8_t *)LWIP_MEM_ALIGN(LWIP_RAM_HEAP_POINTER);
 8004570:	4b0b      	ldr	r3, [pc, #44]	; (80045a0 <mem_init+0x30>)
 8004572:	4a0c      	ldr	r2, [pc, #48]	; (80045a4 <mem_init+0x34>)
  mem = (struct mem *)(void *)ram;
  mem->next = MEM_SIZE_ALIGNED;
  mem->prev = 0;
  mem->used = 0;
  /* initialize the end of the heap */
  ram_end = (struct mem *)(void *)&ram[MEM_SIZE_ALIGNED];
 8004574:	480c      	ldr	r0, [pc, #48]	; (80045a8 <mem_init+0x38>)
  ram = (u8_t *)LWIP_MEM_ALIGN(LWIP_RAM_HEAP_POINTER);
 8004576:	f023 0303 	bic.w	r3, r3, #3
  mem->prev = 0;
 800457a:	2100      	movs	r1, #0
  ram = (u8_t *)LWIP_MEM_ALIGN(LWIP_RAM_HEAP_POINTER);
 800457c:	6013      	str	r3, [r2, #0]
  mem->next = MEM_SIZE_ALIGNED;
 800457e:	f242 7210 	movw	r2, #10000	; 0x2710
  mem->prev = 0;
 8004582:	8059      	strh	r1, [r3, #2]
  mem->used = 0;
 8004584:	7119      	strb	r1, [r3, #4]
  ram_end = (struct mem *)(void *)&ram[MEM_SIZE_ALIGNED];
 8004586:	1899      	adds	r1, r3, r2
 8004588:	6001      	str	r1, [r0, #0]
  ram_end->used = 1;
 800458a:	2001      	movs	r0, #1
  mem->next = MEM_SIZE_ALIGNED;
 800458c:	801a      	strh	r2, [r3, #0]
  ram_end->used = 1;
 800458e:	7108      	strb	r0, [r1, #4]
  ram_end->next = MEM_SIZE_ALIGNED;
 8004590:	529a      	strh	r2, [r3, r2]
  ram_end->prev = MEM_SIZE_ALIGNED;
 8004592:	804a      	strh	r2, [r1, #2]

  /* initialize the lowest-free pointer to the start of the heap */
  lfree = (struct mem *)(void *)ram;
 8004594:	4905      	ldr	r1, [pc, #20]	; (80045ac <mem_init+0x3c>)
 8004596:	600b      	str	r3, [r1, #0]

  MEM_STATS_AVAIL(avail, MEM_SIZE_ALIGNED);
 8004598:	4b05      	ldr	r3, [pc, #20]	; (80045b0 <mem_init+0x40>)
 800459a:	f8a3 20a8 	strh.w	r2, [r3, #168]	; 0xa8
 800459e:	4770      	bx	lr
 80045a0:	2000839f 	.word	0x2000839f
 80045a4:	20000898 	.word	0x20000898
 80045a8:	2000089c 	.word	0x2000089c
 80045ac:	20000894 	.word	0x20000894
 80045b0:	2000aaca 	.word	0x2000aaca

080045b4 <mem_free>:
 * @param rmem is the data portion of a struct mem as returned by a previous
 *             call to mem_malloc()
 */
void
mem_free(void *rmem)
{
 80045b4:	b5f0      	push	{r4, r5, r6, r7, lr}
  struct mem *mem;
  LWIP_MEM_FREE_DECL_PROTECT();

  if (rmem == NULL) {
 80045b6:	2800      	cmp	r0, #0
 80045b8:	d046      	beq.n	8004648 <mem_free+0x94>
    LWIP_DEBUGF(MEM_DEBUG | LWIP_DBG_TRACE | LWIP_DBG_LEVEL_SERIOUS, ("mem_free(p == NULL) was called.\n"));
    return;
  }
  LWIP_ASSERT("mem_free: sanity check alignment", (((mem_ptr_t)rmem) & (MEM_ALIGNMENT-1)) == 0);

  LWIP_ASSERT("mem_free: legal memory", (u8_t *)rmem >= (u8_t *)ram &&
 80045ba:	4b24      	ldr	r3, [pc, #144]	; (800464c <mem_free+0x98>)
 80045bc:	4f24      	ldr	r7, [pc, #144]	; (8004650 <mem_free+0x9c>)
 80045be:	681b      	ldr	r3, [r3, #0]
    (u8_t *)rmem < (u8_t *)ram_end);

  if ((u8_t *)rmem < (u8_t *)ram || (u8_t *)rmem >= (u8_t *)ram_end) {
 80045c0:	4298      	cmp	r0, r3
 80045c2:	d304      	bcc.n	80045ce <mem_free+0x1a>
 80045c4:	4a23      	ldr	r2, [pc, #140]	; (8004654 <mem_free+0xa0>)
 80045c6:	f8d2 e000 	ldr.w	lr, [r2]
 80045ca:	4570      	cmp	r0, lr
 80045cc:	d305      	bcc.n	80045da <mem_free+0x26>
    SYS_ARCH_DECL_PROTECT(lev);
    LWIP_DEBUGF(MEM_DEBUG | LWIP_DBG_LEVEL_SEVERE, ("mem_free: illegal memory\n"));
    /* protect mem stats from concurrent access */
    SYS_ARCH_PROTECT(lev);
    MEM_STATS_INC(illegal);
 80045ce:	f8b7 30b0 	ldrh.w	r3, [r7, #176]	; 0xb0
 80045d2:	3301      	adds	r3, #1
 80045d4:	f8a7 30b0 	strh.w	r3, [r7, #176]	; 0xb0
    SYS_ARCH_UNPROTECT(lev);
    return;
 80045d8:	bdf0      	pop	{r4, r5, r6, r7, pc}
  /* Get the corresponding struct mem ... */
  mem = (struct mem *)(void *)((u8_t *)rmem - SIZEOF_STRUCT_MEM);
  /* ... which has to be in a used state ... */
  LWIP_ASSERT("mem_free: mem->used", mem->used);
  /* ... and is now unused. */
  mem->used = 0;
 80045da:	2200      	movs	r2, #0
 80045dc:	f800 2c04 	strb.w	r2, [r0, #-4]

  if (mem < lfree) {
 80045e0:	4a1d      	ldr	r2, [pc, #116]	; (8004658 <mem_free+0xa4>)
    /* the newly freed struct is now the lowest */
    lfree = mem;
  }

  MEM_STATS_DEC_USED(used, mem->next - (mem_size_t)(((u8_t *)mem - ram)));
 80045e2:	f830 6c08 	ldrh.w	r6, [r0, #-8]
  if (mem < lfree) {
 80045e6:	6814      	ldr	r4, [r2, #0]
  mem = (struct mem *)(void *)((u8_t *)rmem - SIZEOF_STRUCT_MEM);
 80045e8:	f1a0 0108 	sub.w	r1, r0, #8
  if (mem < lfree) {
 80045ec:	42a1      	cmp	r1, r4
  MEM_STATS_DEC_USED(used, mem->next - (mem_size_t)(((u8_t *)mem - ram)));
 80045ee:	f8b7 40aa 	ldrh.w	r4, [r7, #170]	; 0xaa
    lfree = mem;
 80045f2:	bf38      	it	cc
 80045f4:	6011      	strcc	r1, [r2, #0]
  MEM_STATS_DEC_USED(used, mem->next - (mem_size_t)(((u8_t *)mem - ram)));
 80045f6:	1acd      	subs	r5, r1, r3
 80045f8:	b2ad      	uxth	r5, r5
 80045fa:	1ba4      	subs	r4, r4, r6
 80045fc:	442c      	add	r4, r5
 80045fe:	f8a7 40aa 	strh.w	r4, [r7, #170]	; 0xaa
  nmem = (struct mem *)(void *)&ram[mem->next];
 8004602:	199c      	adds	r4, r3, r6
  if (mem != nmem && nmem->used == 0 && (u8_t *)nmem != (u8_t *)ram_end) {
 8004604:	42a1      	cmp	r1, r4
 8004606:	d00d      	beq.n	8004624 <mem_free+0x70>
 8004608:	7927      	ldrb	r7, [r4, #4]
 800460a:	b95f      	cbnz	r7, 8004624 <mem_free+0x70>
 800460c:	45a6      	cmp	lr, r4
 800460e:	d009      	beq.n	8004624 <mem_free+0x70>
    if (lfree == nmem) {
 8004610:	6817      	ldr	r7, [r2, #0]
 8004612:	42bc      	cmp	r4, r7
    mem->next = nmem->next;
 8004614:	5b9c      	ldrh	r4, [r3, r6]
 8004616:	f820 4c08 	strh.w	r4, [r0, #-8]
    ((struct mem *)(void *)&ram[nmem->next])->prev = (mem_size_t)((u8_t *)mem - ram);
 800461a:	5b9c      	ldrh	r4, [r3, r6]
      lfree = mem;
 800461c:	bf08      	it	eq
 800461e:	6011      	streq	r1, [r2, #0]
    ((struct mem *)(void *)&ram[nmem->next])->prev = (mem_size_t)((u8_t *)mem - ram);
 8004620:	441c      	add	r4, r3
 8004622:	8065      	strh	r5, [r4, #2]
  pmem = (struct mem *)(void *)&ram[mem->prev];
 8004624:	f830 4c06 	ldrh.w	r4, [r0, #-6]
 8004628:	191d      	adds	r5, r3, r4
  if (pmem != mem && pmem->used == 0) {
 800462a:	42a9      	cmp	r1, r5
 800462c:	d00c      	beq.n	8004648 <mem_free+0x94>
 800462e:	792e      	ldrb	r6, [r5, #4]
 8004630:	b956      	cbnz	r6, 8004648 <mem_free+0x94>
    if (lfree == mem) {
 8004632:	6816      	ldr	r6, [r2, #0]
 8004634:	42b1      	cmp	r1, r6
      lfree = pmem;
 8004636:	bf08      	it	eq
 8004638:	6015      	streq	r5, [r2, #0]
    pmem->next = mem->next;
 800463a:	f830 2c08 	ldrh.w	r2, [r0, #-8]
 800463e:	531a      	strh	r2, [r3, r4]
    ((struct mem *)(void *)&ram[mem->next])->prev = (mem_size_t)((u8_t *)pmem - ram);
 8004640:	f830 2c08 	ldrh.w	r2, [r0, #-8]
 8004644:	4413      	add	r3, r2
 8004646:	805c      	strh	r4, [r3, #2]
 8004648:	bdf0      	pop	{r4, r5, r6, r7, pc}
 800464a:	bf00      	nop
 800464c:	20000898 	.word	0x20000898
 8004650:	2000aaca 	.word	0x2000aaca
 8004654:	2000089c 	.word	0x2000089c
 8004658:	20000894 	.word	0x20000894

0800465c <mem_trim>:
  /* use the FREE_PROTECT here: it protects with sem OR SYS_ARCH_PROTECT */
  LWIP_MEM_FREE_DECL_PROTECT();

  /* Expand the size of the allocated memory region so that we can
     adjust for alignment. */
  newsize = LWIP_MEM_ALIGN_SIZE(newsize);
 800465c:	3103      	adds	r1, #3
 800465e:	f64f 72fc 	movw	r2, #65532	; 0xfffc
 8004662:	400a      	ands	r2, r1

  if(newsize < MIN_SIZE_ALIGNED) {
 8004664:	2a0b      	cmp	r2, #11
{
 8004666:	e92d 41f0 	stmdb	sp!, {r4, r5, r6, r7, r8, lr}
  if(newsize < MIN_SIZE_ALIGNED) {
 800466a:	d906      	bls.n	800467a <mem_trim+0x1e>
    /* every data block must be at least MIN_SIZE_ALIGNED long */
    newsize = MIN_SIZE_ALIGNED;
  }

  if (newsize > MEM_SIZE_ALIGNED) {
 800466c:	f242 7310 	movw	r3, #10000	; 0x2710
 8004670:	429a      	cmp	r2, r3
 8004672:	d903      	bls.n	800467c <mem_trim+0x20>
    return NULL;
 8004674:	2000      	movs	r0, #0
#if LWIP_ALLOW_MEM_FREE_FROM_OTHER_CONTEXT
  mem_free_count = 1;
#endif /* LWIP_ALLOW_MEM_FREE_FROM_OTHER_CONTEXT */
  LWIP_MEM_FREE_UNPROTECT();
  return rmem;
}
 8004676:	e8bd 81f0 	ldmia.w	sp!, {r4, r5, r6, r7, r8, pc}
    newsize = MIN_SIZE_ALIGNED;
 800467a:	220c      	movs	r2, #12
  LWIP_ASSERT("mem_trim: legal memory", (u8_t *)rmem >= (u8_t *)ram &&
 800467c:	4b2a      	ldr	r3, [pc, #168]	; (8004728 <mem_trim+0xcc>)
 800467e:	681b      	ldr	r3, [r3, #0]
  if ((u8_t *)rmem < (u8_t *)ram || (u8_t *)rmem >= (u8_t *)ram_end) {
 8004680:	4283      	cmp	r3, r0
 8004682:	d803      	bhi.n	800468c <mem_trim+0x30>
 8004684:	4929      	ldr	r1, [pc, #164]	; (800472c <mem_trim+0xd0>)
 8004686:	6809      	ldr	r1, [r1, #0]
 8004688:	4288      	cmp	r0, r1
 800468a:	d307      	bcc.n	800469c <mem_trim+0x40>
    MEM_STATS_INC(illegal);
 800468c:	4a28      	ldr	r2, [pc, #160]	; (8004730 <mem_trim+0xd4>)
 800468e:	f8b2 30b0 	ldrh.w	r3, [r2, #176]	; 0xb0
 8004692:	3301      	adds	r3, #1
 8004694:	f8a2 30b0 	strh.w	r3, [r2, #176]	; 0xb0
    return rmem;
 8004698:	e8bd 81f0 	ldmia.w	sp!, {r4, r5, r6, r7, r8, pc}
  mem = (struct mem *)(void *)((u8_t *)rmem - SIZEOF_STRUCT_MEM);
 800469c:	f1a0 0408 	sub.w	r4, r0, #8
  size = mem->next - ptr - SIZEOF_STRUCT_MEM;
 80046a0:	f830 ec08 	ldrh.w	lr, [r0, #-8]
  ptr = (mem_size_t)((u8_t *)mem - ram);
 80046a4:	1ae4      	subs	r4, r4, r3
 80046a6:	b2a4      	uxth	r4, r4
  size = mem->next - ptr - SIZEOF_STRUCT_MEM;
 80046a8:	f1ae 0508 	sub.w	r5, lr, #8
 80046ac:	1b2d      	subs	r5, r5, r4
 80046ae:	fa1f f885 	uxth.w	r8, r5
  if (newsize > size) {
 80046b2:	4590      	cmp	r8, r2
 80046b4:	d3de      	bcc.n	8004674 <mem_trim+0x18>
  if (newsize == size) {
 80046b6:	d0de      	beq.n	8004676 <mem_trim+0x1a>
  mem2 = (struct mem *)(void *)&ram[mem->next];
 80046b8:	eb03 0c0e 	add.w	ip, r3, lr
  if(mem2->used == 0) {
 80046bc:	f89c 1004 	ldrb.w	r1, [ip, #4]
 80046c0:	b969      	cbnz	r1, 80046de <mem_trim+0x82>
    if (lfree == mem2) {
 80046c2:	4f1c      	ldr	r7, [pc, #112]	; (8004734 <mem_trim+0xd8>)
    next = mem2->next;
 80046c4:	f833 e00e 	ldrh.w	lr, [r3, lr]
    if (lfree == mem2) {
 80046c8:	683e      	ldr	r6, [r7, #0]
    ptr2 = ptr + SIZEOF_STRUCT_MEM + newsize;
 80046ca:	f104 0108 	add.w	r1, r4, #8
 80046ce:	4411      	add	r1, r2
 80046d0:	b289      	uxth	r1, r1
    if (lfree == mem2) {
 80046d2:	45b4      	cmp	ip, r6
 80046d4:	eb03 0601 	add.w	r6, r3, r1
 80046d8:	d10e      	bne.n	80046f8 <mem_trim+0x9c>
      lfree = mem2;
 80046da:	603e      	str	r6, [r7, #0]
 80046dc:	e00c      	b.n	80046f8 <mem_trim+0x9c>
  } else if (newsize + SIZEOF_STRUCT_MEM + MIN_SIZE_ALIGNED <= size) {
 80046de:	f102 0114 	add.w	r1, r2, #20
 80046e2:	4541      	cmp	r1, r8
 80046e4:	d8c7      	bhi.n	8004676 <mem_trim+0x1a>
    ptr2 = ptr + SIZEOF_STRUCT_MEM + newsize;
 80046e6:	f104 0108 	add.w	r1, r4, #8
    if (mem2 < lfree) {
 80046ea:	4f12      	ldr	r7, [pc, #72]	; (8004734 <mem_trim+0xd8>)
    ptr2 = ptr + SIZEOF_STRUCT_MEM + newsize;
 80046ec:	4411      	add	r1, r2
 80046ee:	b289      	uxth	r1, r1
    if (mem2 < lfree) {
 80046f0:	683d      	ldr	r5, [r7, #0]
    mem2 = (struct mem *)(void *)&ram[ptr2];
 80046f2:	185e      	adds	r6, r3, r1
    if (mem2 < lfree) {
 80046f4:	42ae      	cmp	r6, r5
 80046f6:	d3f0      	bcc.n	80046da <mem_trim+0x7e>
    mem2->used = 0;
 80046f8:	2700      	movs	r7, #0
 80046fa:	7137      	strb	r7, [r6, #4]
    mem2->next = mem->next;
 80046fc:	f823 e001 	strh.w	lr, [r3, r1]
    mem2->prev = ptr;
 8004700:	8074      	strh	r4, [r6, #2]
    mem->next = ptr2;
 8004702:	f820 1c08 	strh.w	r1, [r0, #-8]
    if (mem2->next != MEM_SIZE_ALIGNED) {
 8004706:	5a5c      	ldrh	r4, [r3, r1]
 8004708:	f242 7610 	movw	r6, #10000	; 0x2710
 800470c:	42b4      	cmp	r4, r6
      ((struct mem *)(void *)&ram[mem2->next])->prev = ptr2;
 800470e:	bf1c      	itt	ne
 8004710:	191b      	addne	r3, r3, r4
 8004712:	8059      	strhne	r1, [r3, #2]
    MEM_STATS_DEC_USED(used, (size - newsize));
 8004714:	4906      	ldr	r1, [pc, #24]	; (8004730 <mem_trim+0xd4>)
 8004716:	f8b1 30aa 	ldrh.w	r3, [r1, #170]	; 0xaa
 800471a:	eba3 0508 	sub.w	r5, r3, r8
 800471e:	442a      	add	r2, r5
 8004720:	f8a1 20aa 	strh.w	r2, [r1, #170]	; 0xaa
 8004724:	e8bd 81f0 	ldmia.w	sp!, {r4, r5, r6, r7, r8, pc}
 8004728:	20000898 	.word	0x20000898
 800472c:	2000089c 	.word	0x2000089c
 8004730:	2000aaca 	.word	0x2000aaca
 8004734:	20000894 	.word	0x20000894

08004738 <mem_malloc>:
 *
 * Note that the returned value will always be aligned (as defined by MEM_ALIGNMENT).
 */
void *
mem_malloc(mem_size_t size)
{
 8004738:	e92d 47f0 	stmdb	sp!, {r4, r5, r6, r7, r8, r9, sl, lr}
#if LWIP_ALLOW_MEM_FREE_FROM_OTHER_CONTEXT
  u8_t local_mem_free_count = 0;
#endif /* LWIP_ALLOW_MEM_FREE_FROM_OTHER_CONTEXT */
  LWIP_MEM_ALLOC_DECL_PROTECT();

  if (size == 0) {
 800473c:	b150      	cbz	r0, 8004754 <mem_malloc+0x1c>
    return NULL;
  }

  /* Expand the size of the allocated memory region so that we can
     adjust for alignment. */
  size = LWIP_MEM_ALIGN_SIZE(size);
 800473e:	3003      	adds	r0, #3
 8004740:	f64f 72fc 	movw	r2, #65532	; 0xfffc
 8004744:	4002      	ands	r2, r0

  if(size < MIN_SIZE_ALIGNED) {
 8004746:	2a0b      	cmp	r2, #11
 8004748:	d906      	bls.n	8004758 <mem_malloc+0x20>
    /* every data block must be at least MIN_SIZE_ALIGNED long */
    size = MIN_SIZE_ALIGNED;
  }

  if (size > MEM_SIZE_ALIGNED) {
 800474a:	f242 7310 	movw	r3, #10000	; 0x2710
 800474e:	429a      	cmp	r2, r3
 8004750:	d903      	bls.n	800475a <mem_malloc+0x22>
    return NULL;
 8004752:	2000      	movs	r0, #0
  LWIP_DEBUGF(MEM_DEBUG | LWIP_DBG_LEVEL_SERIOUS, ("mem_malloc: could not allocate %"S16_F" bytes\n", (s16_t)size));
  MEM_STATS_INC(err);
  LWIP_MEM_ALLOC_UNPROTECT();
  sys_mutex_unlock(&mem_mutex);
  return NULL;
}
 8004754:	e8bd 87f0 	ldmia.w	sp!, {r4, r5, r6, r7, r8, r9, sl, pc}
    size = MIN_SIZE_ALIGNED;
 8004758:	220c      	movs	r2, #12
    for (ptr = (mem_size_t)((u8_t *)lfree - ram); ptr < MEM_SIZE_ALIGNED - size;
 800475a:	4c38      	ldr	r4, [pc, #224]	; (800483c <mem_malloc+0x104>)
 800475c:	4d38      	ldr	r5, [pc, #224]	; (8004840 <mem_malloc+0x108>)
 800475e:	6826      	ldr	r6, [r4, #0]
 8004760:	f8d5 e000 	ldr.w	lr, [r5]
 8004764:	f242 7810 	movw	r8, #10000	; 0x2710
 8004768:	eba6 030e 	sub.w	r3, r6, lr
 800476c:	b29b      	uxth	r3, r3
 800476e:	eba8 0702 	sub.w	r7, r8, r2
          (mem->next - (ptr + SIZEOF_STRUCT_MEM)) >= size) {
 8004772:	f06f 0a07 	mvn.w	sl, #7
    for (ptr = (mem_size_t)((u8_t *)lfree - ram); ptr < MEM_SIZE_ALIGNED - size;
 8004776:	42bb      	cmp	r3, r7
 8004778:	db06      	blt.n	8004788 <mem_malloc+0x50>
  MEM_STATS_INC(err);
 800477a:	4a32      	ldr	r2, [pc, #200]	; (8004844 <mem_malloc+0x10c>)
 800477c:	f8b2 30ae 	ldrh.w	r3, [r2, #174]	; 0xae
 8004780:	3301      	adds	r3, #1
 8004782:	f8a2 30ae 	strh.w	r3, [r2, #174]	; 0xae
 8004786:	e7e4      	b.n	8004752 <mem_malloc+0x1a>
      mem = (struct mem *)(void *)&ram[ptr];
 8004788:	eb0e 0003 	add.w	r0, lr, r3
 800478c:	f83e c003 	ldrh.w	ip, [lr, r3]
      if ((!mem->used) &&
 8004790:	f890 9004 	ldrb.w	r9, [r0, #4]
 8004794:	f1b9 0f00 	cmp.w	r9, #0
 8004798:	d14e      	bne.n	8004838 <mem_malloc+0x100>
          (mem->next - (ptr + SIZEOF_STRUCT_MEM)) >= size) {
 800479a:	ebaa 0103 	sub.w	r1, sl, r3
 800479e:	4461      	add	r1, ip
      if ((!mem->used) &&
 80047a0:	4291      	cmp	r1, r2
 80047a2:	d349      	bcc.n	8004838 <mem_malloc+0x100>
        if (mem->next - (ptr + SIZEOF_STRUCT_MEM) >= (size + SIZEOF_STRUCT_MEM + MIN_SIZE_ALIGNED)) {
 80047a4:	f102 0714 	add.w	r7, r2, #20
 80047a8:	42b9      	cmp	r1, r7
 80047aa:	4926      	ldr	r1, [pc, #152]	; (8004844 <mem_malloc+0x10c>)
 80047ac:	d331      	bcc.n	8004812 <mem_malloc+0xda>
          ptr2 = ptr + SIZEOF_STRUCT_MEM + size;
 80047ae:	f102 0708 	add.w	r7, r2, #8
 80047b2:	441f      	add	r7, r3
 80047b4:	b2bf      	uxth	r7, r7
          mem2 = (struct mem *)(void *)&ram[ptr2];
 80047b6:	eb0e 0a07 	add.w	sl, lr, r7
          mem2->used = 0;
 80047ba:	f88a 9004 	strb.w	r9, [sl, #4]
          mem2->next = mem->next;
 80047be:	f82e c007 	strh.w	ip, [lr, r7]
          mem2->prev = ptr;
 80047c2:	f8aa 3002 	strh.w	r3, [sl, #2]
          mem->used = 1;
 80047c6:	2301      	movs	r3, #1
 80047c8:	7103      	strb	r3, [r0, #4]
          mem->next = ptr2;
 80047ca:	8007      	strh	r7, [r0, #0]
          if (mem2->next != MEM_SIZE_ALIGNED) {
 80047cc:	f83e 3007 	ldrh.w	r3, [lr, r7]
 80047d0:	4543      	cmp	r3, r8
            ((struct mem *)(void *)&ram[mem2->next])->prev = ptr2;
 80047d2:	bf18      	it	ne
 80047d4:	449e      	addne	lr, r3
          MEM_STATS_INC_USED(used, (size + SIZEOF_STRUCT_MEM));
 80047d6:	f8b1 30aa 	ldrh.w	r3, [r1, #170]	; 0xaa
            ((struct mem *)(void *)&ram[mem2->next])->prev = ptr2;
 80047da:	bf18      	it	ne
 80047dc:	f8ae 7002 	strhne.w	r7, [lr, #2]
          MEM_STATS_INC_USED(used, (size + SIZEOF_STRUCT_MEM));
 80047e0:	3308      	adds	r3, #8
 80047e2:	441a      	add	r2, r3
 80047e4:	f8b1 30ac 	ldrh.w	r3, [r1, #172]	; 0xac
 80047e8:	b292      	uxth	r2, r2
 80047ea:	4293      	cmp	r3, r2
 80047ec:	f8a1 20aa 	strh.w	r2, [r1, #170]	; 0xaa
 80047f0:	d201      	bcs.n	80047f6 <mem_malloc+0xbe>
 80047f2:	f8a1 20ac 	strh.w	r2, [r1, #172]	; 0xac
        if (mem == lfree) {
 80047f6:	4286      	cmp	r6, r0
 80047f8:	d108      	bne.n	800480c <mem_malloc+0xd4>
          while (cur->used && cur != ram_end) {
 80047fa:	4b13      	ldr	r3, [pc, #76]	; (8004848 <mem_malloc+0x110>)
            cur = (struct mem *)(void *)&ram[cur->next];
 80047fc:	6829      	ldr	r1, [r5, #0]
          while (cur->used && cur != ram_end) {
 80047fe:	681a      	ldr	r2, [r3, #0]
            cur = (struct mem *)(void *)&ram[cur->next];
 8004800:	4603      	mov	r3, r0
          while (cur->used && cur != ram_end) {
 8004802:	791d      	ldrb	r5, [r3, #4]
 8004804:	b10d      	cbz	r5, 800480a <mem_malloc+0xd2>
 8004806:	4293      	cmp	r3, r2
 8004808:	d113      	bne.n	8004832 <mem_malloc+0xfa>
          lfree = cur;
 800480a:	6023      	str	r3, [r4, #0]
        return (u8_t *)mem + SIZEOF_STRUCT_MEM;
 800480c:	3008      	adds	r0, #8
 800480e:	e8bd 87f0 	ldmia.w	sp!, {r4, r5, r6, r7, r8, r9, sl, pc}
          mem->used = 1;
 8004812:	2201      	movs	r2, #1
 8004814:	7102      	strb	r2, [r0, #4]
          MEM_STATS_INC_USED(used, mem->next - (mem_size_t)((u8_t *)mem - ram));
 8004816:	f8b1 20aa 	ldrh.w	r2, [r1, #170]	; 0xaa
 800481a:	4462      	add	r2, ip
 800481c:	1ad3      	subs	r3, r2, r3
 800481e:	f8b1 20ac 	ldrh.w	r2, [r1, #172]	; 0xac
 8004822:	b29b      	uxth	r3, r3
 8004824:	429a      	cmp	r2, r3
 8004826:	f8a1 30aa 	strh.w	r3, [r1, #170]	; 0xaa
 800482a:	bf38      	it	cc
 800482c:	f8a1 30ac 	strhcc.w	r3, [r1, #172]	; 0xac
 8004830:	e7e1      	b.n	80047f6 <mem_malloc+0xbe>
            cur = (struct mem *)(void *)&ram[cur->next];
 8004832:	881b      	ldrh	r3, [r3, #0]
 8004834:	440b      	add	r3, r1
 8004836:	e7e4      	b.n	8004802 <mem_malloc+0xca>
         ptr = ((struct mem *)(void *)&ram[ptr])->next) {
 8004838:	4663      	mov	r3, ip
 800483a:	e79c      	b.n	8004776 <mem_malloc+0x3e>
 800483c:	20000894 	.word	0x20000894
 8004840:	20000898 	.word	0x20000898
 8004844:	2000aaca 	.word	0x2000aaca
 8004848:	2000089c 	.word	0x2000089c

0800484c <memp_init>:

  for (i = 0; i < MEMP_MAX; ++i) {
    MEMP_STATS_AVAIL(used, i, 0);
    MEMP_STATS_AVAIL(max, i, 0);
    MEMP_STATS_AVAIL(err, i, 0);
    MEMP_STATS_AVAIL(avail, i, memp_num[i]);
 800484c:	481b      	ldr	r0, [pc, #108]	; (80048bc <memp_init+0x70>)
 800484e:	4b1c      	ldr	r3, [pc, #112]	; (80048c0 <memp_init+0x74>)
{
 8004850:	2200      	movs	r2, #0
 8004852:	e92d 43f0 	stmdb	sp!, {r4, r5, r6, r7, r8, r9, lr}
    MEMP_STATS_AVAIL(used, i, 0);
 8004856:	4611      	mov	r1, r2
 8004858:	4686      	mov	lr, r0
    MEMP_STATS_AVAIL(avail, i, memp_num[i]);
 800485a:	f830 4012 	ldrh.w	r4, [r0, r2, lsl #1]
    MEMP_STATS_AVAIL(used, i, 0);
 800485e:	f8a3 10b4 	strh.w	r1, [r3, #180]	; 0xb4
 8004862:	3201      	adds	r2, #1
  for (i = 0; i < MEMP_MAX; ++i) {
 8004864:	2a0a      	cmp	r2, #10
    MEMP_STATS_AVAIL(max, i, 0);
 8004866:	f8a3 10b6 	strh.w	r1, [r3, #182]	; 0xb6
    MEMP_STATS_AVAIL(err, i, 0);
 800486a:	f8a3 10b8 	strh.w	r1, [r3, #184]	; 0xb8
    MEMP_STATS_AVAIL(avail, i, memp_num[i]);
 800486e:	f8a3 40b2 	strh.w	r4, [r3, #178]	; 0xb2
 8004872:	f103 030a 	add.w	r3, r3, #10
  for (i = 0; i < MEMP_MAX; ++i) {
 8004876:	d1f0      	bne.n	800485a <memp_init+0xe>
  }

#if !MEMP_SEPARATE_POOLS
  memp = (struct memp *)LWIP_MEM_ALIGN(memp_memory);
 8004878:	4a12      	ldr	r2, [pc, #72]	; (80048c4 <memp_init+0x78>)
#endif /* !MEMP_SEPARATE_POOLS */
  /* for every pool: */
  for (i = 0; i < MEMP_MAX; ++i) {
    memp_tab[i] = NULL;
 800487a:	4813      	ldr	r0, [pc, #76]	; (80048c8 <memp_init+0x7c>)
#endif /* MEMP_SEPARATE_POOLS */
    /* create a linked list of memp elements */
    for (j = 0; j < memp_num[i]; ++j) {
      memp->next = memp_tab[i];
      memp_tab[i] = memp;
      memp = (struct memp *)(void *)((u8_t *)memp + MEMP_SIZE + memp_sizes[i]
 800487c:	f8df c04c 	ldr.w	ip, [pc, #76]	; 80048cc <memp_init+0x80>
  memp = (struct memp *)LWIP_MEM_ALIGN(memp_memory);
 8004880:	2300      	movs	r3, #0
 8004882:	f022 0203 	bic.w	r2, r2, #3
    memp_tab[i] = NULL;
 8004886:	461e      	mov	r6, r3
 8004888:	4604      	mov	r4, r0
 800488a:	f840 6023 	str.w	r6, [r0, r3, lsl #2]
    for (j = 0; j < memp_num[i]; ++j) {
 800488e:	f83e 8013 	ldrh.w	r8, [lr, r3, lsl #1]
 8004892:	009d      	lsls	r5, r3, #2
 8004894:	ea4f 0943 	mov.w	r9, r3, lsl #1
 8004898:	2100      	movs	r1, #0
 800489a:	b28f      	uxth	r7, r1
 800489c:	45b8      	cmp	r8, r7
 800489e:	d804      	bhi.n	80048aa <memp_init+0x5e>
 80048a0:	3301      	adds	r3, #1
  for (i = 0; i < MEMP_MAX; ++i) {
 80048a2:	2b0a      	cmp	r3, #10
 80048a4:	d1f1      	bne.n	800488a <memp_init+0x3e>
#if MEMP_OVERFLOW_CHECK
  memp_overflow_init();
  /* check everything a first time to see if it worked */
  memp_overflow_check_all();
#endif /* MEMP_OVERFLOW_CHECK */
}
 80048a6:	e8bd 83f0 	ldmia.w	sp!, {r4, r5, r6, r7, r8, r9, pc}
      memp->next = memp_tab[i];
 80048aa:	5967      	ldr	r7, [r4, r5]
 80048ac:	6017      	str	r7, [r2, #0]
      memp = (struct memp *)(void *)((u8_t *)memp + MEMP_SIZE + memp_sizes[i]
 80048ae:	f839 700c 	ldrh.w	r7, [r9, ip]
      memp_tab[i] = memp;
 80048b2:	5162      	str	r2, [r4, r5]
 80048b4:	3101      	adds	r1, #1
      memp = (struct memp *)(void *)((u8_t *)memp + MEMP_SIZE + memp_sizes[i]
 80048b6:	443a      	add	r2, r7
 80048b8:	e7ef      	b.n	800489a <memp_init+0x4e>
 80048ba:	bf00      	nop
 80048bc:	08007d6c 	.word	0x08007d6c
 80048c0:	2000aaca 	.word	0x2000aaca
 80048c4:	200008a3 	.word	0x200008a3
 80048c8:	20007164 	.word	0x20007164
 80048cc:	08007d80 	.word	0x08007d80

080048d0 <memp_malloc>:
#endif
{
  struct memp *memp;
  SYS_ARCH_DECL_PROTECT(old_level);
 
  LWIP_ERROR("memp_malloc: type < MEMP_MAX", (type < MEMP_MAX), return NULL;);
 80048d0:	2809      	cmp	r0, #9
{
 80048d2:	b530      	push	{r4, r5, lr}
  LWIP_ERROR("memp_malloc: type < MEMP_MAX", (type < MEMP_MAX), return NULL;);
 80048d4:	d820      	bhi.n	8004918 <memp_malloc+0x48>
  SYS_ARCH_PROTECT(old_level);
#if MEMP_OVERFLOW_CHECK >= 2
  memp_overflow_check_all();
#endif /* MEMP_OVERFLOW_CHECK >= 2 */

  memp = memp_tab[type];
 80048d6:	4c11      	ldr	r4, [pc, #68]	; (800491c <memp_malloc+0x4c>)
 80048d8:	4b11      	ldr	r3, [pc, #68]	; (8004920 <memp_malloc+0x50>)
 80048da:	f854 2020 	ldr.w	r2, [r4, r0, lsl #2]
 80048de:	210a      	movs	r1, #10
  
  if (memp != NULL) {
 80048e0:	b192      	cbz	r2, 8004908 <memp_malloc+0x38>
#if MEMP_OVERFLOW_CHECK
    memp->next = NULL;
    memp->file = file;
    memp->line = line;
#endif /* MEMP_OVERFLOW_CHECK */
    MEMP_STATS_INC_USED(used, type);
 80048e2:	fb01 3300 	mla	r3, r1, r0, r3
    memp_tab[type] = memp->next;
 80048e6:	6815      	ldr	r5, [r2, #0]
    MEMP_STATS_INC_USED(used, type);
 80048e8:	f8b3 10b4 	ldrh.w	r1, [r3, #180]	; 0xb4
    memp_tab[type] = memp->next;
 80048ec:	f844 5020 	str.w	r5, [r4, r0, lsl #2]
    MEMP_STATS_INC_USED(used, type);
 80048f0:	3101      	adds	r1, #1
 80048f2:	f8b3 00b6 	ldrh.w	r0, [r3, #182]	; 0xb6
 80048f6:	b289      	uxth	r1, r1
 80048f8:	4288      	cmp	r0, r1
 80048fa:	f8a3 10b4 	strh.w	r1, [r3, #180]	; 0xb4
 80048fe:	d201      	bcs.n	8004904 <memp_malloc+0x34>
 8004900:	f8a3 10b6 	strh.w	r1, [r3, #182]	; 0xb6
  }

  SYS_ARCH_UNPROTECT(old_level);

  return memp;
}
 8004904:	4610      	mov	r0, r2
 8004906:	bd30      	pop	{r4, r5, pc}
    MEMP_STATS_INC(err, type);
 8004908:	fb01 3300 	mla	r3, r1, r0, r3
 800490c:	f8b3 10b8 	ldrh.w	r1, [r3, #184]	; 0xb8
 8004910:	3101      	adds	r1, #1
 8004912:	f8a3 10b8 	strh.w	r1, [r3, #184]	; 0xb8
 8004916:	e7f5      	b.n	8004904 <memp_malloc+0x34>
  LWIP_ERROR("memp_malloc: type < MEMP_MAX", (type < MEMP_MAX), return NULL;);
 8004918:	2200      	movs	r2, #0
 800491a:	e7f3      	b.n	8004904 <memp_malloc+0x34>
 800491c:	20007164 	.word	0x20007164
 8004920:	2000aaca 	.word	0x2000aaca

08004924 <memp_free>:
memp_free(memp_t type, void *mem)
{
  struct memp *memp;
  SYS_ARCH_DECL_PROTECT(old_level);

  if (mem == NULL) {
 8004924:	b171      	cbz	r1, 8004944 <memp_free+0x20>
  memp_overflow_check_element_overflow(memp, type);
  memp_overflow_check_element_underflow(memp, type);
#endif /* MEMP_OVERFLOW_CHECK >= 2 */
#endif /* MEMP_OVERFLOW_CHECK */

  MEMP_STATS_DEC(used, type); 
 8004926:	4a08      	ldr	r2, [pc, #32]	; (8004948 <memp_free+0x24>)
 8004928:	230a      	movs	r3, #10
 800492a:	fb03 2300 	mla	r3, r3, r0, r2
 800492e:	f8b3 20b4 	ldrh.w	r2, [r3, #180]	; 0xb4
 8004932:	3a01      	subs	r2, #1
 8004934:	f8a3 20b4 	strh.w	r2, [r3, #180]	; 0xb4
  
  memp->next = memp_tab[type]; 
 8004938:	4b04      	ldr	r3, [pc, #16]	; (800494c <memp_free+0x28>)
 800493a:	f853 2020 	ldr.w	r2, [r3, r0, lsl #2]
 800493e:	600a      	str	r2, [r1, #0]
  memp_tab[type] = memp;
 8004940:	f843 1020 	str.w	r1, [r3, r0, lsl #2]
 8004944:	4770      	bx	lr
 8004946:	bf00      	nop
 8004948:	2000aaca 	.word	0x2000aaca
 800494c:	20007164 	.word	0x20007164

08004950 <netif_init>:
}
#endif /* LWIP_HAVE_LOOPIF */

void
netif_init(void)
{
 8004950:	4770      	bx	lr
	...

08004954 <netif_set_ipaddr>:
 * @note call netif_set_addr() if you also want to change netmask and
 * default gateway
 */
void
netif_set_ipaddr(struct netif *netif, ip_addr_t *ipaddr)
{
 8004954:	b570      	push	{r4, r5, r6, lr}
 8004956:	4605      	mov	r5, r0
#if LWIP_TCP
  struct tcp_pcb *pcb;
  struct tcp_pcb_listen *lpcb;

  /* address is actually being changed? */
  if (ipaddr && (ip_addr_cmp(ipaddr, &(netif->ip_addr))) == 0) {
 8004958:	460c      	mov	r4, r1
 800495a:	b151      	cbz	r1, 8004972 <netif_set_ipaddr+0x1e>
 800495c:	680a      	ldr	r2, [r1, #0]
 800495e:	6843      	ldr	r3, [r0, #4]
 8004960:	429a      	cmp	r2, r3
 8004962:	d005      	beq.n	8004970 <netif_set_ipaddr+0x1c>
    /* extern struct tcp_pcb *tcp_active_pcbs; defined by tcp.h */
    LWIP_DEBUGF(NETIF_DEBUG | LWIP_DBG_STATE, ("netif_set_ipaddr: netif address being changed\n"));
    pcb = tcp_active_pcbs;
 8004964:	4b0d      	ldr	r3, [pc, #52]	; (800499c <netif_set_ipaddr+0x48>)
 8004966:	6818      	ldr	r0, [r3, #0]
    while (pcb != NULL) {
 8004968:	b928      	cbnz	r0, 8004976 <netif_set_ipaddr+0x22>
        pcb = next;
      } else {
        pcb = pcb->next;
      }
    }
    for (lpcb = tcp_listen_pcbs.listen_pcbs; lpcb != NULL; lpcb = lpcb->next) {
 800496a:	4b0d      	ldr	r3, [pc, #52]	; (80049a0 <netif_set_ipaddr+0x4c>)
 800496c:	681b      	ldr	r3, [r3, #0]
 800496e:	b95b      	cbnz	r3, 8004988 <netif_set_ipaddr+0x34>
  }
#endif
  snmp_delete_ipaddridx_tree(netif);
  snmp_delete_iprteidx_tree(0,netif);
  /* set new IP address to netif */
  ip_addr_set(&(netif->ip_addr), ipaddr);
 8004970:	6824      	ldr	r4, [r4, #0]
 8004972:	606c      	str	r4, [r5, #4]
    netif->name[0], netif->name[1],
    ip4_addr1_16(&netif->ip_addr),
    ip4_addr2_16(&netif->ip_addr),
    ip4_addr3_16(&netif->ip_addr),
    ip4_addr4_16(&netif->ip_addr)));
}
 8004974:	bd70      	pop	{r4, r5, r6, pc}
      if (ip_addr_cmp(&(pcb->local_ip), &(netif->ip_addr))
 8004976:	6802      	ldr	r2, [r0, #0]
 8004978:	686b      	ldr	r3, [r5, #4]
 800497a:	68c6      	ldr	r6, [r0, #12]
 800497c:	429a      	cmp	r2, r3
 800497e:	d101      	bne.n	8004984 <netif_set_ipaddr+0x30>
        tcp_abort(pcb);
 8004980:	f000 fe0a 	bl	8005598 <tcp_abort>
        pcb = pcb->next;
 8004984:	4630      	mov	r0, r6
 8004986:	e7ef      	b.n	8004968 <netif_set_ipaddr+0x14>
      if ((!(ip_addr_isany(&(lpcb->local_ip)))) &&
 8004988:	681a      	ldr	r2, [r3, #0]
 800498a:	b122      	cbz	r2, 8004996 <netif_set_ipaddr+0x42>
 800498c:	6869      	ldr	r1, [r5, #4]
 800498e:	428a      	cmp	r2, r1
        ip_addr_set(&(lpcb->local_ip), ipaddr);
 8004990:	bf04      	itt	eq
 8004992:	6822      	ldreq	r2, [r4, #0]
 8004994:	601a      	streq	r2, [r3, #0]
    for (lpcb = tcp_listen_pcbs.listen_pcbs; lpcb != NULL; lpcb = lpcb->next) {
 8004996:	68db      	ldr	r3, [r3, #12]
 8004998:	e7e9      	b.n	800496e <netif_set_ipaddr+0x1a>
 800499a:	bf00      	nop
 800499c:	2000abe4 	.word	0x2000abe4
 80049a0:	2000abec 	.word	0x2000abec

080049a4 <netif_set_addr>:
{
 80049a4:	b570      	push	{r4, r5, r6, lr}
 80049a6:	4615      	mov	r5, r2
 80049a8:	4606      	mov	r6, r0
 80049aa:	461c      	mov	r4, r3
  netif_set_ipaddr(netif, ipaddr);
 80049ac:	f7ff ffd2 	bl	8004954 <netif_set_ipaddr>
void
netif_set_netmask(struct netif *netif, ip_addr_t *netmask)
{
  snmp_delete_iprteidx_tree(0, netif);
  /* set new netmask to netif */
  ip_addr_set(&(netif->netmask), netmask);
 80049b0:	b105      	cbz	r5, 80049b4 <netif_set_addr+0x10>
 80049b2:	682d      	ldr	r5, [r5, #0]
 80049b4:	60b5      	str	r5, [r6, #8]
  ip_addr_set(&(netif->gw), gw);
 80049b6:	b104      	cbz	r4, 80049ba <netif_set_addr+0x16>
 80049b8:	6824      	ldr	r4, [r4, #0]
 80049ba:	60f4      	str	r4, [r6, #12]
 80049bc:	bd70      	pop	{r4, r5, r6, pc}
	...

080049c0 <netif_add>:
{
 80049c0:	b5f8      	push	{r3, r4, r5, r6, r7, lr}
  netif->num = netif_num++;
 80049c2:	4f10      	ldr	r7, [pc, #64]	; (8004a04 <netif_add+0x44>)
  netif->state = state;
 80049c4:	9e06      	ldr	r6, [sp, #24]
 80049c6:	61c6      	str	r6, [r0, #28]
  netif->num = netif_num++;
 80049c8:	783e      	ldrb	r6, [r7, #0]
 80049ca:	f880 602c 	strb.w	r6, [r0, #44]	; 0x2c
  ip_addr_set_zero(&netif->ip_addr);
 80049ce:	2500      	movs	r5, #0
  netif->num = netif_num++;
 80049d0:	f106 0e01 	add.w	lr, r6, #1
  netif->input = input;
 80049d4:	9e08      	ldr	r6, [sp, #32]
  ip_addr_set_zero(&netif->ip_addr);
 80049d6:	6045      	str	r5, [r0, #4]
{
 80049d8:	4604      	mov	r4, r0
  ip_addr_set_zero(&netif->netmask);
 80049da:	6085      	str	r5, [r0, #8]
  ip_addr_set_zero(&netif->gw);
 80049dc:	60c5      	str	r5, [r0, #12]
  netif->flags = 0;
 80049de:	f880 5029 	strb.w	r5, [r0, #41]	; 0x29
  netif->input = input;
 80049e2:	6106      	str	r6, [r0, #16]
  netif->num = netif_num++;
 80049e4:	f887 e000 	strb.w	lr, [r7]
  netif_set_addr(netif, ipaddr, netmask, gw);
 80049e8:	f7ff ffdc 	bl	80049a4 <netif_set_addr>
  if (init(netif) != ERR_OK) {
 80049ec:	4620      	mov	r0, r4
 80049ee:	9b07      	ldr	r3, [sp, #28]
 80049f0:	4798      	blx	r3
 80049f2:	b928      	cbnz	r0, 8004a00 <netif_add+0x40>
  netif->next = netif_list;
 80049f4:	4b04      	ldr	r3, [pc, #16]	; (8004a08 <netif_add+0x48>)
 80049f6:	681a      	ldr	r2, [r3, #0]
 80049f8:	6022      	str	r2, [r4, #0]
  netif_list = netif;
 80049fa:	601c      	str	r4, [r3, #0]
}
 80049fc:	4620      	mov	r0, r4
 80049fe:	bdf8      	pop	{r3, r4, r5, r6, r7, pc}
    return NULL;
 8004a00:	462c      	mov	r4, r5
 8004a02:	e7fb      	b.n	80049fc <netif_add+0x3c>
 8004a04:	2000718c 	.word	0x2000718c
 8004a08:	2000aac0 	.word	0x2000aac0

08004a0c <netif_set_default>:
    snmp_delete_iprteidx_tree(1, netif);
  } else {
    /* install default route */
    snmp_insert_iprteidx_tree(1, netif);
  }
  netif_default = netif;
 8004a0c:	4b01      	ldr	r3, [pc, #4]	; (8004a14 <netif_set_default+0x8>)
 8004a0e:	6018      	str	r0, [r3, #0]
 8004a10:	4770      	bx	lr
 8004a12:	bf00      	nop
 8004a14:	2000aac4 	.word	0x2000aac4

08004a18 <pbuf_alloced_custom>:
 *        big enough to hold 'length' plus the header size
 */
struct pbuf*
pbuf_alloced_custom(pbuf_layer l, u16_t length, pbuf_type type, struct pbuf_custom *p,
                    void *payload_mem, u16_t payload_mem_len)
{
 8004a18:	b570      	push	{r4, r5, r6, lr}
 8004a1a:	9d04      	ldr	r5, [sp, #16]
  u16_t offset;
  LWIP_DEBUGF(PBUF_DEBUG | LWIP_DBG_TRACE, ("pbuf_alloced_custom(length=%"U16_F")\n", length));

  /* determine header offset */
  switch (l) {
 8004a1c:	2803      	cmp	r0, #3
 8004a1e:	d823      	bhi.n	8004a68 <pbuf_alloced_custom+0x50>
 8004a20:	e8df f000 	tbb	[pc, r0]
 8004a24:	1c1a021e 	.word	0x1c1a021e
    /* add room for transport (often TCP) layer header */
    offset = PBUF_LINK_HLEN + PBUF_IP_HLEN + PBUF_TRANSPORT_HLEN;
    break;
  case PBUF_IP:
    /* add room for IP layer header */
    offset = PBUF_LINK_HLEN + PBUF_IP_HLEN;
 8004a28:	2022      	movs	r0, #34	; 0x22
  default:
    LWIP_ASSERT("pbuf_alloced_custom: bad pbuf layer", 0);
    return NULL;
  }

  if (LWIP_MEM_ALIGN_SIZE(offset) + length > payload_mem_len) {
 8004a2a:	3003      	adds	r0, #3
 8004a2c:	f020 0403 	bic.w	r4, r0, #3
 8004a30:	f8bd 0014 	ldrh.w	r0, [sp, #20]
 8004a34:	1866      	adds	r6, r4, r1
 8004a36:	4286      	cmp	r6, r0
 8004a38:	f04f 0000 	mov.w	r0, #0
 8004a3c:	dc15      	bgt.n	8004a6a <pbuf_alloced_custom+0x52>
    LWIP_DEBUGF(PBUF_DEBUG | LWIP_DBG_LEVEL_WARNING, ("pbuf_alloced_custom(length=%"U16_F") buffer too short\n", length));
    return NULL;
  }

  p->pbuf.next = NULL;
 8004a3e:	6018      	str	r0, [r3, #0]
  if (payload_mem != NULL) {
 8004a40:	b185      	cbz	r5, 8004a64 <pbuf_alloced_custom+0x4c>
    p->pbuf.payload = (u8_t *)payload_mem + LWIP_MEM_ALIGN_SIZE(offset);
 8004a42:	442c      	add	r4, r5
 8004a44:	605c      	str	r4, [r3, #4]
  } else {
    p->pbuf.payload = NULL;
  }
  p->pbuf.flags = PBUF_FLAG_IS_CUSTOM;
 8004a46:	2002      	movs	r0, #2
  p->pbuf.len = p->pbuf.tot_len = length;
  p->pbuf.type = type;
 8004a48:	731a      	strb	r2, [r3, #12]
  p->pbuf.ref = 1;
 8004a4a:	2201      	movs	r2, #1
  p->pbuf.flags = PBUF_FLAG_IS_CUSTOM;
 8004a4c:	7358      	strb	r0, [r3, #13]
  p->pbuf.len = p->pbuf.tot_len = length;
 8004a4e:	8119      	strh	r1, [r3, #8]
 8004a50:	8159      	strh	r1, [r3, #10]
  p->pbuf.ref = 1;
 8004a52:	81da      	strh	r2, [r3, #14]
  return &p->pbuf;
 8004a54:	4618      	mov	r0, r3
 8004a56:	bd70      	pop	{r4, r5, r6, pc}
    offset = PBUF_LINK_HLEN;
 8004a58:	200e      	movs	r0, #14
    break;
 8004a5a:	e7e6      	b.n	8004a2a <pbuf_alloced_custom+0x12>
    offset = 0;
 8004a5c:	2000      	movs	r0, #0
    break;
 8004a5e:	e7e4      	b.n	8004a2a <pbuf_alloced_custom+0x12>
    offset = PBUF_LINK_HLEN + PBUF_IP_HLEN + PBUF_TRANSPORT_HLEN;
 8004a60:	2036      	movs	r0, #54	; 0x36
 8004a62:	e7e2      	b.n	8004a2a <pbuf_alloced_custom+0x12>
    p->pbuf.payload = NULL;
 8004a64:	605d      	str	r5, [r3, #4]
 8004a66:	e7ee      	b.n	8004a46 <pbuf_alloced_custom+0x2e>
    return NULL;
 8004a68:	2000      	movs	r0, #0
}
 8004a6a:	bd70      	pop	{r4, r5, r6, pc}

08004a6c <pbuf_header>:
 * @return non-zero on failure, zero on success.
 *
 */
u8_t
pbuf_header(struct pbuf *p, s16_t header_size_increment)
{
 8004a6c:	b510      	push	{r4, lr}
  u16_t type;
  void *payload;
  u16_t increment_magnitude;

  LWIP_ASSERT("p != NULL", p != NULL);
  if ((header_size_increment == 0) || (p == NULL)) {
 8004a6e:	b1e1      	cbz	r1, 8004aaa <pbuf_header+0x3e>
 8004a70:	b138      	cbz	r0, 8004a82 <pbuf_header+0x16>
    return 0;
  }
 
  if (header_size_increment < 0){
 8004a72:	2900      	cmp	r1, #0
 8004a74:	da06      	bge.n	8004a84 <pbuf_header+0x18>
    increment_magnitude = -header_size_increment;
 8004a76:	424a      	negs	r2, r1
    /* Check that we aren't going to move off the end of the pbuf */
    LWIP_ERROR("increment_magnitude <= p->len", (increment_magnitude <= p->len), return 1;);
 8004a78:	8943      	ldrh	r3, [r0, #10]
    increment_magnitude = -header_size_increment;
 8004a7a:	b292      	uxth	r2, r2
    LWIP_ERROR("increment_magnitude <= p->len", (increment_magnitude <= p->len), return 1;);
 8004a7c:	4293      	cmp	r3, r2
 8004a7e:	d202      	bcs.n	8004a86 <pbuf_header+0x1a>
 8004a80:	2001      	movs	r0, #1

  LWIP_DEBUGF(PBUF_DEBUG | LWIP_DBG_TRACE, ("pbuf_header: old %p new %p (%"S16_F")\n",
    (void *)payload, (void *)p->payload, header_size_increment));

  return 0;
}
 8004a82:	bd10      	pop	{r4, pc}
    increment_magnitude = header_size_increment;
 8004a84:	b28a      	uxth	r2, r1
  type = p->type;
 8004a86:	7b04      	ldrb	r4, [r0, #12]
  payload = p->payload;
 8004a88:	6843      	ldr	r3, [r0, #4]
  if (type == PBUF_RAM || type == PBUF_POOL) {
 8004a8a:	b10c      	cbz	r4, 8004a90 <pbuf_header+0x24>
 8004a8c:	2c03      	cmp	r4, #3
 8004a8e:	d10e      	bne.n	8004aae <pbuf_header+0x42>
    p->payload = (u8_t *)p->payload - header_size_increment;
 8004a90:	1a5b      	subs	r3, r3, r1
    if ((u8_t *)p->payload < (u8_t *)p + SIZEOF_STRUCT_PBUF) {
 8004a92:	f100 0210 	add.w	r2, r0, #16
 8004a96:	4293      	cmp	r3, r2
 8004a98:	d3f2      	bcc.n	8004a80 <pbuf_header+0x14>
      p->payload = (u8_t *)p->payload - header_size_increment;
 8004a9a:	6043      	str	r3, [r0, #4]
  p->len += header_size_increment;
 8004a9c:	8943      	ldrh	r3, [r0, #10]
 8004a9e:	b289      	uxth	r1, r1
 8004aa0:	440b      	add	r3, r1
 8004aa2:	8143      	strh	r3, [r0, #10]
  p->tot_len += header_size_increment;
 8004aa4:	8903      	ldrh	r3, [r0, #8]
 8004aa6:	4419      	add	r1, r3
 8004aa8:	8101      	strh	r1, [r0, #8]
  return 0;
 8004aaa:	2000      	movs	r0, #0
 8004aac:	bd10      	pop	{r4, pc}
  } else if (type == PBUF_REF || type == PBUF_ROM) {
 8004aae:	3c01      	subs	r4, #1
 8004ab0:	2c01      	cmp	r4, #1
 8004ab2:	d8e5      	bhi.n	8004a80 <pbuf_header+0x14>
    if ((header_size_increment < 0) && (increment_magnitude <= p->len)) {
 8004ab4:	2900      	cmp	r1, #0
 8004ab6:	dae3      	bge.n	8004a80 <pbuf_header+0x14>
 8004ab8:	8944      	ldrh	r4, [r0, #10]
 8004aba:	4294      	cmp	r4, r2
 8004abc:	d3e0      	bcc.n	8004a80 <pbuf_header+0x14>
      p->payload = (u8_t *)p->payload - header_size_increment;
 8004abe:	1a5b      	subs	r3, r3, r1
 8004ac0:	e7eb      	b.n	8004a9a <pbuf_header+0x2e>

08004ac2 <pbuf_free>:
 * 1->1->1 becomes .......
 *
 */
u8_t
pbuf_free(struct pbuf *p)
{
 8004ac2:	b538      	push	{r3, r4, r5, lr}
  u16_t type;
  struct pbuf *q;
  u8_t count;

  if (p == NULL) {
 8004ac4:	4601      	mov	r1, r0
 8004ac6:	b310      	cbz	r0, 8004b0e <pbuf_free+0x4c>
 8004ac8:	2400      	movs	r4, #0
 8004aca:	b2e0      	uxtb	r0, r4
    p->type == PBUF_REF || p->type == PBUF_POOL);

  count = 0;
  /* de-allocate all consecutive pbufs from the head of the chain that
   * obtain a zero reference count after decrementing*/
  while (p != NULL) {
 8004acc:	b901      	cbnz	r1, 8004ad0 <pbuf_free+0xe>
 8004ace:	bd38      	pop	{r3, r4, r5, pc}
     * further protection. */
    SYS_ARCH_PROTECT(old_level);
    /* all pbufs in a chain are referenced at least once */
    LWIP_ASSERT("pbuf_free: p->ref > 0", p->ref > 0);
    /* decrease reference count (number of pointers to pbuf) */
    ref = --(p->ref);
 8004ad0:	89cb      	ldrh	r3, [r1, #14]
 8004ad2:	3b01      	subs	r3, #1
 8004ad4:	b29b      	uxth	r3, r3
 8004ad6:	81cb      	strh	r3, [r1, #14]
    SYS_ARCH_UNPROTECT(old_level);
    /* this pbuf is no longer referenced to? */
    if (ref == 0) {
 8004ad8:	b9cb      	cbnz	r3, 8004b0e <pbuf_free+0x4c>
      q = p->next;
      LWIP_DEBUGF( PBUF_DEBUG | LWIP_DBG_TRACE, ("pbuf_free: deallocating %p\n", (void *)p));
      type = p->type;
#if LWIP_SUPPORT_CUSTOM_PBUF
      /* is this a custom pbuf? */
      if ((p->flags & PBUF_FLAG_IS_CUSTOM) != 0) {
 8004ada:	7b4b      	ldrb	r3, [r1, #13]
      q = p->next;
 8004adc:	680d      	ldr	r5, [r1, #0]
      if ((p->flags & PBUF_FLAG_IS_CUSTOM) != 0) {
 8004ade:	079b      	lsls	r3, r3, #30
 8004ae0:	d505      	bpl.n	8004aee <pbuf_free+0x2c>
        struct pbuf_custom *pc = (struct pbuf_custom*)p;
        LWIP_ASSERT("pc->custom_free_function != NULL", pc->custom_free_function != NULL);
        pc->custom_free_function(p);
 8004ae2:	690b      	ldr	r3, [r1, #16]
 8004ae4:	4608      	mov	r0, r1
 8004ae6:	4798      	blx	r3
 8004ae8:	3401      	adds	r4, #1
          mem_free(p);
        }
      }
      count++;
      /* proceed to next pbuf */
      p = q;
 8004aea:	4629      	mov	r1, r5
 8004aec:	e7ed      	b.n	8004aca <pbuf_free+0x8>
      type = p->type;
 8004aee:	7b0b      	ldrb	r3, [r1, #12]
        if (type == PBUF_POOL) {
 8004af0:	2b03      	cmp	r3, #3
 8004af2:	d103      	bne.n	8004afc <pbuf_free+0x3a>
          memp_free(MEMP_PBUF_POOL, p);
 8004af4:	2009      	movs	r0, #9
          memp_free(MEMP_PBUF, p);
 8004af6:	f7ff ff15 	bl	8004924 <memp_free>
 8004afa:	e7f5      	b.n	8004ae8 <pbuf_free+0x26>
        } else if (type == PBUF_ROM || type == PBUF_REF) {
 8004afc:	3b01      	subs	r3, #1
 8004afe:	2b01      	cmp	r3, #1
 8004b00:	d801      	bhi.n	8004b06 <pbuf_free+0x44>
          memp_free(MEMP_PBUF, p);
 8004b02:	2008      	movs	r0, #8
 8004b04:	e7f7      	b.n	8004af6 <pbuf_free+0x34>
          mem_free(p);
 8004b06:	4608      	mov	r0, r1
 8004b08:	f7ff fd54 	bl	80045b4 <mem_free>
 8004b0c:	e7ec      	b.n	8004ae8 <pbuf_free+0x26>
    }
  }
  PERF_STOP("pbuf_free");
  /* return number of de-allocated pbufs */
  return count;
}
 8004b0e:	bd38      	pop	{r3, r4, r5, pc}

08004b10 <pbuf_alloc>:
{
 8004b10:	e92d 43f8 	stmdb	sp!, {r3, r4, r5, r6, r7, r8, r9, lr}
 8004b14:	460e      	mov	r6, r1
 8004b16:	4617      	mov	r7, r2
  switch (layer) {
 8004b18:	2803      	cmp	r0, #3
 8004b1a:	d845      	bhi.n	8004ba8 <pbuf_alloc+0x98>
 8004b1c:	e8df f000 	tbb	[pc, r0]
 8004b20:	0b09020d 	.word	0x0b09020d
    offset = PBUF_LINK_HLEN + PBUF_IP_HLEN;
 8004b24:	2522      	movs	r5, #34	; 0x22
  switch (type) {
 8004b26:	2f03      	cmp	r7, #3
 8004b28:	d83e      	bhi.n	8004ba8 <pbuf_alloc+0x98>
 8004b2a:	e8df f007 	tbb	[pc, r7]
 8004b2e:	6e55      	.short	0x6e55
 8004b30:	086e      	.short	0x086e
    offset = PBUF_LINK_HLEN;
 8004b32:	250e      	movs	r5, #14
    break;
 8004b34:	e7f7      	b.n	8004b26 <pbuf_alloc+0x16>
    offset = 0;
 8004b36:	2500      	movs	r5, #0
    break;
 8004b38:	e7f5      	b.n	8004b26 <pbuf_alloc+0x16>
    offset = PBUF_LINK_HLEN + PBUF_IP_HLEN + PBUF_TRANSPORT_HLEN;
 8004b3a:	2536      	movs	r5, #54	; 0x36
 8004b3c:	e7f3      	b.n	8004b26 <pbuf_alloc+0x16>
    p = (struct pbuf *)memp_malloc(MEMP_PBUF_POOL);
 8004b3e:	2009      	movs	r0, #9
 8004b40:	f7ff fec6 	bl	80048d0 <memp_malloc>
    if (p == NULL) {
 8004b44:	4604      	mov	r4, r0
 8004b46:	b928      	cbnz	r0, 8004b54 <pbuf_alloc+0x44>
  pbuf_free_ooseq_pending = 1;
 8004b48:	4b36      	ldr	r3, [pc, #216]	; (8004c24 <pbuf_alloc+0x114>)
 8004b4a:	2201      	movs	r2, #1
 8004b4c:	701a      	strb	r2, [r3, #0]
}
 8004b4e:	4620      	mov	r0, r4
 8004b50:	e8bd 83f8 	ldmia.w	sp!, {r3, r4, r5, r6, r7, r8, r9, pc}
    p->type = type;
 8004b54:	2203      	movs	r2, #3
    p->payload = LWIP_MEM_ALIGN((void *)((u8_t *)p + (SIZEOF_STRUCT_PBUF + offset)));
 8004b56:	1943      	adds	r3, r0, r5
    p->len = LWIP_MIN(length, PBUF_POOL_BUFSIZE_ALIGNED - LWIP_MEM_ALIGN_SIZE(offset));
 8004b58:	4415      	add	r5, r2
 8004b5a:	f025 0503 	bic.w	r5, r5, #3
 8004b5e:	f5c5 65bd 	rsb	r5, r5, #1512	; 0x5e8
 8004b62:	3504      	adds	r5, #4
    p->payload = LWIP_MEM_ALIGN((void *)((u8_t *)p + (SIZEOF_STRUCT_PBUF + offset)));
 8004b64:	3313      	adds	r3, #19
 8004b66:	f023 0303 	bic.w	r3, r3, #3
    p->len = LWIP_MIN(length, PBUF_POOL_BUFSIZE_ALIGNED - LWIP_MEM_ALIGN_SIZE(offset));
 8004b6a:	42b5      	cmp	r5, r6
 8004b6c:	bfa8      	it	ge
 8004b6e:	4635      	movge	r5, r6
    p->next = NULL;
 8004b70:	2700      	movs	r7, #0
    p->payload = LWIP_MEM_ALIGN((void *)((u8_t *)p + (SIZEOF_STRUCT_PBUF + offset)));
 8004b72:	6043      	str	r3, [r0, #4]
    p->ref = 1;
 8004b74:	2301      	movs	r3, #1
    p->len = LWIP_MIN(length, PBUF_POOL_BUFSIZE_ALIGNED - LWIP_MEM_ALIGN_SIZE(offset));
 8004b76:	8145      	strh	r5, [r0, #10]
    p->type = type;
 8004b78:	7302      	strb	r2, [r0, #12]
    p->next = NULL;
 8004b7a:	6007      	str	r7, [r0, #0]
    p->tot_len = length;
 8004b7c:	8106      	strh	r6, [r0, #8]
    p->ref = 1;
 8004b7e:	81c3      	strh	r3, [r0, #14]
    rem_len = length - p->len;
 8004b80:	1b75      	subs	r5, r6, r5
    while (rem_len > 0) {
 8004b82:	4680      	mov	r8, r0
      q->type = type;
 8004b84:	4691      	mov	r9, r2
    while (rem_len > 0) {
 8004b86:	2d00      	cmp	r5, #0
 8004b88:	dc04      	bgt.n	8004b94 <pbuf_alloc+0x84>
  p->ref = 1;
 8004b8a:	2301      	movs	r3, #1
 8004b8c:	81e3      	strh	r3, [r4, #14]
  p->flags = 0;
 8004b8e:	2300      	movs	r3, #0
 8004b90:	7363      	strb	r3, [r4, #13]
  return p;
 8004b92:	e7dc      	b.n	8004b4e <pbuf_alloc+0x3e>
      q = (struct pbuf *)memp_malloc(MEMP_PBUF_POOL);
 8004b94:	2009      	movs	r0, #9
 8004b96:	f7ff fe9b 	bl	80048d0 <memp_malloc>
      if (q == NULL) {
 8004b9a:	b938      	cbnz	r0, 8004bac <pbuf_alloc+0x9c>
  pbuf_free_ooseq_pending = 1;
 8004b9c:	4b21      	ldr	r3, [pc, #132]	; (8004c24 <pbuf_alloc+0x114>)
 8004b9e:	2201      	movs	r2, #1
        pbuf_free(p);
 8004ba0:	4620      	mov	r0, r4
  pbuf_free_ooseq_pending = 1;
 8004ba2:	701a      	strb	r2, [r3, #0]
        pbuf_free(p);
 8004ba4:	f7ff ff8d 	bl	8004ac2 <pbuf_free>
    return NULL;
 8004ba8:	2400      	movs	r4, #0
 8004baa:	e7d0      	b.n	8004b4e <pbuf_alloc+0x3e>
      q->tot_len = (u16_t)rem_len;
 8004bac:	b2ab      	uxth	r3, r5
      q->len = LWIP_MIN((u16_t)rem_len, PBUF_POOL_BUFSIZE_ALIGNED);
 8004bae:	f240 52ec 	movw	r2, #1516	; 0x5ec
 8004bb2:	4293      	cmp	r3, r2
      q->type = type;
 8004bb4:	f880 900c 	strb.w	r9, [r0, #12]
      q->flags = 0;
 8004bb8:	7347      	strb	r7, [r0, #13]
      q->next = NULL;
 8004bba:	6007      	str	r7, [r0, #0]
      r->next = q;
 8004bbc:	f8c8 0000 	str.w	r0, [r8]
      q->tot_len = (u16_t)rem_len;
 8004bc0:	8103      	strh	r3, [r0, #8]
      q->len = LWIP_MIN((u16_t)rem_len, PBUF_POOL_BUFSIZE_ALIGNED);
 8004bc2:	bf28      	it	cs
 8004bc4:	4613      	movcs	r3, r2
      q->payload = (void *)((u8_t *)q + SIZEOF_STRUCT_PBUF);
 8004bc6:	f100 0210 	add.w	r2, r0, #16
 8004bca:	6042      	str	r2, [r0, #4]
      q->ref = 1;
 8004bcc:	2201      	movs	r2, #1
      q->len = LWIP_MIN((u16_t)rem_len, PBUF_POOL_BUFSIZE_ALIGNED);
 8004bce:	8143      	strh	r3, [r0, #10]
      q->ref = 1;
 8004bd0:	81c2      	strh	r2, [r0, #14]
      rem_len -= q->len;
 8004bd2:	1aed      	subs	r5, r5, r3
 8004bd4:	4680      	mov	r8, r0
 8004bd6:	e7d6      	b.n	8004b86 <pbuf_alloc+0x76>
    p = (struct pbuf*)mem_malloc(LWIP_MEM_ALIGN_SIZE(SIZEOF_STRUCT_PBUF + offset) + LWIP_MEM_ALIGN_SIZE(length));
 8004bd8:	f105 0013 	add.w	r0, r5, #19
 8004bdc:	1cf3      	adds	r3, r6, #3
 8004bde:	f023 0303 	bic.w	r3, r3, #3
 8004be2:	f020 0003 	bic.w	r0, r0, #3
 8004be6:	4418      	add	r0, r3
 8004be8:	b280      	uxth	r0, r0
 8004bea:	f7ff fda5 	bl	8004738 <mem_malloc>
    if (p == NULL) {
 8004bee:	4604      	mov	r4, r0
 8004bf0:	2800      	cmp	r0, #0
 8004bf2:	d0d9      	beq.n	8004ba8 <pbuf_alloc+0x98>
    p->payload = LWIP_MEM_ALIGN((void *)((u8_t *)p + SIZEOF_STRUCT_PBUF + offset));
 8004bf4:	1943      	adds	r3, r0, r5
 8004bf6:	3313      	adds	r3, #19
 8004bf8:	f023 0303 	bic.w	r3, r3, #3
 8004bfc:	6043      	str	r3, [r0, #4]
    p->next = NULL;
 8004bfe:	2300      	movs	r3, #0
    p->len = p->tot_len = length;
 8004c00:	8106      	strh	r6, [r0, #8]
 8004c02:	8146      	strh	r6, [r0, #10]
    p->next = NULL;
 8004c04:	6003      	str	r3, [r0, #0]
    p->type = type;
 8004c06:	7303      	strb	r3, [r0, #12]
 8004c08:	e7bf      	b.n	8004b8a <pbuf_alloc+0x7a>
    p = (struct pbuf *)memp_malloc(MEMP_PBUF);
 8004c0a:	2008      	movs	r0, #8
 8004c0c:	f7ff fe60 	bl	80048d0 <memp_malloc>
    if (p == NULL) {
 8004c10:	4604      	mov	r4, r0
 8004c12:	2800      	cmp	r0, #0
 8004c14:	d0c8      	beq.n	8004ba8 <pbuf_alloc+0x98>
    p->payload = NULL;
 8004c16:	2300      	movs	r3, #0
 8004c18:	6043      	str	r3, [r0, #4]
    p->len = p->tot_len = length;
 8004c1a:	8106      	strh	r6, [r0, #8]
 8004c1c:	8146      	strh	r6, [r0, #10]
    p->next = NULL;
 8004c1e:	6003      	str	r3, [r0, #0]
    p->type = type;
 8004c20:	7307      	strb	r7, [r0, #12]
    break;
 8004c22:	e7b2      	b.n	8004b8a <pbuf_alloc+0x7a>
 8004c24:	2000aac8 	.word	0x2000aac8

08004c28 <pbuf_realloc>:
{
 8004c28:	b538      	push	{r3, r4, r5, lr}
  if (new_len >= p->tot_len) {
 8004c2a:	8903      	ldrh	r3, [r0, #8]
 8004c2c:	428b      	cmp	r3, r1
{
 8004c2e:	4604      	mov	r4, r0
  if (new_len >= p->tot_len) {
 8004c30:	d918      	bls.n	8004c64 <pbuf_realloc+0x3c>
 8004c32:	460d      	mov	r5, r1
    q->tot_len += (u16_t)grow;
 8004c34:	1acb      	subs	r3, r1, r3
  while (rem_len > q->len) {
 8004c36:	8961      	ldrh	r1, [r4, #10]
 8004c38:	428d      	cmp	r5, r1
 8004c3a:	d814      	bhi.n	8004c66 <pbuf_realloc+0x3e>
  if ((q->type == PBUF_RAM) && (rem_len != q->len)) {
 8004c3c:	7b23      	ldrb	r3, [r4, #12]
 8004c3e:	b94b      	cbnz	r3, 8004c54 <pbuf_realloc+0x2c>
 8004c40:	428d      	cmp	r5, r1
 8004c42:	d007      	beq.n	8004c54 <pbuf_realloc+0x2c>
    q = (struct pbuf *)mem_trim(q, (u16_t)((u8_t *)q->payload - (u8_t *)q) + rem_len);
 8004c44:	6861      	ldr	r1, [r4, #4]
 8004c46:	1b09      	subs	r1, r1, r4
 8004c48:	4429      	add	r1, r5
 8004c4a:	4620      	mov	r0, r4
 8004c4c:	b289      	uxth	r1, r1
 8004c4e:	f7ff fd05 	bl	800465c <mem_trim>
 8004c52:	4604      	mov	r4, r0
  if (q->next != NULL) {
 8004c54:	6820      	ldr	r0, [r4, #0]
  q->len = rem_len;
 8004c56:	8165      	strh	r5, [r4, #10]
  q->tot_len = q->len;
 8004c58:	8125      	strh	r5, [r4, #8]
  if (q->next != NULL) {
 8004c5a:	b108      	cbz	r0, 8004c60 <pbuf_realloc+0x38>
    pbuf_free(q->next);
 8004c5c:	f7ff ff31 	bl	8004ac2 <pbuf_free>
  q->next = NULL;
 8004c60:	2300      	movs	r3, #0
 8004c62:	6023      	str	r3, [r4, #0]
 8004c64:	bd38      	pop	{r3, r4, r5, pc}
    q->tot_len += (u16_t)grow;
 8004c66:	8922      	ldrh	r2, [r4, #8]
    rem_len -= q->len;
 8004c68:	1a6d      	subs	r5, r5, r1
    q->tot_len += (u16_t)grow;
 8004c6a:	441a      	add	r2, r3
 8004c6c:	8122      	strh	r2, [r4, #8]
    rem_len -= q->len;
 8004c6e:	b2ad      	uxth	r5, r5
    q = q->next;
 8004c70:	6824      	ldr	r4, [r4, #0]
 8004c72:	e7e0      	b.n	8004c36 <pbuf_realloc+0xe>

08004c74 <pbuf_clen>:
 * @return the number of pbufs in a chain
 */

u8_t
pbuf_clen(struct pbuf *p)
{
 8004c74:	4603      	mov	r3, r0
  u8_t len;

  len = 0;
  while (p != NULL) {
 8004c76:	2200      	movs	r2, #0
 8004c78:	b2d0      	uxtb	r0, r2
 8004c7a:	3201      	adds	r2, #1
 8004c7c:	b903      	cbnz	r3, 8004c80 <pbuf_clen+0xc>
    ++len;
    p = p->next;
  }
  return len;
}
 8004c7e:	4770      	bx	lr
    p = p->next;
 8004c80:	681b      	ldr	r3, [r3, #0]
 8004c82:	e7f9      	b.n	8004c78 <pbuf_clen+0x4>

08004c84 <pbuf_ref>:
void
pbuf_ref(struct pbuf *p)
{
  SYS_ARCH_DECL_PROTECT(old_level);
  /* pbuf given? */
  if (p != NULL) {
 8004c84:	b110      	cbz	r0, 8004c8c <pbuf_ref+0x8>
    SYS_ARCH_PROTECT(old_level);
    ++(p->ref);
 8004c86:	89c3      	ldrh	r3, [r0, #14]
 8004c88:	3301      	adds	r3, #1
 8004c8a:	81c3      	strh	r3, [r0, #14]
 8004c8c:	4770      	bx	lr

08004c8e <pbuf_cat>:
 * @see pbuf_chain()
 */

void
pbuf_cat(struct pbuf *h, struct pbuf *t)
{
 8004c8e:	b510      	push	{r4, lr}
  struct pbuf *p;

  LWIP_ERROR("(h != NULL) && (t != NULL) (programmer violates API)",
 8004c90:	b150      	cbz	r0, 8004ca8 <pbuf_cat+0x1a>
 8004c92:	b909      	cbnz	r1, 8004c98 <pbuf_cat+0xa>
 8004c94:	bd10      	pop	{r4, pc}
             ((h != NULL) && (t != NULL)), return;);

  /* proceed to last pbuf of chain */
  for (p = h; p->next != NULL; p = p->next) {
    /* add total length of second chain to all totals of first chain */
    p->tot_len += t->tot_len;
 8004c96:	4620      	mov	r0, r4
 8004c98:	8903      	ldrh	r3, [r0, #8]
 8004c9a:	890a      	ldrh	r2, [r1, #8]
  for (p = h; p->next != NULL; p = p->next) {
 8004c9c:	6804      	ldr	r4, [r0, #0]
    p->tot_len += t->tot_len;
 8004c9e:	4413      	add	r3, r2
 8004ca0:	8103      	strh	r3, [r0, #8]
  for (p = h; p->next != NULL; p = p->next) {
 8004ca2:	2c00      	cmp	r4, #0
 8004ca4:	d1f7      	bne.n	8004c96 <pbuf_cat+0x8>
  LWIP_ASSERT("p->tot_len == p->len (of last pbuf in chain)", p->tot_len == p->len);
  LWIP_ASSERT("p->next == NULL", p->next == NULL);
  /* add total length of second chain to last pbuf total of first chain */
  p->tot_len += t->tot_len;
  /* chain last pbuf of head (p) with first of tail (t) */
  p->next = t;
 8004ca6:	6001      	str	r1, [r0, #0]
 8004ca8:	bd10      	pop	{r4, pc}

08004caa <pbuf_chain>:
 * The ->ref field of the first pbuf of the tail chain is adjusted.
 *
 */
void
pbuf_chain(struct pbuf *h, struct pbuf *t)
{
 8004caa:	b510      	push	{r4, lr}
  pbuf_cat(h, t);
 8004cac:	f7ff ffef 	bl	8004c8e <pbuf_cat>
  /* t is now referenced by h */
  pbuf_ref(t);
  LWIP_DEBUGF(PBUF_DEBUG | LWIP_DBG_TRACE, ("pbuf_chain: %p references %p\n", (void *)h, (void *)t));
}
 8004cb0:	e8bd 4010 	ldmia.w	sp!, {r4, lr}
  pbuf_ref(t);
 8004cb4:	4608      	mov	r0, r1
 8004cb6:	f7ff bfe5 	b.w	8004c84 <pbuf_ref>

08004cba <pbuf_copy>:
 *         ERR_ARG if one of the pbufs is NULL or p_to is not big
 *                 enough to hold p_from
 */
err_t
pbuf_copy(struct pbuf *p_to, struct pbuf *p_from)
{
 8004cba:	e92d 41f0 	stmdb	sp!, {r4, r5, r6, r7, r8, lr}
 8004cbe:	460c      	mov	r4, r1

  LWIP_DEBUGF(PBUF_DEBUG | LWIP_DBG_TRACE, ("pbuf_copy(%p, %p)\n",
    (void*)p_to, (void*)p_from));

  /* is the target big enough to hold the source? */
  LWIP_ERROR("pbuf_copy: target not big enough to hold source", ((p_to != NULL) &&
 8004cc0:	4605      	mov	r5, r0
 8004cc2:	b918      	cbnz	r0, 8004ccc <pbuf_copy+0x12>
 8004cc4:	f06f 000d 	mvn.w	r0, #13
 8004cc8:	e8bd 81f0 	ldmia.w	sp!, {r4, r5, r6, r7, r8, pc}
 8004ccc:	2900      	cmp	r1, #0
 8004cce:	d0f9      	beq.n	8004cc4 <pbuf_copy+0xa>
 8004cd0:	8902      	ldrh	r2, [r0, #8]
 8004cd2:	890b      	ldrh	r3, [r1, #8]
 8004cd4:	429a      	cmp	r2, r3
 8004cd6:	d3f5      	bcc.n	8004cc4 <pbuf_copy+0xa>
 8004cd8:	f04f 0800 	mov.w	r8, #0
 8004cdc:	4647      	mov	r7, r8

  /* iterate through pbuf chain */
  do
  {
    /* copy one part of the original chain */
    if ((p_to->len - offset_to) >= (p_from->len - offset_from)) {
 8004cde:	8963      	ldrh	r3, [r4, #10]
 8004ce0:	896e      	ldrh	r6, [r5, #10]
      len = p_from->len - offset_from;
    } else {
      /* current p_from does not fit into current p_to */
      len = p_to->len - offset_to;
    }
    MEMCPY((u8_t*)p_to->payload + offset_to, (u8_t*)p_from->payload + offset_from, len);
 8004ce2:	6861      	ldr	r1, [r4, #4]
 8004ce4:	6868      	ldr	r0, [r5, #4]
    if ((p_to->len - offset_to) >= (p_from->len - offset_from)) {
 8004ce6:	1bf6      	subs	r6, r6, r7
 8004ce8:	eba3 0308 	sub.w	r3, r3, r8
 8004cec:	429e      	cmp	r6, r3
      len = p_from->len - offset_from;
 8004cee:	bfac      	ite	ge
 8004cf0:	b29e      	uxthge	r6, r3
      len = p_to->len - offset_to;
 8004cf2:	b2b6      	uxthlt	r6, r6
    MEMCPY((u8_t*)p_to->payload + offset_to, (u8_t*)p_from->payload + offset_from, len);
 8004cf4:	4632      	mov	r2, r6
 8004cf6:	4441      	add	r1, r8
 8004cf8:	4438      	add	r0, r7
 8004cfa:	f002 ffa6 	bl	8007c4a <memcpy>
    offset_to += len;
 8004cfe:	4437      	add	r7, r6
    offset_from += len;
    LWIP_ASSERT("offset_to <= p_to->len", offset_to <= p_to->len);
    LWIP_ASSERT("offset_from <= p_from->len", offset_from <= p_from->len);
    if (offset_from >= p_from->len) {
 8004d00:	8962      	ldrh	r2, [r4, #10]
    LWIP_ASSERT("offset_to <= p_to->len", offset_to <= p_to->len);
 8004d02:	896b      	ldrh	r3, [r5, #10]
    offset_from += len;
 8004d04:	4446      	add	r6, r8
 8004d06:	fa1f f886 	uxth.w	r8, r6
    if (offset_from >= p_from->len) {
 8004d0a:	4542      	cmp	r2, r8
    offset_to += len;
 8004d0c:	b2bf      	uxth	r7, r7
      /* on to next p_from (if any) */
      offset_from = 0;
      p_from = p_from->next;
 8004d0e:	bf9c      	itt	ls
 8004d10:	6824      	ldrls	r4, [r4, #0]
      offset_from = 0;
 8004d12:	f04f 0800 	movls.w	r8, #0
    }
    if (offset_to == p_to->len) {
 8004d16:	429f      	cmp	r7, r3
 8004d18:	d10b      	bne.n	8004d32 <pbuf_copy+0x78>
      /* on to next p_to (if any) */
      offset_to = 0;
      p_to = p_to->next;
 8004d1a:	682d      	ldr	r5, [r5, #0]
      LWIP_ERROR("p_to != NULL", (p_to != NULL) || (p_from == NULL) , return ERR_ARG;);
 8004d1c:	b945      	cbnz	r5, 8004d30 <pbuf_copy+0x76>
 8004d1e:	2c00      	cmp	r4, #0
 8004d20:	d1d0      	bne.n	8004cc4 <pbuf_copy+0xa>
      LWIP_ERROR("pbuf_copy() does not allow packet queues!\n",
                  (p_to->next == NULL), return ERR_VAL;);
    }
  } while (p_from);
  LWIP_DEBUGF(PBUF_DEBUG | LWIP_DBG_TRACE, ("pbuf_copy: end of chain reached.\n"));
  return ERR_OK;
 8004d22:	4620      	mov	r0, r4
 8004d24:	e8bd 81f0 	ldmia.w	sp!, {r4, r5, r6, r7, r8, pc}
      LWIP_ERROR("pbuf_copy() does not allow packet queues!\n",
 8004d28:	f06f 0005 	mvn.w	r0, #5
 8004d2c:	e8bd 81f0 	ldmia.w	sp!, {r4, r5, r6, r7, r8, pc}
      offset_to = 0;
 8004d30:	2700      	movs	r7, #0
    if((p_from != NULL) && (p_from->len == p_from->tot_len)) {
 8004d32:	b134      	cbz	r4, 8004d42 <pbuf_copy+0x88>
 8004d34:	8962      	ldrh	r2, [r4, #10]
 8004d36:	8923      	ldrh	r3, [r4, #8]
 8004d38:	429a      	cmp	r2, r3
 8004d3a:	d102      	bne.n	8004d42 <pbuf_copy+0x88>
      LWIP_ERROR("pbuf_copy() does not allow packet queues!\n",
 8004d3c:	6823      	ldr	r3, [r4, #0]
 8004d3e:	2b00      	cmp	r3, #0
 8004d40:	d1f2      	bne.n	8004d28 <pbuf_copy+0x6e>
    if((p_to != NULL) && (p_to->len == p_to->tot_len)) {
 8004d42:	896a      	ldrh	r2, [r5, #10]
 8004d44:	892b      	ldrh	r3, [r5, #8]
 8004d46:	429a      	cmp	r2, r3
 8004d48:	d102      	bne.n	8004d50 <pbuf_copy+0x96>
      LWIP_ERROR("pbuf_copy() does not allow packet queues!\n",
 8004d4a:	682b      	ldr	r3, [r5, #0]
 8004d4c:	2b00      	cmp	r3, #0
 8004d4e:	d1eb      	bne.n	8004d28 <pbuf_copy+0x6e>
  } while (p_from);
 8004d50:	2c00      	cmp	r4, #0
 8004d52:	d1c4      	bne.n	8004cde <pbuf_copy+0x24>
 8004d54:	e7e5      	b.n	8004d22 <pbuf_copy+0x68>

08004d56 <pbuf_copy_partial>:
 * @param offset offset into the packet buffer from where to begin copying len bytes
 * @return the number of bytes copied, or 0 on failure
 */
u16_t
pbuf_copy_partial(struct pbuf *buf, void *dataptr, u16_t len, u16_t offset)
{
 8004d56:	e92d 41f0 	stmdb	sp!, {r4, r5, r6, r7, r8, lr}
 8004d5a:	460f      	mov	r7, r1
 8004d5c:	4690      	mov	r8, r2
  struct pbuf *p;
  u16_t left;
  u16_t buf_copy_len;
  u16_t copied_total = 0;

  LWIP_ERROR("pbuf_copy_partial: invalid buf", (buf != NULL), return 0;);
 8004d5e:	4606      	mov	r6, r0
 8004d60:	b320      	cbz	r0, 8004dac <pbuf_copy_partial+0x56>
  LWIP_ERROR("pbuf_copy_partial: invalid dataptr", (dataptr != NULL), return 0;);
 8004d62:	b329      	cbz	r1, 8004db0 <pbuf_copy_partial+0x5a>
 8004d64:	2500      	movs	r5, #0
  if((buf == NULL) || (dataptr == NULL)) {
    return 0;
  }

  /* Note some systems use byte copy if dataptr or one of the pbuf payload pointers are unaligned. */
  for(p = buf; len != 0 && p != NULL; p = p->next) {
 8004d66:	f1b8 0f00 	cmp.w	r8, #0
 8004d6a:	d000      	beq.n	8004d6e <pbuf_copy_partial+0x18>
 8004d6c:	b916      	cbnz	r6, 8004d74 <pbuf_copy_partial+0x1e>
      len -= buf_copy_len;
      offset = 0;
    }
  }
  return copied_total;
}
 8004d6e:	4628      	mov	r0, r5
 8004d70:	e8bd 81f0 	ldmia.w	sp!, {r4, r5, r6, r7, r8, pc}
    if ((offset != 0) && (offset >= p->len)) {
 8004d74:	b133      	cbz	r3, 8004d84 <pbuf_copy_partial+0x2e>
 8004d76:	8971      	ldrh	r1, [r6, #10]
 8004d78:	428b      	cmp	r3, r1
 8004d7a:	d303      	bcc.n	8004d84 <pbuf_copy_partial+0x2e>
      offset -= p->len;
 8004d7c:	1a5b      	subs	r3, r3, r1
 8004d7e:	b29b      	uxth	r3, r3
  for(p = buf; len != 0 && p != NULL; p = p->next) {
 8004d80:	6836      	ldr	r6, [r6, #0]
 8004d82:	e7f0      	b.n	8004d66 <pbuf_copy_partial+0x10>
      buf_copy_len = p->len - offset;
 8004d84:	8974      	ldrh	r4, [r6, #10]
      MEMCPY(&((char*)dataptr)[left], &((char*)p->payload)[offset], buf_copy_len);
 8004d86:	6871      	ldr	r1, [r6, #4]
      buf_copy_len = p->len - offset;
 8004d88:	1ae4      	subs	r4, r4, r3
 8004d8a:	b2a4      	uxth	r4, r4
 8004d8c:	4544      	cmp	r4, r8
 8004d8e:	bf28      	it	cs
 8004d90:	4644      	movcs	r4, r8
      MEMCPY(&((char*)dataptr)[left], &((char*)p->payload)[offset], buf_copy_len);
 8004d92:	4622      	mov	r2, r4
 8004d94:	4419      	add	r1, r3
 8004d96:	1978      	adds	r0, r7, r5
      copied_total += buf_copy_len;
 8004d98:	4425      	add	r5, r4
      len -= buf_copy_len;
 8004d9a:	eba8 0404 	sub.w	r4, r8, r4
      MEMCPY(&((char*)dataptr)[left], &((char*)p->payload)[offset], buf_copy_len);
 8004d9e:	f002 ff54 	bl	8007c4a <memcpy>
      copied_total += buf_copy_len;
 8004da2:	b2ad      	uxth	r5, r5
      len -= buf_copy_len;
 8004da4:	fa1f f884 	uxth.w	r8, r4
      offset = 0;
 8004da8:	2300      	movs	r3, #0
 8004daa:	e7e9      	b.n	8004d80 <pbuf_copy_partial+0x2a>
  LWIP_ERROR("pbuf_copy_partial: invalid buf", (buf != NULL), return 0;);
 8004dac:	4605      	mov	r5, r0
 8004dae:	e7de      	b.n	8004d6e <pbuf_copy_partial+0x18>
 8004db0:	460d      	mov	r5, r1
 8004db2:	e7dc      	b.n	8004d6e <pbuf_copy_partial+0x18>

08004db4 <raw_input>:
 *           caller).
 *
 */
u8_t
raw_input(struct pbuf *p, struct netif *inp)
{
 8004db4:	e92d 4ff8 	stmdb	sp!, {r3, r4, r5, r6, r7, r8, r9, sl, fp, lr}
  u8_t eaten = 0;

  LWIP_UNUSED_ARG(inp);

  iphdr = (struct ip_hdr *)p->payload;
  proto = IPH_PROTO(iphdr);
 8004db8:	6843      	ldr	r3, [r0, #4]

  prev = NULL;
  pcb = raw_pcbs;
 8004dba:	4d1a      	ldr	r5, [pc, #104]	; (8004e24 <raw_input+0x70>)
  proto = IPH_PROTO(iphdr);
 8004dbc:	f893 8009 	ldrb.w	r8, [r3, #9]
  pcb = raw_pcbs;
 8004dc0:	682c      	ldr	r4, [r5, #0]
#endif /* IP_SOF_BROADCAST_RECV */
      {
        /* receive callback function available? */
        if (pcb->recv != NULL) {
          /* the receive callback function did not eat the packet? */
          if (pcb->recv(pcb->recv_arg, pcb, p, ip_current_src_addr()) != 0) {
 8004dc2:	f8df 9064 	ldr.w	r9, [pc, #100]	; 8004e28 <raw_input+0x74>
         ip_addr_cmp(&(pcb->local_ip), &current_iphdr_dest))) {
 8004dc6:	f8df a064 	ldr.w	sl, [pc, #100]	; 8004e2c <raw_input+0x78>
{
 8004dca:	4607      	mov	r7, r0
  prev = NULL;
 8004dcc:	2600      	movs	r6, #0
  while ((eaten == 0) && (pcb != NULL)) {
 8004dce:	b914      	cbnz	r4, 8004dd6 <raw_input+0x22>
 8004dd0:	4620      	mov	r0, r4
    }
    prev = pcb;
    pcb = pcb->next;
  }
  return eaten;
}
 8004dd2:	e8bd 8ff8 	ldmia.w	sp!, {r3, r4, r5, r6, r7, r8, r9, sl, fp, pc}
    if ((pcb->protocol == proto) &&
 8004dd6:	7c23      	ldrb	r3, [r4, #16]
 8004dd8:	4543      	cmp	r3, r8
 8004dda:	d11e      	bne.n	8004e1a <raw_input+0x66>
        (ip_addr_isany(&pcb->local_ip) ||
 8004ddc:	6823      	ldr	r3, [r4, #0]
 8004dde:	b11b      	cbz	r3, 8004de8 <raw_input+0x34>
 8004de0:	f8da 2000 	ldr.w	r2, [sl]
 8004de4:	4293      	cmp	r3, r2
 8004de6:	d118      	bne.n	8004e1a <raw_input+0x66>
        if (pcb->recv != NULL) {
 8004de8:	f8d4 b014 	ldr.w	fp, [r4, #20]
 8004dec:	f1bb 0f00 	cmp.w	fp, #0
 8004df0:	d013      	beq.n	8004e1a <raw_input+0x66>
          if (pcb->recv(pcb->recv_arg, pcb, p, ip_current_src_addr()) != 0) {
 8004df2:	464b      	mov	r3, r9
 8004df4:	463a      	mov	r2, r7
 8004df6:	4621      	mov	r1, r4
 8004df8:	69a0      	ldr	r0, [r4, #24]
 8004dfa:	47d8      	blx	fp
 8004dfc:	b138      	cbz	r0, 8004e0e <raw_input+0x5a>
            if (prev != NULL) {
 8004dfe:	b176      	cbz	r6, 8004e1e <raw_input+0x6a>
              prev->next = pcb->next;
 8004e00:	68e3      	ldr	r3, [r4, #12]
 8004e02:	60f3      	str	r3, [r6, #12]
              pcb->next = raw_pcbs;
 8004e04:	682b      	ldr	r3, [r5, #0]
 8004e06:	60e3      	str	r3, [r4, #12]
              raw_pcbs = pcb;
 8004e08:	602c      	str	r4, [r5, #0]
            eaten = 1;
 8004e0a:	2001      	movs	r0, #1
            p = NULL;
 8004e0c:	2700      	movs	r7, #0
    pcb = pcb->next;
 8004e0e:	68e3      	ldr	r3, [r4, #12]
 8004e10:	4626      	mov	r6, r4
  while ((eaten == 0) && (pcb != NULL)) {
 8004e12:	2800      	cmp	r0, #0
 8004e14:	d1dd      	bne.n	8004dd2 <raw_input+0x1e>
    pcb = pcb->next;
 8004e16:	461c      	mov	r4, r3
 8004e18:	e7d9      	b.n	8004dce <raw_input+0x1a>
 8004e1a:	2000      	movs	r0, #0
 8004e1c:	e7f7      	b.n	8004e0e <raw_input+0x5a>
            eaten = 1;
 8004e1e:	2001      	movs	r0, #1
            p = NULL;
 8004e20:	4637      	mov	r7, r6
 8004e22:	e7f4      	b.n	8004e0e <raw_input+0x5a>
 8004e24:	20007190 	.word	0x20007190
 8004e28:	2000838c 	.word	0x2000838c
 8004e2c:	20008394 	.word	0x20008394

08004e30 <stats_init>:
#include <string.h>

struct stats_ lwip_stats;

void stats_init(void)
{
 8004e30:	4770      	bx	lr

08004e32 <tcp_init>:
/**
 * Initialize this module.
 */
void
tcp_init(void)
{
 8004e32:	4770      	bx	lr

08004e34 <tcp_update_rcv_ann_wnd>:
 *
 * Returns how much extra window would be advertised if we sent an
 * update now.
 */
u32_t tcp_update_rcv_ann_wnd(struct tcp_pcb *pcb)
{
 8004e34:	b570      	push	{r4, r5, r6, lr}
  u32_t new_right_edge = pcb->rcv_nxt + pcb->rcv_wnd;

  if (TCP_SEQ_GEQ(new_right_edge, pcb->rcv_ann_right_edge + LWIP_MIN((TCP_WND / 2), pcb->mss))) {
 8004e36:	6b01      	ldr	r1, [r0, #48]	; 0x30
  u32_t new_right_edge = pcb->rcv_nxt + pcb->rcv_wnd;
 8004e38:	8d85      	ldrh	r5, [r0, #44]	; 0x2c
 8004e3a:	6a84      	ldr	r4, [r0, #40]	; 0x28
{
 8004e3c:	4602      	mov	r2, r0
 8004e3e:	1a6b      	subs	r3, r5, r1
 8004e40:	1918      	adds	r0, r3, r4
  if (TCP_SEQ_GEQ(new_right_edge, pcb->rcv_ann_right_edge + LWIP_MIN((TCP_WND / 2), pcb->mss))) {
 8004e42:	8ed3      	ldrh	r3, [r2, #54]	; 0x36
 8004e44:	f640 3668 	movw	r6, #2920	; 0xb68
 8004e48:	42b3      	cmp	r3, r6
 8004e4a:	bf94      	ite	ls
 8004e4c:	1ac3      	subls	r3, r0, r3
 8004e4e:	1b83      	subhi	r3, r0, r6
 8004e50:	2b00      	cmp	r3, #0
 8004e52:	db01      	blt.n	8004e58 <tcp_update_rcv_ann_wnd+0x24>
    /* we can advertise more window */
    pcb->rcv_ann_wnd = pcb->rcv_wnd;
 8004e54:	85d5      	strh	r5, [r2, #46]	; 0x2e
    return new_right_edge - pcb->rcv_ann_right_edge;
 8004e56:	bd70      	pop	{r4, r5, r6, pc}
  } else {
    if (TCP_SEQ_GT(pcb->rcv_nxt, pcb->rcv_ann_right_edge)) {
 8004e58:	1a63      	subs	r3, r4, r1
 8004e5a:	2b00      	cmp	r3, #0
 8004e5c:	f04f 0000 	mov.w	r0, #0
      /* Can happen due to other end sending out of advertised window,
       * but within actual available (but not yet advertised) window */
      pcb->rcv_ann_wnd = 0;
    } else {
      /* keep the right edge of window constant */
      u32_t new_rcv_ann_wnd = pcb->rcv_ann_right_edge - pcb->rcv_nxt;
 8004e60:	bfd6      	itet	le
 8004e62:	1b09      	suble	r1, r1, r4
      pcb->rcv_ann_wnd = 0;
 8004e64:	85d0      	strhgt	r0, [r2, #46]	; 0x2e
      LWIP_ASSERT("new_rcv_ann_wnd <= 0xffff", new_rcv_ann_wnd <= 0xffff);
      pcb->rcv_ann_wnd = (u16_t)new_rcv_ann_wnd;
 8004e66:	85d1      	strhle	r1, [r2, #46]	; 0x2e
    }
    return 0;
  }
}
 8004e68:	bd70      	pop	{r4, r5, r6, pc}

08004e6a <tcp_recved>:
  LWIP_ASSERT("don't call tcp_recved for listen-pcbs",
    pcb->state != LISTEN);
  LWIP_ASSERT("tcp_recved: len would wrap rcv_wnd\n",
              len <= 0xffff - pcb->rcv_wnd );

  pcb->rcv_wnd += len;
 8004e6a:	8d83      	ldrh	r3, [r0, #44]	; 0x2c
 8004e6c:	4419      	add	r1, r3
 8004e6e:	b289      	uxth	r1, r1
  if (pcb->rcv_wnd > TCP_WND) {
 8004e70:	f241 63d0 	movw	r3, #5840	; 0x16d0
 8004e74:	4299      	cmp	r1, r3
{
 8004e76:	b510      	push	{r4, lr}
    pcb->rcv_wnd = TCP_WND;
 8004e78:	bf8c      	ite	hi
 8004e7a:	8583      	strhhi	r3, [r0, #44]	; 0x2c
  pcb->rcv_wnd += len;
 8004e7c:	8581      	strhls	r1, [r0, #44]	; 0x2c
{
 8004e7e:	4604      	mov	r4, r0
  }

  wnd_inflation = tcp_update_rcv_ann_wnd(pcb);
 8004e80:	f7ff ffd8 	bl	8004e34 <tcp_update_rcv_ann_wnd>

  /* If the change in the right edge of window is significant (default
   * watermark is TCP_WND/4), then send an explicit update now.
   * Otherwise wait for a packet to be sent in the normal course of
   * events (or more window to be available later) */
  if (wnd_inflation >= TCP_WND_UPDATE_THRESHOLD) {
 8004e84:	f240 53b3 	movw	r3, #1459	; 0x5b3
 8004e88:	4298      	cmp	r0, r3
 8004e8a:	dd08      	ble.n	8004e9e <tcp_recved+0x34>
    tcp_ack_now(pcb);
 8004e8c:	7fa3      	ldrb	r3, [r4, #30]
 8004e8e:	f043 0302 	orr.w	r3, r3, #2
 8004e92:	77a3      	strb	r3, [r4, #30]
    tcp_output(pcb);
 8004e94:	4620      	mov	r0, r4
  }

  LWIP_DEBUGF(TCP_DEBUG, ("tcp_recved: recveived %"U16_F" bytes, wnd %"U16_F" (%"U16_F").\n",
         len, pcb->rcv_wnd, TCP_WND - pcb->rcv_wnd));
}
 8004e96:	e8bd 4010 	ldmia.w	sp!, {r4, lr}
    tcp_output(pcb);
 8004e9a:	f001 be25 	b.w	8006ae8 <tcp_output>
 8004e9e:	bd10      	pop	{r4, pc}

08004ea0 <tcp_seg_free>:
 *
 * @param seg single tcp_seg to free
 */
void
tcp_seg_free(struct tcp_seg *seg)
{
 8004ea0:	b510      	push	{r4, lr}
  if (seg != NULL) {
 8004ea2:	4604      	mov	r4, r0
 8004ea4:	b148      	cbz	r0, 8004eba <tcp_seg_free+0x1a>
    if (seg->p != NULL) {
 8004ea6:	6840      	ldr	r0, [r0, #4]
 8004ea8:	b108      	cbz	r0, 8004eae <tcp_seg_free+0xe>
      pbuf_free(seg->p);
 8004eaa:	f7ff fe0a 	bl	8004ac2 <pbuf_free>
#if TCP_DEBUG
      seg->p = NULL;
#endif /* TCP_DEBUG */
    }
    memp_free(MEMP_TCP_SEG, seg);
 8004eae:	4621      	mov	r1, r4
 8004eb0:	2004      	movs	r0, #4
  }
}
 8004eb2:	e8bd 4010 	ldmia.w	sp!, {r4, lr}
    memp_free(MEMP_TCP_SEG, seg);
 8004eb6:	f7ff bd35 	b.w	8004924 <memp_free>
 8004eba:	bd10      	pop	{r4, pc}

08004ebc <tcp_segs_free>:
{
 8004ebc:	b510      	push	{r4, lr}
  while (seg != NULL) {
 8004ebe:	b900      	cbnz	r0, 8004ec2 <tcp_segs_free+0x6>
}
 8004ec0:	bd10      	pop	{r4, pc}
    struct tcp_seg *next = seg->next;
 8004ec2:	6804      	ldr	r4, [r0, #0]
    tcp_seg_free(seg);
 8004ec4:	f7ff ffec 	bl	8004ea0 <tcp_seg_free>
    seg = next;
 8004ec8:	4620      	mov	r0, r4
 8004eca:	e7f8      	b.n	8004ebe <tcp_segs_free+0x2>

08004ecc <tcp_seg_copy>:
 * @param seg the old tcp_seg
 * @return a copy of seg
 */ 
struct tcp_seg *
tcp_seg_copy(struct tcp_seg *seg)
{
 8004ecc:	b538      	push	{r3, r4, r5, lr}
 8004ece:	4604      	mov	r4, r0
  struct tcp_seg *cseg;

  cseg = (struct tcp_seg *)memp_malloc(MEMP_TCP_SEG);
 8004ed0:	2004      	movs	r0, #4
 8004ed2:	f7ff fcfd 	bl	80048d0 <memp_malloc>
  if (cseg == NULL) {
 8004ed6:	4605      	mov	r5, r0
 8004ed8:	b160      	cbz	r0, 8004ef4 <tcp_seg_copy+0x28>
    return NULL;
  }
  SMEMCPY((u8_t *)cseg, (const u8_t *)seg, sizeof(struct tcp_seg)); 
 8004eda:	4620      	mov	r0, r4
 8004edc:	462b      	mov	r3, r5
 8004ede:	f104 0210 	add.w	r2, r4, #16
 8004ee2:	f850 1b04 	ldr.w	r1, [r0], #4
 8004ee6:	f843 1b04 	str.w	r1, [r3], #4
 8004eea:	4290      	cmp	r0, r2
 8004eec:	d1f9      	bne.n	8004ee2 <tcp_seg_copy+0x16>
  pbuf_ref(cseg->p);
 8004eee:	6868      	ldr	r0, [r5, #4]
 8004ef0:	f7ff fec8 	bl	8004c84 <pbuf_ref>
  return cseg;
}
 8004ef4:	4628      	mov	r0, r5
 8004ef6:	bd38      	pop	{r3, r4, r5, pc}

08004ef8 <tcp_pcb_purge>:
 *
 * @param pcb tcp_pcb to purge. The pcb itself is not deallocated!
 */
void
tcp_pcb_purge(struct tcp_pcb *pcb)
{
 8004ef8:	b538      	push	{r3, r4, r5, lr}
  if (pcb->state != CLOSED &&
 8004efa:	7e03      	ldrb	r3, [r0, #24]
 8004efc:	2b01      	cmp	r3, #1
{
 8004efe:	4604      	mov	r4, r0
  if (pcb->state != CLOSED &&
 8004f00:	d919      	bls.n	8004f36 <tcp_pcb_purge+0x3e>
 8004f02:	2b0a      	cmp	r3, #10
 8004f04:	d017      	beq.n	8004f36 <tcp_pcb_purge+0x3e>
      }
    }
#endif /* TCP_LISTEN_BACKLOG */


    if (pcb->refused_data != NULL) {
 8004f06:	6f80      	ldr	r0, [r0, #120]	; 0x78
 8004f08:	b118      	cbz	r0, 8004f12 <tcp_pcb_purge+0x1a>
      LWIP_DEBUGF(TCP_DEBUG, ("tcp_pcb_purge: data left on ->refused_data\n"));
      pbuf_free(pcb->refused_data);
 8004f0a:	f7ff fdda 	bl	8004ac2 <pbuf_free>
      pcb->refused_data = NULL;
 8004f0e:	2300      	movs	r3, #0
 8004f10:	67a3      	str	r3, [r4, #120]	; 0x78
    }
#if TCP_QUEUE_OOSEQ
    if (pcb->ooseq != NULL) {
      LWIP_DEBUGF(TCP_DEBUG, ("tcp_pcb_purge: data left on ->ooseq\n"));
    }
    tcp_segs_free(pcb->ooseq);
 8004f12:	6f60      	ldr	r0, [r4, #116]	; 0x74
 8004f14:	f7ff ffd2 	bl	8004ebc <tcp_segs_free>
    pcb->ooseq = NULL;
 8004f18:	2500      	movs	r5, #0
#endif /* TCP_QUEUE_OOSEQ */

    /* Stop the retransmission timer as it will expect data on unacked
       queue if it fires */
    pcb->rtime = -1;
 8004f1a:	f64f 73ff 	movw	r3, #65535	; 0xffff
 8004f1e:	86a3      	strh	r3, [r4, #52]	; 0x34

    tcp_segs_free(pcb->unsent);
 8004f20:	6ee0      	ldr	r0, [r4, #108]	; 0x6c
    pcb->ooseq = NULL;
 8004f22:	6765      	str	r5, [r4, #116]	; 0x74
    tcp_segs_free(pcb->unsent);
 8004f24:	f7ff ffca 	bl	8004ebc <tcp_segs_free>
    tcp_segs_free(pcb->unacked);
 8004f28:	6f20      	ldr	r0, [r4, #112]	; 0x70
 8004f2a:	f7ff ffc7 	bl	8004ebc <tcp_segs_free>
    pcb->unacked = pcb->unsent = NULL;
 8004f2e:	66e5      	str	r5, [r4, #108]	; 0x6c
 8004f30:	6725      	str	r5, [r4, #112]	; 0x70
#if TCP_OVERSIZE
    pcb->unsent_oversize = 0;
 8004f32:	f8a4 506a 	strh.w	r5, [r4, #106]	; 0x6a
 8004f36:	bd38      	pop	{r3, r4, r5, pc}

08004f38 <tcp_slowtmr>:
{
 8004f38:	e92d 4ff0 	stmdb	sp!, {r4, r5, r6, r7, r8, r9, sl, fp, lr}
  ++tcp_ticks;
 8004f3c:	4dac      	ldr	r5, [pc, #688]	; (80051f0 <tcp_slowtmr+0x2b8>)
  ++tcp_timer_ctr;
 8004f3e:	4fad      	ldr	r7, [pc, #692]	; (80051f4 <tcp_slowtmr+0x2bc>)
  ++tcp_ticks;
 8004f40:	682b      	ldr	r3, [r5, #0]
      tcp_active_pcbs_changed = 0;
 8004f42:	f8df 92c4 	ldr.w	r9, [pc, #708]	; 8005208 <tcp_slowtmr+0x2d0>
  ++tcp_ticks;
 8004f46:	3301      	adds	r3, #1
 8004f48:	602b      	str	r3, [r5, #0]
  ++tcp_timer_ctr;
 8004f4a:	783b      	ldrb	r3, [r7, #0]
{
 8004f4c:	b085      	sub	sp, #20
  ++tcp_timer_ctr;
 8004f4e:	3301      	adds	r3, #1
 8004f50:	703b      	strb	r3, [r7, #0]
 8004f52:	9702      	str	r7, [sp, #8]
  pcb = tcp_active_pcbs;
 8004f54:	4ba8      	ldr	r3, [pc, #672]	; (80051f8 <tcp_slowtmr+0x2c0>)
              (pcb->keep_idle + pcb->keep_cnt_sent * TCP_KEEP_INTVL(pcb))
 8004f56:	f8df b2b4 	ldr.w	fp, [pc, #692]	; 800520c <tcp_slowtmr+0x2d4>
  pcb = tcp_active_pcbs;
 8004f5a:	681c      	ldr	r4, [r3, #0]
  prev = NULL;
 8004f5c:	2600      	movs	r6, #0
 8004f5e:	4698      	mov	r8, r3
  while (pcb != NULL) {
 8004f60:	b93c      	cbnz	r4, 8004f72 <tcp_slowtmr+0x3a>
  pcb = tcp_tw_pcbs;
 8004f62:	4fa6      	ldr	r7, [pc, #664]	; (80051fc <tcp_slowtmr+0x2c4>)
 8004f64:	683e      	ldr	r6, [r7, #0]
  while (pcb != NULL) {
 8004f66:	2e00      	cmp	r6, #0
 8004f68:	f040 8129 	bne.w	80051be <tcp_slowtmr+0x286>
}
 8004f6c:	b005      	add	sp, #20
 8004f6e:	e8bd 8ff0 	ldmia.w	sp!, {r4, r5, r6, r7, r8, r9, sl, fp, pc}
    if (pcb->last_timer == tcp_timer_ctr) {
 8004f72:	9b02      	ldr	r3, [sp, #8]
 8004f74:	f894 2021 	ldrb.w	r2, [r4, #33]	; 0x21
 8004f78:	781b      	ldrb	r3, [r3, #0]
 8004f7a:	429a      	cmp	r2, r3
 8004f7c:	d105      	bne.n	8004f8a <tcp_slowtmr+0x52>
      pcb = pcb->next;
 8004f7e:	f8d4 a00c 	ldr.w	sl, [r4, #12]
 8004f82:	4634      	mov	r4, r6
      continue;
 8004f84:	4626      	mov	r6, r4
 8004f86:	4654      	mov	r4, sl
 8004f88:	e7ea      	b.n	8004f60 <tcp_slowtmr+0x28>
    LWIP_ASSERT("tcp_slowtmr: active pcb->state != CLOSED\n", pcb->state != CLOSED);
 8004f8a:	7e20      	ldrb	r0, [r4, #24]
    pcb->last_timer = tcp_timer_ctr;
 8004f8c:	f884 3021 	strb.w	r3, [r4, #33]	; 0x21
    if (pcb->state == SYN_SENT && pcb->nrtx == TCP_SYNMAXRTX) {
 8004f90:	2802      	cmp	r0, #2
 8004f92:	f894 1046 	ldrb.w	r1, [r4, #70]	; 0x46
 8004f96:	d102      	bne.n	8004f9e <tcp_slowtmr+0x66>
 8004f98:	2906      	cmp	r1, #6
 8004f9a:	f000 80ce 	beq.w	800513a <tcp_slowtmr+0x202>
    else if (pcb->nrtx == TCP_MAXRTX) {
 8004f9e:	290c      	cmp	r1, #12
 8004fa0:	f000 80cb 	beq.w	800513a <tcp_slowtmr+0x202>
      if (pcb->persist_backoff > 0) {
 8004fa4:	f894 7095 	ldrb.w	r7, [r4, #149]	; 0x95
 8004fa8:	2f00      	cmp	r7, #0
 8004faa:	f000 8090 	beq.w	80050ce <tcp_slowtmr+0x196>
        if (pcb->persist_cnt >= tcp_persist_backoff[pcb->persist_backoff-1]) {
 8004fae:	4994      	ldr	r1, [pc, #592]	; (8005200 <tcp_slowtmr+0x2c8>)
        pcb->persist_cnt++;
 8004fb0:	f894 2094 	ldrb.w	r2, [r4, #148]	; 0x94
        if (pcb->persist_cnt >= tcp_persist_backoff[pcb->persist_backoff-1]) {
 8004fb4:	4439      	add	r1, r7
        pcb->persist_cnt++;
 8004fb6:	3201      	adds	r2, #1
        if (pcb->persist_cnt >= tcp_persist_backoff[pcb->persist_backoff-1]) {
 8004fb8:	f811 1c01 	ldrb.w	r1, [r1, #-1]
        pcb->persist_cnt++;
 8004fbc:	b2d2      	uxtb	r2, r2
        if (pcb->persist_cnt >= tcp_persist_backoff[pcb->persist_backoff-1]) {
 8004fbe:	4291      	cmp	r1, r2
        pcb->persist_cnt++;
 8004fc0:	f884 2094 	strb.w	r2, [r4, #148]	; 0x94
        if (pcb->persist_cnt >= tcp_persist_backoff[pcb->persist_backoff-1]) {
 8004fc4:	d975      	bls.n	80050b2 <tcp_slowtmr+0x17a>
    pcb_remove = 0;
 8004fc6:	2700      	movs	r7, #0
    if (pcb->state == FIN_WAIT_2) {
 8004fc8:	7e22      	ldrb	r2, [r4, #24]
 8004fca:	2a06      	cmp	r2, #6
 8004fcc:	d109      	bne.n	8004fe2 <tcp_slowtmr+0xaa>
      if (pcb->flags & TF_RXCLOSED) {
 8004fce:	7fa1      	ldrb	r1, [r4, #30]
 8004fd0:	06cb      	lsls	r3, r1, #27
 8004fd2:	d506      	bpl.n	8004fe2 <tcp_slowtmr+0xaa>
        if ((u32_t)(tcp_ticks - pcb->tmr) >
 8004fd4:	6829      	ldr	r1, [r5, #0]
 8004fd6:	6a60      	ldr	r0, [r4, #36]	; 0x24
 8004fd8:	1a09      	subs	r1, r1, r0
 8004fda:	2928      	cmp	r1, #40	; 0x28
          ++pcb_remove;
 8004fdc:	bf84      	itt	hi
 8004fde:	1c7b      	addhi	r3, r7, #1
 8004fe0:	b2df      	uxtbhi	r7, r3
    if(ip_get_option(pcb, SOF_KEEPALIVE) &&
 8004fe2:	f894 a008 	ldrb.w	sl, [r4, #8]
 8004fe6:	f01a 0a08 	ands.w	sl, sl, #8
 8004fea:	d018      	beq.n	800501e <tcp_slowtmr+0xe6>
 8004fec:	2a04      	cmp	r2, #4
 8004fee:	d002      	beq.n	8004ff6 <tcp_slowtmr+0xbe>
       ((pcb->state == ESTABLISHED) ||
 8004ff0:	2a07      	cmp	r2, #7
 8004ff2:	f040 80b4 	bne.w	800515e <tcp_slowtmr+0x226>
      if((u32_t)(tcp_ticks - pcb->tmr) >
 8004ff6:	6828      	ldr	r0, [r5, #0]
 8004ff8:	6a62      	ldr	r2, [r4, #36]	; 0x24
         (pcb->keep_idle + TCP_KEEP_DUR(pcb)) / TCP_SLOW_INTERVAL)
 8004ffa:	f8d4 3090 	ldr.w	r3, [r4, #144]	; 0x90
      if((u32_t)(tcp_ticks - pcb->tmr) >
 8004ffe:	1a80      	subs	r0, r0, r2
         (pcb->keep_idle + TCP_KEEP_DUR(pcb)) / TCP_SLOW_INTERVAL)
 8005000:	f503 2124 	add.w	r1, r3, #671744	; 0xa4000
 8005004:	f601 41b8 	addw	r1, r1, #3256	; 0xcb8
 8005008:	f44f 7efa 	mov.w	lr, #500	; 0x1f4
 800500c:	fbb1 f1fe 	udiv	r1, r1, lr
      if((u32_t)(tcp_ticks - pcb->tmr) >
 8005010:	4288      	cmp	r0, r1
 8005012:	f240 8094 	bls.w	800513e <tcp_slowtmr+0x206>
        ++pcb_remove;
 8005016:	1c7b      	adds	r3, r7, #1
 8005018:	b2df      	uxtb	r7, r3
        ++pcb_reset;
 800501a:	f04f 0a01 	mov.w	sl, #1
    if (pcb->ooseq != NULL &&
 800501e:	6f60      	ldr	r0, [r4, #116]	; 0x74
 8005020:	b168      	cbz	r0, 800503e <tcp_slowtmr+0x106>
        (u32_t)tcp_ticks - pcb->tmr >= pcb->rto * TCP_OOSEQ_TIMEOUT) {
 8005022:	682a      	ldr	r2, [r5, #0]
 8005024:	6a61      	ldr	r1, [r4, #36]	; 0x24
 8005026:	1a51      	subs	r1, r2, r1
 8005028:	f9b4 2044 	ldrsh.w	r2, [r4, #68]	; 0x44
 800502c:	eb02 0242 	add.w	r2, r2, r2, lsl #1
    if (pcb->ooseq != NULL &&
 8005030:	ebb1 0f42 	cmp.w	r1, r2, lsl #1
 8005034:	d303      	bcc.n	800503e <tcp_slowtmr+0x106>
      tcp_segs_free(pcb->ooseq);
 8005036:	f7ff ff41 	bl	8004ebc <tcp_segs_free>
      pcb->ooseq = NULL;
 800503a:	2200      	movs	r2, #0
 800503c:	6762      	str	r2, [r4, #116]	; 0x74
    if (pcb->state == SYN_RCVD) {
 800503e:	7e22      	ldrb	r2, [r4, #24]
 8005040:	2a03      	cmp	r2, #3
 8005042:	f040 808f 	bne.w	8005164 <tcp_slowtmr+0x22c>
      if ((u32_t)(tcp_ticks - pcb->tmr) >
 8005046:	682a      	ldr	r2, [r5, #0]
 8005048:	6a61      	ldr	r1, [r4, #36]	; 0x24
 800504a:	1a52      	subs	r2, r2, r1
 800504c:	2a28      	cmp	r2, #40	; 0x28
      if ((u32_t)(tcp_ticks - pcb->tmr) > 2 * TCP_MSL / TCP_SLOW_INTERVAL) {
 800504e:	d802      	bhi.n	8005056 <tcp_slowtmr+0x11e>
    if (pcb_remove) {
 8005050:	2f00      	cmp	r7, #0
 8005052:	f000 8092 	beq.w	800517a <tcp_slowtmr+0x242>
      tcp_pcb_purge(pcb);
 8005056:	4620      	mov	r0, r4
 8005058:	f7ff ff4e 	bl	8004ef8 <tcp_pcb_purge>
 800505c:	68e3      	ldr	r3, [r4, #12]
      if (prev != NULL) {
 800505e:	2e00      	cmp	r6, #0
 8005060:	f000 8088 	beq.w	8005174 <tcp_slowtmr+0x23c>
        prev->next = pcb->next;
 8005064:	60f3      	str	r3, [r6, #12]
      if (pcb_reset) {
 8005066:	f1ba 0f00 	cmp.w	sl, #0
 800506a:	d009      	beq.n	8005080 <tcp_slowtmr+0x148>
        tcp_rst(pcb->snd_nxt, pcb->rcv_nxt, &pcb->local_ip, &pcb->remote_ip,
 800506c:	8ba3      	ldrh	r3, [r4, #28]
 800506e:	9301      	str	r3, [sp, #4]
 8005070:	8b63      	ldrh	r3, [r4, #26]
 8005072:	9300      	str	r3, [sp, #0]
 8005074:	4622      	mov	r2, r4
 8005076:	1d23      	adds	r3, r4, #4
 8005078:	6aa1      	ldr	r1, [r4, #40]	; 0x28
 800507a:	6d20      	ldr	r0, [r4, #80]	; 0x50
 800507c:	f001 fe7a 	bl	8006d74 <tcp_rst>
      err_arg = pcb->callback_arg;
 8005080:	6922      	ldr	r2, [r4, #16]
      err_fn = pcb->errf;
 8005082:	f8d4 708c 	ldr.w	r7, [r4, #140]	; 0x8c
      err_arg = pcb->callback_arg;
 8005086:	9203      	str	r2, [sp, #12]
      memp_free(MEMP_TCP_PCB, pcb2);
 8005088:	4621      	mov	r1, r4
 800508a:	2002      	movs	r0, #2
      pcb = pcb->next;
 800508c:	f8d4 a00c 	ldr.w	sl, [r4, #12]
      memp_free(MEMP_TCP_PCB, pcb2);
 8005090:	f7ff fc48 	bl	8004924 <memp_free>
      tcp_active_pcbs_changed = 0;
 8005094:	2100      	movs	r1, #0
 8005096:	f889 1000 	strb.w	r1, [r9]
      TCP_EVENT_ERR(err_fn, err_arg, ERR_ABRT);
 800509a:	b127      	cbz	r7, 80050a6 <tcp_slowtmr+0x16e>
 800509c:	9a03      	ldr	r2, [sp, #12]
 800509e:	f06f 0109 	mvn.w	r1, #9
 80050a2:	4610      	mov	r0, r2
 80050a4:	47b8      	blx	r7
      if (tcp_active_pcbs_changed) {
 80050a6:	f899 3000 	ldrb.w	r3, [r9]
 80050aa:	2b00      	cmp	r3, #0
 80050ac:	f43f af69 	beq.w	8004f82 <tcp_slowtmr+0x4a>
 80050b0:	e750      	b.n	8004f54 <tcp_slowtmr+0x1c>
          if (pcb->persist_backoff < sizeof(tcp_persist_backoff)) {
 80050b2:	2f06      	cmp	r7, #6
          pcb->persist_cnt = 0;
 80050b4:	f04f 0200 	mov.w	r2, #0
            pcb->persist_backoff++;
 80050b8:	bf98      	it	ls
 80050ba:	1c7b      	addls	r3, r7, #1
          pcb->persist_cnt = 0;
 80050bc:	f884 2094 	strb.w	r2, [r4, #148]	; 0x94
            pcb->persist_backoff++;
 80050c0:	bf98      	it	ls
 80050c2:	f884 3095 	strbls.w	r3, [r4, #149]	; 0x95
          tcp_zero_window_probe(pcb);
 80050c6:	4620      	mov	r0, r4
 80050c8:	f001 ff44 	bl	8006f54 <tcp_zero_window_probe>
 80050cc:	e77b      	b.n	8004fc6 <tcp_slowtmr+0x8e>
        if(pcb->rtime >= 0) {
 80050ce:	f9b4 2034 	ldrsh.w	r2, [r4, #52]	; 0x34
 80050d2:	2a00      	cmp	r2, #0
          ++pcb->rtime;
 80050d4:	bfa4      	itt	ge
 80050d6:	3201      	addge	r2, #1
 80050d8:	86a2      	strhge	r2, [r4, #52]	; 0x34
        if (pcb->unacked != NULL && pcb->rtime >= pcb->rto) {
 80050da:	6f22      	ldr	r2, [r4, #112]	; 0x70
 80050dc:	2a00      	cmp	r2, #0
 80050de:	f43f af72 	beq.w	8004fc6 <tcp_slowtmr+0x8e>
 80050e2:	f9b4 e034 	ldrsh.w	lr, [r4, #52]	; 0x34
 80050e6:	f9b4 2044 	ldrsh.w	r2, [r4, #68]	; 0x44
 80050ea:	4596      	cmp	lr, r2
 80050ec:	f6ff af6b 	blt.w	8004fc6 <tcp_slowtmr+0x8e>
          if (pcb->state != SYN_SENT) {
 80050f0:	2802      	cmp	r0, #2
 80050f2:	d00a      	beq.n	800510a <tcp_slowtmr+0x1d2>
            pcb->rto = ((pcb->sa >> 3) + pcb->sv) << tcp_backoff[pcb->nrtx];
 80050f4:	f9b4 0040 	ldrsh.w	r0, [r4, #64]	; 0x40
 80050f8:	f9b4 2042 	ldrsh.w	r2, [r4, #66]	; 0x42
 80050fc:	eb02 02e0 	add.w	r2, r2, r0, asr #3
 8005100:	4840      	ldr	r0, [pc, #256]	; (8005204 <tcp_slowtmr+0x2cc>)
 8005102:	5c41      	ldrb	r1, [r0, r1]
 8005104:	408a      	lsls	r2, r1
 8005106:	f8a4 2044 	strh.w	r2, [r4, #68]	; 0x44
          pcb->rtime = 0;
 800510a:	2200      	movs	r2, #0
          eff_wnd = LWIP_MIN(pcb->cwnd, pcb->snd_wnd);
 800510c:	f8b4 104c 	ldrh.w	r1, [r4, #76]	; 0x4c
          pcb->rtime = 0;
 8005110:	86a2      	strh	r2, [r4, #52]	; 0x34
          eff_wnd = LWIP_MIN(pcb->cwnd, pcb->snd_wnd);
 8005112:	f8b4 2060 	ldrh.w	r2, [r4, #96]	; 0x60
          pcb->ssthresh = eff_wnd >> 1;
 8005116:	428a      	cmp	r2, r1
 8005118:	bf28      	it	cs
 800511a:	460a      	movcs	r2, r1
          if (pcb->ssthresh < (pcb->mss << 1)) {
 800511c:	8ee1      	ldrh	r1, [r4, #54]	; 0x36
          pcb->cwnd = pcb->mss;
 800511e:	f8a4 104c 	strh.w	r1, [r4, #76]	; 0x4c
          if (pcb->ssthresh < (pcb->mss << 1)) {
 8005122:	0048      	lsls	r0, r1, #1
          pcb->ssthresh = eff_wnd >> 1;
 8005124:	0852      	lsrs	r2, r2, #1
          if (pcb->ssthresh < (pcb->mss << 1)) {
 8005126:	4282      	cmp	r2, r0
          pcb->ssthresh = eff_wnd >> 1;
 8005128:	f8a4 204e 	strh.w	r2, [r4, #78]	; 0x4e
            pcb->ssthresh = (pcb->mss << 1);
 800512c:	bfb8      	it	lt
 800512e:	f8a4 004e 	strhlt.w	r0, [r4, #78]	; 0x4e
          tcp_rexmit_rto(pcb);
 8005132:	4620      	mov	r0, r4
 8005134:	f001 fe74 	bl	8006e20 <tcp_rexmit_rto>
 8005138:	e746      	b.n	8004fc8 <tcp_slowtmr+0x90>
      ++pcb_remove;
 800513a:	2701      	movs	r7, #1
 800513c:	e744      	b.n	8004fc8 <tcp_slowtmr+0x90>
              (pcb->keep_idle + pcb->keep_cnt_sent * TCP_KEEP_INTVL(pcb))
 800513e:	f894 2096 	ldrb.w	r2, [r4, #150]	; 0x96
 8005142:	fb0b 3202 	mla	r2, fp, r2, r3
              / TCP_SLOW_INTERVAL)
 8005146:	fbb2 f2fe 	udiv	r2, r2, lr
      else if((u32_t)(tcp_ticks - pcb->tmr) > 
 800514a:	4290      	cmp	r0, r2
 800514c:	d907      	bls.n	800515e <tcp_slowtmr+0x226>
        tcp_keepalive(pcb);
 800514e:	4620      	mov	r0, r4
 8005150:	f001 fece 	bl	8006ef0 <tcp_keepalive>
        pcb->keep_cnt_sent++;
 8005154:	f894 2096 	ldrb.w	r2, [r4, #150]	; 0x96
 8005158:	3201      	adds	r2, #1
 800515a:	f884 2096 	strb.w	r2, [r4, #150]	; 0x96
    pcb_reset = 0;
 800515e:	f04f 0a00 	mov.w	sl, #0
 8005162:	e75c      	b.n	800501e <tcp_slowtmr+0xe6>
    if (pcb->state == LAST_ACK) {
 8005164:	2a09      	cmp	r2, #9
 8005166:	f47f af73 	bne.w	8005050 <tcp_slowtmr+0x118>
      if ((u32_t)(tcp_ticks - pcb->tmr) > 2 * TCP_MSL / TCP_SLOW_INTERVAL) {
 800516a:	682a      	ldr	r2, [r5, #0]
 800516c:	6a61      	ldr	r1, [r4, #36]	; 0x24
 800516e:	1a52      	subs	r2, r2, r1
 8005170:	2af0      	cmp	r2, #240	; 0xf0
 8005172:	e76c      	b.n	800504e <tcp_slowtmr+0x116>
        tcp_active_pcbs = pcb->next;
 8005174:	f8c8 3000 	str.w	r3, [r8]
 8005178:	e775      	b.n	8005066 <tcp_slowtmr+0x12e>
      ++prev->polltmr;
 800517a:	7fe2      	ldrb	r2, [r4, #31]
      if (prev->polltmr >= prev->pollinterval) {
 800517c:	f894 1020 	ldrb.w	r1, [r4, #32]
      pcb = pcb->next;
 8005180:	f8d4 a00c 	ldr.w	sl, [r4, #12]
      ++prev->polltmr;
 8005184:	3201      	adds	r2, #1
 8005186:	b2d2      	uxtb	r2, r2
      if (prev->polltmr >= prev->pollinterval) {
 8005188:	4291      	cmp	r1, r2
      ++prev->polltmr;
 800518a:	77e2      	strb	r2, [r4, #31]
      if (prev->polltmr >= prev->pollinterval) {
 800518c:	f63f aefa 	bhi.w	8004f84 <tcp_slowtmr+0x4c>
        TCP_EVENT_POLL(prev, err);
 8005190:	f8d4 2088 	ldr.w	r2, [r4, #136]	; 0x88
        prev->polltmr = 0;
 8005194:	77e7      	strb	r7, [r4, #31]
        tcp_active_pcbs_changed = 0;
 8005196:	f889 7000 	strb.w	r7, [r9]
        TCP_EVENT_POLL(prev, err);
 800519a:	b172      	cbz	r2, 80051ba <tcp_slowtmr+0x282>
 800519c:	4621      	mov	r1, r4
 800519e:	6920      	ldr	r0, [r4, #16]
 80051a0:	4790      	blx	r2
        if (tcp_active_pcbs_changed) {
 80051a2:	f899 3000 	ldrb.w	r3, [r9]
 80051a6:	2b00      	cmp	r3, #0
 80051a8:	f47f aed4 	bne.w	8004f54 <tcp_slowtmr+0x1c>
        if (err == ERR_OK) {
 80051ac:	2800      	cmp	r0, #0
 80051ae:	f47f aee9 	bne.w	8004f84 <tcp_slowtmr+0x4c>
          tcp_output(prev);
 80051b2:	4620      	mov	r0, r4
 80051b4:	f001 fc98 	bl	8006ae8 <tcp_output>
 80051b8:	e6e4      	b.n	8004f84 <tcp_slowtmr+0x4c>
        TCP_EVENT_POLL(prev, err);
 80051ba:	4638      	mov	r0, r7
 80051bc:	e7f1      	b.n	80051a2 <tcp_slowtmr+0x26a>
    if ((u32_t)(tcp_ticks - pcb->tmr) > 2 * TCP_MSL / TCP_SLOW_INTERVAL) {
 80051be:	682b      	ldr	r3, [r5, #0]
 80051c0:	6a72      	ldr	r2, [r6, #36]	; 0x24
 80051c2:	1a9b      	subs	r3, r3, r2
 80051c4:	2bf0      	cmp	r3, #240	; 0xf0
 80051c6:	d80b      	bhi.n	80051e0 <tcp_slowtmr+0x2a8>
      pcb = pcb->next;
 80051c8:	4634      	mov	r4, r6
 80051ca:	68f6      	ldr	r6, [r6, #12]
 80051cc:	e6cb      	b.n	8004f66 <tcp_slowtmr+0x2e>
        prev->next = pcb->next;
 80051ce:	60e3      	str	r3, [r4, #12]
      pcb = pcb->next;
 80051d0:	f8d6 800c 	ldr.w	r8, [r6, #12]
      memp_free(MEMP_TCP_PCB, pcb2);
 80051d4:	4631      	mov	r1, r6
 80051d6:	2002      	movs	r0, #2
 80051d8:	f7ff fba4 	bl	8004924 <memp_free>
      pcb = pcb->next;
 80051dc:	4646      	mov	r6, r8
 80051de:	e6c2      	b.n	8004f66 <tcp_slowtmr+0x2e>
      tcp_pcb_purge(pcb);
 80051e0:	4630      	mov	r0, r6
 80051e2:	f7ff fe89 	bl	8004ef8 <tcp_pcb_purge>
 80051e6:	68f3      	ldr	r3, [r6, #12]
      if (prev != NULL) {
 80051e8:	2c00      	cmp	r4, #0
 80051ea:	d1f0      	bne.n	80051ce <tcp_slowtmr+0x296>
        tcp_tw_pcbs = pcb->next;
 80051ec:	603b      	str	r3, [r7, #0]
 80051ee:	e7ef      	b.n	80051d0 <tcp_slowtmr+0x298>
 80051f0:	2000abe8 	.word	0x2000abe8
 80051f4:	20007195 	.word	0x20007195
 80051f8:	2000abe4 	.word	0x2000abe4
 80051fc:	2000abf8 	.word	0x2000abf8
 8005200:	08007da1 	.word	0x08007da1
 8005204:	08007d94 	.word	0x08007d94
 8005208:	2000abe0 	.word	0x2000abe0
 800520c:	000124f8 	.word	0x000124f8

08005210 <tcp_pcb_remove>:
 * @param pcb tcp_pcb to purge. The pcb itself is NOT deallocated!
 */
void
tcp_pcb_remove(struct tcp_pcb **pcblist, struct tcp_pcb *pcb)
{
  TCP_RMV(pcblist, pcb);
 8005210:	6803      	ldr	r3, [r0, #0]
 8005212:	428b      	cmp	r3, r1
{
 8005214:	b510      	push	{r4, lr}
 8005216:	460c      	mov	r4, r1
  TCP_RMV(pcblist, pcb);
 8005218:	d117      	bne.n	800524a <tcp_pcb_remove+0x3a>
 800521a:	68cb      	ldr	r3, [r1, #12]
 800521c:	6003      	str	r3, [r0, #0]
 800521e:	2300      	movs	r3, #0
 8005220:	60e3      	str	r3, [r4, #12]

  tcp_pcb_purge(pcb);
 8005222:	4620      	mov	r0, r4
 8005224:	f7ff fe68 	bl	8004ef8 <tcp_pcb_purge>
  
  /* if there is an outstanding delayed ACKs, send it */
  if (pcb->state != TIME_WAIT &&
 8005228:	7e23      	ldrb	r3, [r4, #24]
 800522a:	2b0a      	cmp	r3, #10
 800522c:	d00a      	beq.n	8005244 <tcp_pcb_remove+0x34>
 800522e:	2b01      	cmp	r3, #1
 8005230:	d008      	beq.n	8005244 <tcp_pcb_remove+0x34>
     pcb->state != LISTEN &&
     pcb->flags & TF_ACK_DELAY) {
 8005232:	7fa3      	ldrb	r3, [r4, #30]
     pcb->state != LISTEN &&
 8005234:	07da      	lsls	r2, r3, #31
 8005236:	d505      	bpl.n	8005244 <tcp_pcb_remove+0x34>
    pcb->flags |= TF_ACK_NOW;
 8005238:	f043 0302 	orr.w	r3, r3, #2
 800523c:	77a3      	strb	r3, [r4, #30]
    tcp_output(pcb);
 800523e:	4620      	mov	r0, r4
 8005240:	f001 fc52 	bl	8006ae8 <tcp_output>
#if TCP_QUEUE_OOSEQ
    LWIP_ASSERT("ooseq segments leaking", pcb->ooseq == NULL);
#endif /* TCP_QUEUE_OOSEQ */
  }

  pcb->state = CLOSED;
 8005244:	2300      	movs	r3, #0
 8005246:	7623      	strb	r3, [r4, #24]
 8005248:	bd10      	pop	{r4, pc}
  TCP_RMV(pcblist, pcb);
 800524a:	4a09      	ldr	r2, [pc, #36]	; (8005270 <tcp_pcb_remove+0x60>)
 800524c:	2100      	movs	r1, #0
 800524e:	6013      	str	r3, [r2, #0]
 8005250:	b91b      	cbnz	r3, 800525a <tcp_pcb_remove+0x4a>
 8005252:	2900      	cmp	r1, #0
 8005254:	d0e3      	beq.n	800521e <tcp_pcb_remove+0xe>
 8005256:	6013      	str	r3, [r2, #0]
 8005258:	e7e1      	b.n	800521e <tcp_pcb_remove+0xe>
 800525a:	68d8      	ldr	r0, [r3, #12]
 800525c:	4284      	cmp	r4, r0
 800525e:	d104      	bne.n	800526a <tcp_pcb_remove+0x5a>
 8005260:	b101      	cbz	r1, 8005264 <tcp_pcb_remove+0x54>
 8005262:	6013      	str	r3, [r2, #0]
 8005264:	68e2      	ldr	r2, [r4, #12]
 8005266:	60da      	str	r2, [r3, #12]
 8005268:	e7d9      	b.n	800521e <tcp_pcb_remove+0xe>
 800526a:	2101      	movs	r1, #1
 800526c:	4603      	mov	r3, r0
 800526e:	e7ef      	b.n	8005250 <tcp_pcb_remove+0x40>
 8005270:	2000abf0 	.word	0x2000abf0

08005274 <tcp_close_shutdown>:
{
 8005274:	b537      	push	{r0, r1, r2, r4, r5, lr}
 8005276:	7e03      	ldrb	r3, [r0, #24]
 8005278:	4604      	mov	r4, r0
  if (rst_on_unacked_data && ((pcb->state == ESTABLISHED) || (pcb->state == CLOSE_WAIT))) {
 800527a:	2900      	cmp	r1, #0
 800527c:	d041      	beq.n	8005302 <tcp_close_shutdown+0x8e>
 800527e:	2b04      	cmp	r3, #4
 8005280:	d001      	beq.n	8005286 <tcp_close_shutdown+0x12>
 8005282:	2b07      	cmp	r3, #7
 8005284:	d13d      	bne.n	8005302 <tcp_close_shutdown+0x8e>
    if ((pcb->refused_data != NULL) || (pcb->rcv_wnd != TCP_WND)) {
 8005286:	6fa2      	ldr	r2, [r4, #120]	; 0x78
 8005288:	b922      	cbnz	r2, 8005294 <tcp_close_shutdown+0x20>
 800528a:	8da1      	ldrh	r1, [r4, #44]	; 0x2c
 800528c:	f241 62d0 	movw	r2, #5840	; 0x16d0
 8005290:	4291      	cmp	r1, r2
 8005292:	d036      	beq.n	8005302 <tcp_close_shutdown+0x8e>
      tcp_rst(pcb->snd_nxt, pcb->rcv_nxt, &pcb->local_ip, &pcb->remote_ip,
 8005294:	8ba3      	ldrh	r3, [r4, #28]
 8005296:	9301      	str	r3, [sp, #4]
 8005298:	8b63      	ldrh	r3, [r4, #26]
 800529a:	9300      	str	r3, [sp, #0]
 800529c:	4622      	mov	r2, r4
 800529e:	1d23      	adds	r3, r4, #4
 80052a0:	6aa1      	ldr	r1, [r4, #40]	; 0x28
 80052a2:	6d20      	ldr	r0, [r4, #80]	; 0x50
 80052a4:	f001 fd66 	bl	8006d74 <tcp_rst>
      tcp_pcb_purge(pcb);
 80052a8:	4620      	mov	r0, r4
 80052aa:	f7ff fe25 	bl	8004ef8 <tcp_pcb_purge>
      TCP_RMV_ACTIVE(pcb);
 80052ae:	4a40      	ldr	r2, [pc, #256]	; (80053b0 <tcp_close_shutdown+0x13c>)
 80052b0:	6813      	ldr	r3, [r2, #0]
 80052b2:	429c      	cmp	r4, r3
 80052b4:	d102      	bne.n	80052bc <tcp_close_shutdown+0x48>
 80052b6:	68e3      	ldr	r3, [r4, #12]
 80052b8:	6013      	str	r3, [r2, #0]
 80052ba:	e00c      	b.n	80052d6 <tcp_close_shutdown+0x62>
 80052bc:	4a3d      	ldr	r2, [pc, #244]	; (80053b4 <tcp_close_shutdown+0x140>)
 80052be:	2100      	movs	r1, #0
 80052c0:	6013      	str	r3, [r2, #0]
 80052c2:	b90b      	cbnz	r3, 80052c8 <tcp_close_shutdown+0x54>
 80052c4:	b139      	cbz	r1, 80052d6 <tcp_close_shutdown+0x62>
 80052c6:	e7f7      	b.n	80052b8 <tcp_close_shutdown+0x44>
 80052c8:	68d8      	ldr	r0, [r3, #12]
 80052ca:	4284      	cmp	r4, r0
 80052cc:	d116      	bne.n	80052fc <tcp_close_shutdown+0x88>
 80052ce:	b101      	cbz	r1, 80052d2 <tcp_close_shutdown+0x5e>
 80052d0:	6013      	str	r3, [r2, #0]
 80052d2:	68e2      	ldr	r2, [r4, #12]
 80052d4:	60da      	str	r2, [r3, #12]
 80052d6:	4b38      	ldr	r3, [pc, #224]	; (80053b8 <tcp_close_shutdown+0x144>)
 80052d8:	2201      	movs	r2, #1
 80052da:	701a      	strb	r2, [r3, #0]
      if (pcb->state == ESTABLISHED) {
 80052dc:	7e23      	ldrb	r3, [r4, #24]
      TCP_RMV_ACTIVE(pcb);
 80052de:	2500      	movs	r5, #0
      if (pcb->state == ESTABLISHED) {
 80052e0:	2b04      	cmp	r3, #4
      TCP_RMV_ACTIVE(pcb);
 80052e2:	60e5      	str	r5, [r4, #12]
      if (pcb->state == ESTABLISHED) {
 80052e4:	d13a      	bne.n	800535c <tcp_close_shutdown+0xe8>
        pcb->state = TIME_WAIT;
 80052e6:	230a      	movs	r3, #10
 80052e8:	7623      	strb	r3, [r4, #24]
        TCP_REG(&tcp_tw_pcbs, pcb);
 80052ea:	4b34      	ldr	r3, [pc, #208]	; (80053bc <tcp_close_shutdown+0x148>)
 80052ec:	681a      	ldr	r2, [r3, #0]
 80052ee:	60e2      	str	r2, [r4, #12]
 80052f0:	601c      	str	r4, [r3, #0]
 80052f2:	f001 feb9 	bl	8007068 <tcp_timer_needed>
    tcp_output(pcb);
 80052f6:	2000      	movs	r0, #0
}
 80052f8:	b003      	add	sp, #12
 80052fa:	bd30      	pop	{r4, r5, pc}
 80052fc:	2101      	movs	r1, #1
 80052fe:	4603      	mov	r3, r0
 8005300:	e7df      	b.n	80052c2 <tcp_close_shutdown+0x4e>
  switch (pcb->state) {
 8005302:	2b07      	cmp	r3, #7
 8005304:	d8f7      	bhi.n	80052f6 <tcp_close_shutdown+0x82>
 8005306:	a201      	add	r2, pc, #4	; (adr r2, 800530c <tcp_close_shutdown+0x98>)
 8005308:	f852 f023 	ldr.w	pc, [r2, r3, lsl #2]
 800530c:	0800532d 	.word	0x0800532d
 8005310:	08005369 	.word	0x08005369
 8005314:	0800537b 	.word	0x0800537b
 8005318:	0800538b 	.word	0x0800538b
 800531c:	0800538b 	.word	0x0800538b
 8005320:	080052f7 	.word	0x080052f7
 8005324:	080052f7 	.word	0x080052f7
 8005328:	080053a1 	.word	0x080053a1
    if (pcb->local_port != 0) {
 800532c:	8b63      	ldrh	r3, [r4, #26]
 800532e:	b1ab      	cbz	r3, 800535c <tcp_close_shutdown+0xe8>
      TCP_RMV(&tcp_bound_pcbs, pcb);
 8005330:	4a23      	ldr	r2, [pc, #140]	; (80053c0 <tcp_close_shutdown+0x14c>)
 8005332:	6813      	ldr	r3, [r2, #0]
 8005334:	429c      	cmp	r4, r3
 8005336:	d102      	bne.n	800533e <tcp_close_shutdown+0xca>
 8005338:	68e3      	ldr	r3, [r4, #12]
 800533a:	6013      	str	r3, [r2, #0]
 800533c:	e00c      	b.n	8005358 <tcp_close_shutdown+0xe4>
 800533e:	4a1d      	ldr	r2, [pc, #116]	; (80053b4 <tcp_close_shutdown+0x140>)
 8005340:	2100      	movs	r1, #0
 8005342:	6013      	str	r3, [r2, #0]
 8005344:	b90b      	cbnz	r3, 800534a <tcp_close_shutdown+0xd6>
 8005346:	b139      	cbz	r1, 8005358 <tcp_close_shutdown+0xe4>
 8005348:	e7f7      	b.n	800533a <tcp_close_shutdown+0xc6>
 800534a:	68d8      	ldr	r0, [r3, #12]
 800534c:	4284      	cmp	r4, r0
 800534e:	d108      	bne.n	8005362 <tcp_close_shutdown+0xee>
 8005350:	b101      	cbz	r1, 8005354 <tcp_close_shutdown+0xe0>
 8005352:	6013      	str	r3, [r2, #0]
 8005354:	68e2      	ldr	r2, [r4, #12]
 8005356:	60da      	str	r2, [r3, #12]
 8005358:	2300      	movs	r3, #0
 800535a:	60e3      	str	r3, [r4, #12]
    memp_free(MEMP_TCP_PCB, pcb);
 800535c:	4621      	mov	r1, r4
 800535e:	2002      	movs	r0, #2
 8005360:	e008      	b.n	8005374 <tcp_close_shutdown+0x100>
 8005362:	2101      	movs	r1, #1
 8005364:	4603      	mov	r3, r0
 8005366:	e7ed      	b.n	8005344 <tcp_close_shutdown+0xd0>
    tcp_pcb_remove(&tcp_listen_pcbs.pcbs, pcb);
 8005368:	4621      	mov	r1, r4
 800536a:	4816      	ldr	r0, [pc, #88]	; (80053c4 <tcp_close_shutdown+0x150>)
 800536c:	f7ff ff50 	bl	8005210 <tcp_pcb_remove>
    memp_free(MEMP_TCP_PCB_LISTEN, pcb);
 8005370:	4621      	mov	r1, r4
 8005372:	2003      	movs	r0, #3
    memp_free(MEMP_TCP_PCB, pcb);
 8005374:	f7ff fad6 	bl	8004924 <memp_free>
 8005378:	e7bd      	b.n	80052f6 <tcp_close_shutdown+0x82>
    TCP_PCB_REMOVE_ACTIVE(pcb);
 800537a:	4621      	mov	r1, r4
 800537c:	480c      	ldr	r0, [pc, #48]	; (80053b0 <tcp_close_shutdown+0x13c>)
 800537e:	f7ff ff47 	bl	8005210 <tcp_pcb_remove>
 8005382:	4b0d      	ldr	r3, [pc, #52]	; (80053b8 <tcp_close_shutdown+0x144>)
 8005384:	2201      	movs	r2, #1
 8005386:	701a      	strb	r2, [r3, #0]
 8005388:	e7e8      	b.n	800535c <tcp_close_shutdown+0xe8>
    err = tcp_send_fin(pcb);
 800538a:	4620      	mov	r0, r4
 800538c:	f001 fb5c 	bl	8006a48 <tcp_send_fin>
    if (err == ERR_OK) {
 8005390:	2800      	cmp	r0, #0
 8005392:	d1b1      	bne.n	80052f8 <tcp_close_shutdown+0x84>
      pcb->state = FIN_WAIT_1;
 8005394:	2305      	movs	r3, #5
      pcb->state = LAST_ACK;
 8005396:	7623      	strb	r3, [r4, #24]
    tcp_output(pcb);
 8005398:	4620      	mov	r0, r4
 800539a:	f001 fba5 	bl	8006ae8 <tcp_output>
 800539e:	e7aa      	b.n	80052f6 <tcp_close_shutdown+0x82>
    err = tcp_send_fin(pcb);
 80053a0:	4620      	mov	r0, r4
 80053a2:	f001 fb51 	bl	8006a48 <tcp_send_fin>
    if (err == ERR_OK) {
 80053a6:	2800      	cmp	r0, #0
 80053a8:	d1a6      	bne.n	80052f8 <tcp_close_shutdown+0x84>
      pcb->state = LAST_ACK;
 80053aa:	2309      	movs	r3, #9
 80053ac:	e7f3      	b.n	8005396 <tcp_close_shutdown+0x122>
 80053ae:	bf00      	nop
 80053b0:	2000abe4 	.word	0x2000abe4
 80053b4:	2000abf0 	.word	0x2000abf0
 80053b8:	2000abe0 	.word	0x2000abe0
 80053bc:	2000abf8 	.word	0x2000abf8
 80053c0:	2000abf4 	.word	0x2000abf4
 80053c4:	2000abec 	.word	0x2000abec

080053c8 <tcp_close>:
  if (pcb->state != LISTEN) {
 80053c8:	7e03      	ldrb	r3, [r0, #24]
 80053ca:	2b01      	cmp	r3, #1
    pcb->flags |= TF_RXCLOSED;
 80053cc:	bf1e      	ittt	ne
 80053ce:	7f83      	ldrbne	r3, [r0, #30]
 80053d0:	f043 0310 	orrne.w	r3, r3, #16
 80053d4:	7783      	strbne	r3, [r0, #30]
  return tcp_close_shutdown(pcb, 1);
 80053d6:	2101      	movs	r1, #1
 80053d8:	f7ff bf4c 	b.w	8005274 <tcp_close_shutdown>

080053dc <tcp_recv_null>:
{
 80053dc:	b510      	push	{r4, lr}
 80053de:	4608      	mov	r0, r1
  if (p != NULL) {
 80053e0:	4614      	mov	r4, r2
 80053e2:	b13a      	cbz	r2, 80053f4 <tcp_recv_null+0x18>
    tcp_recved(pcb, p->tot_len);
 80053e4:	8911      	ldrh	r1, [r2, #8]
 80053e6:	f7ff fd40 	bl	8004e6a <tcp_recved>
    pbuf_free(p);
 80053ea:	4620      	mov	r0, r4
 80053ec:	f7ff fb69 	bl	8004ac2 <pbuf_free>
}
 80053f0:	2000      	movs	r0, #0
 80053f2:	bd10      	pop	{r4, pc}
  } else if (err == ERR_OK) {
 80053f4:	2b00      	cmp	r3, #0
 80053f6:	d1fb      	bne.n	80053f0 <tcp_recv_null+0x14>
}
 80053f8:	e8bd 4010 	ldmia.w	sp!, {r4, lr}
    return tcp_close(pcb);
 80053fc:	f7ff bfe4 	b.w	80053c8 <tcp_close>

08005400 <tcp_process_refused_data>:
{
 8005400:	b5f8      	push	{r3, r4, r5, r6, r7, lr}
  u8_t refused_flags = pcb->refused_data->flags;
 8005402:	6f86      	ldr	r6, [r0, #120]	; 0x78
  TCP_EVENT_RECV(pcb, refused_data, ERR_OK, err);
 8005404:	f8d0 5080 	ldr.w	r5, [r0, #128]	; 0x80
  u8_t refused_flags = pcb->refused_data->flags;
 8005408:	7b77      	ldrb	r7, [r6, #13]
  pcb->refused_data = NULL;
 800540a:	2300      	movs	r3, #0
{
 800540c:	4604      	mov	r4, r0
  pcb->refused_data = NULL;
 800540e:	6783      	str	r3, [r0, #120]	; 0x78
  TCP_EVENT_RECV(pcb, refused_data, ERR_OK, err);
 8005410:	b1e5      	cbz	r5, 800544c <tcp_process_refused_data+0x4c>
 8005412:	4601      	mov	r1, r0
 8005414:	4632      	mov	r2, r6
 8005416:	6900      	ldr	r0, [r0, #16]
 8005418:	47a8      	blx	r5
 800541a:	4605      	mov	r5, r0
  if (err == ERR_OK) {
 800541c:	b9e8      	cbnz	r0, 800545a <tcp_process_refused_data+0x5a>
    if (refused_flags & PBUF_FLAG_TCP_FIN) {
 800541e:	06bb      	lsls	r3, r7, #26
 8005420:	d512      	bpl.n	8005448 <tcp_process_refused_data+0x48>
      if (pcb->rcv_wnd != TCP_WND) {
 8005422:	8da3      	ldrh	r3, [r4, #44]	; 0x2c
      TCP_EVENT_CLOSED(pcb, err);
 8005424:	f8d4 6080 	ldr.w	r6, [r4, #128]	; 0x80
      if (pcb->rcv_wnd != TCP_WND) {
 8005428:	f241 62d0 	movw	r2, #5840	; 0x16d0
 800542c:	4293      	cmp	r3, r2
        pcb->rcv_wnd++;
 800542e:	bf1c      	itt	ne
 8005430:	3301      	addne	r3, #1
 8005432:	85a3      	strhne	r3, [r4, #44]	; 0x2c
      TCP_EVENT_CLOSED(pcb, err);
 8005434:	b146      	cbz	r6, 8005448 <tcp_process_refused_data+0x48>
 8005436:	2300      	movs	r3, #0
 8005438:	461a      	mov	r2, r3
 800543a:	4621      	mov	r1, r4
 800543c:	6920      	ldr	r0, [r4, #16]
 800543e:	47b0      	blx	r6
      if (err == ERR_ABRT) {
 8005440:	300a      	adds	r0, #10
 8005442:	d101      	bne.n	8005448 <tcp_process_refused_data+0x48>
        return ERR_ABRT;
 8005444:	f06f 0509 	mvn.w	r5, #9
}
 8005448:	4628      	mov	r0, r5
 800544a:	bdf8      	pop	{r3, r4, r5, r6, r7, pc}
  TCP_EVENT_RECV(pcb, refused_data, ERR_OK, err);
 800544c:	4601      	mov	r1, r0
 800544e:	462b      	mov	r3, r5
 8005450:	4632      	mov	r2, r6
 8005452:	4628      	mov	r0, r5
 8005454:	f7ff ffc2 	bl	80053dc <tcp_recv_null>
 8005458:	e7df      	b.n	800541a <tcp_process_refused_data+0x1a>
  } else if (err == ERR_ABRT) {
 800545a:	f110 050a 	adds.w	r5, r0, #10
 800545e:	d0f1      	beq.n	8005444 <tcp_process_refused_data+0x44>
    pcb->refused_data = refused_data;
 8005460:	67a6      	str	r6, [r4, #120]	; 0x78
  return ERR_OK;
 8005462:	2500      	movs	r5, #0
 8005464:	e7f0      	b.n	8005448 <tcp_process_refused_data+0x48>
	...

08005468 <tcp_fasttmr>:
{
 8005468:	e92d 43f8 	stmdb	sp!, {r3, r4, r5, r6, r7, r8, r9, lr}
  ++tcp_timer_ctr;
 800546c:	4d17      	ldr	r5, [pc, #92]	; (80054cc <tcp_fasttmr+0x64>)
  pcb = tcp_active_pcbs;
 800546e:	4f18      	ldr	r7, [pc, #96]	; (80054d0 <tcp_fasttmr+0x68>)
  ++tcp_timer_ctr;
 8005470:	782b      	ldrb	r3, [r5, #0]
        tcp_active_pcbs_changed = 0;
 8005472:	4e18      	ldr	r6, [pc, #96]	; (80054d4 <tcp_fasttmr+0x6c>)
  ++tcp_timer_ctr;
 8005474:	3301      	adds	r3, #1
 8005476:	702b      	strb	r3, [r5, #0]
  pcb = tcp_active_pcbs;
 8005478:	683c      	ldr	r4, [r7, #0]
        tcp_active_pcbs_changed = 0;
 800547a:	f04f 0800 	mov.w	r8, #0
    if (pcb->last_timer != tcp_timer_ctr) {
 800547e:	782b      	ldrb	r3, [r5, #0]
  while(pcb != NULL) {
 8005480:	b90c      	cbnz	r4, 8005486 <tcp_fasttmr+0x1e>
}
 8005482:	e8bd 83f8 	ldmia.w	sp!, {r3, r4, r5, r6, r7, r8, r9, pc}
    if (pcb->last_timer != tcp_timer_ctr) {
 8005486:	f894 2021 	ldrb.w	r2, [r4, #33]	; 0x21
 800548a:	429a      	cmp	r2, r3
 800548c:	d0f8      	beq.n	8005480 <tcp_fasttmr+0x18>
      pcb->last_timer = tcp_timer_ctr;
 800548e:	f884 3021 	strb.w	r3, [r4, #33]	; 0x21
      if (pcb->flags & TF_ACK_DELAY) {
 8005492:	7fa3      	ldrb	r3, [r4, #30]
 8005494:	07da      	lsls	r2, r3, #31
 8005496:	d509      	bpl.n	80054ac <tcp_fasttmr+0x44>
        tcp_ack_now(pcb);
 8005498:	f043 0302 	orr.w	r3, r3, #2
 800549c:	77a3      	strb	r3, [r4, #30]
        tcp_output(pcb);
 800549e:	4620      	mov	r0, r4
 80054a0:	f001 fb22 	bl	8006ae8 <tcp_output>
        pcb->flags &= ~(TF_ACK_DELAY | TF_ACK_NOW);
 80054a4:	7fa3      	ldrb	r3, [r4, #30]
 80054a6:	f023 0303 	bic.w	r3, r3, #3
 80054aa:	77a3      	strb	r3, [r4, #30]
      if (pcb->refused_data != NULL) {
 80054ac:	6fa3      	ldr	r3, [r4, #120]	; 0x78
      next = pcb->next;
 80054ae:	f8d4 900c 	ldr.w	r9, [r4, #12]
      if (pcb->refused_data != NULL) {
 80054b2:	b90b      	cbnz	r3, 80054b8 <tcp_fasttmr+0x50>
{
 80054b4:	464c      	mov	r4, r9
 80054b6:	e7e2      	b.n	800547e <tcp_fasttmr+0x16>
        tcp_process_refused_data(pcb);
 80054b8:	4620      	mov	r0, r4
        tcp_active_pcbs_changed = 0;
 80054ba:	f886 8000 	strb.w	r8, [r6]
        tcp_process_refused_data(pcb);
 80054be:	f7ff ff9f 	bl	8005400 <tcp_process_refused_data>
        if (tcp_active_pcbs_changed) {
 80054c2:	7833      	ldrb	r3, [r6, #0]
 80054c4:	2b00      	cmp	r3, #0
 80054c6:	d0f5      	beq.n	80054b4 <tcp_fasttmr+0x4c>
 80054c8:	e7d6      	b.n	8005478 <tcp_fasttmr+0x10>
 80054ca:	bf00      	nop
 80054cc:	20007195 	.word	0x20007195
 80054d0:	2000abe4 	.word	0x2000abe4
 80054d4:	2000abe0 	.word	0x2000abe0

080054d8 <tcp_tmr>:
{
 80054d8:	b508      	push	{r3, lr}
  tcp_fasttmr();
 80054da:	f7ff ffc5 	bl	8005468 <tcp_fasttmr>
  if (++tcp_timer & 1) {
 80054de:	4a06      	ldr	r2, [pc, #24]	; (80054f8 <tcp_tmr+0x20>)
 80054e0:	7813      	ldrb	r3, [r2, #0]
 80054e2:	3301      	adds	r3, #1
 80054e4:	b2db      	uxtb	r3, r3
 80054e6:	7013      	strb	r3, [r2, #0]
 80054e8:	07db      	lsls	r3, r3, #31
 80054ea:	d503      	bpl.n	80054f4 <tcp_tmr+0x1c>
}
 80054ec:	e8bd 4008 	ldmia.w	sp!, {r3, lr}
    tcp_slowtmr();
 80054f0:	f7ff bd22 	b.w	8004f38 <tcp_slowtmr>
 80054f4:	bd08      	pop	{r3, pc}
 80054f6:	bf00      	nop
 80054f8:	20007194 	.word	0x20007194

080054fc <tcp_abandon>:
  if (pcb->state == TIME_WAIT) {
 80054fc:	7e03      	ldrb	r3, [r0, #24]
 80054fe:	2b0a      	cmp	r3, #10
{
 8005500:	e92d 43f7 	stmdb	sp!, {r0, r1, r2, r4, r5, r6, r7, r8, r9, lr}
 8005504:	4604      	mov	r4, r0
 8005506:	4689      	mov	r9, r1
  if (pcb->state == TIME_WAIT) {
 8005508:	d10a      	bne.n	8005520 <tcp_abandon+0x24>
    tcp_pcb_remove(&tcp_tw_pcbs, pcb);
 800550a:	4601      	mov	r1, r0
 800550c:	481f      	ldr	r0, [pc, #124]	; (800558c <tcp_abandon+0x90>)
 800550e:	f7ff fe7f 	bl	8005210 <tcp_pcb_remove>
    memp_free(MEMP_TCP_PCB, pcb);
 8005512:	4621      	mov	r1, r4
 8005514:	2002      	movs	r0, #2
}
 8005516:	b003      	add	sp, #12
 8005518:	e8bd 43f0 	ldmia.w	sp!, {r4, r5, r6, r7, r8, r9, lr}
    memp_free(MEMP_TCP_PCB, pcb);
 800551c:	f7ff ba02 	b.w	8004924 <memp_free>
    seqno = pcb->snd_nxt;
 8005520:	6d07      	ldr	r7, [r0, #80]	; 0x50
    ackno = pcb->rcv_nxt;
 8005522:	f8d0 8028 	ldr.w	r8, [r0, #40]	; 0x28
    errf = pcb->errf;
 8005526:	f8d0 508c 	ldr.w	r5, [r0, #140]	; 0x8c
    errf_arg = pcb->callback_arg;
 800552a:	6906      	ldr	r6, [r0, #16]
    TCP_PCB_REMOVE_ACTIVE(pcb);
 800552c:	4601      	mov	r1, r0
 800552e:	4818      	ldr	r0, [pc, #96]	; (8005590 <tcp_abandon+0x94>)
 8005530:	f7ff fe6e 	bl	8005210 <tcp_pcb_remove>
 8005534:	4b17      	ldr	r3, [pc, #92]	; (8005594 <tcp_abandon+0x98>)
    if (pcb->unacked != NULL) {
 8005536:	6f20      	ldr	r0, [r4, #112]	; 0x70
    TCP_PCB_REMOVE_ACTIVE(pcb);
 8005538:	2201      	movs	r2, #1
 800553a:	701a      	strb	r2, [r3, #0]
    if (pcb->unacked != NULL) {
 800553c:	b108      	cbz	r0, 8005542 <tcp_abandon+0x46>
      tcp_segs_free(pcb->unacked);
 800553e:	f7ff fcbd 	bl	8004ebc <tcp_segs_free>
    if (pcb->unsent != NULL) {
 8005542:	6ee0      	ldr	r0, [r4, #108]	; 0x6c
 8005544:	b108      	cbz	r0, 800554a <tcp_abandon+0x4e>
      tcp_segs_free(pcb->unsent);
 8005546:	f7ff fcb9 	bl	8004ebc <tcp_segs_free>
    if (pcb->ooseq != NULL) {
 800554a:	6f60      	ldr	r0, [r4, #116]	; 0x74
 800554c:	b108      	cbz	r0, 8005552 <tcp_abandon+0x56>
      tcp_segs_free(pcb->ooseq);
 800554e:	f7ff fcb5 	bl	8004ebc <tcp_segs_free>
    if (reset) {
 8005552:	f1b9 0f00 	cmp.w	r9, #0
 8005556:	d009      	beq.n	800556c <tcp_abandon+0x70>
      tcp_rst(seqno, ackno, &pcb->local_ip, &pcb->remote_ip, pcb->local_port, pcb->remote_port);
 8005558:	8ba3      	ldrh	r3, [r4, #28]
 800555a:	9301      	str	r3, [sp, #4]
 800555c:	8b63      	ldrh	r3, [r4, #26]
 800555e:	9300      	str	r3, [sp, #0]
 8005560:	4622      	mov	r2, r4
 8005562:	1d23      	adds	r3, r4, #4
 8005564:	4641      	mov	r1, r8
 8005566:	4638      	mov	r0, r7
 8005568:	f001 fc04 	bl	8006d74 <tcp_rst>
    memp_free(MEMP_TCP_PCB, pcb);
 800556c:	4621      	mov	r1, r4
 800556e:	2002      	movs	r0, #2
 8005570:	f7ff f9d8 	bl	8004924 <memp_free>
    TCP_EVENT_ERR(errf, errf_arg, ERR_ABRT);
 8005574:	b13d      	cbz	r5, 8005586 <tcp_abandon+0x8a>
 8005576:	f06f 0109 	mvn.w	r1, #9
 800557a:	4630      	mov	r0, r6
 800557c:	462b      	mov	r3, r5
}
 800557e:	b003      	add	sp, #12
 8005580:	e8bd 43f0 	ldmia.w	sp!, {r4, r5, r6, r7, r8, r9, lr}
    TCP_EVENT_ERR(errf, errf_arg, ERR_ABRT);
 8005584:	4718      	bx	r3
}
 8005586:	b003      	add	sp, #12
 8005588:	e8bd 83f0 	ldmia.w	sp!, {r4, r5, r6, r7, r8, r9, pc}
 800558c:	2000abf8 	.word	0x2000abf8
 8005590:	2000abe4 	.word	0x2000abe4
 8005594:	2000abe0 	.word	0x2000abe0

08005598 <tcp_abort>:
  tcp_abandon(pcb, 1);
 8005598:	2101      	movs	r1, #1
 800559a:	f7ff bfaf 	b.w	80054fc <tcp_abandon>
	...

080055a0 <tcp_next_iss>:
u32_t
tcp_next_iss(void)
{
  static u32_t iss = 6510;
  
  iss += tcp_ticks;       /* XXX */
 80055a0:	4b03      	ldr	r3, [pc, #12]	; (80055b0 <tcp_next_iss+0x10>)
 80055a2:	4a04      	ldr	r2, [pc, #16]	; (80055b4 <tcp_next_iss+0x14>)
 80055a4:	6818      	ldr	r0, [r3, #0]
 80055a6:	6812      	ldr	r2, [r2, #0]
 80055a8:	4410      	add	r0, r2
 80055aa:	6018      	str	r0, [r3, #0]
  return iss;
}
 80055ac:	4770      	bx	lr
 80055ae:	bf00      	nop
 80055b0:	20000144 	.word	0x20000144
 80055b4:	2000abe8 	.word	0x2000abe8

080055b8 <tcp_alloc>:
{
 80055b8:	b5f8      	push	{r3, r4, r5, r6, r7, lr}
 80055ba:	4606      	mov	r6, r0
  pcb = (struct tcp_pcb *)memp_malloc(MEMP_TCP_PCB);
 80055bc:	2002      	movs	r0, #2
 80055be:	f7ff f987 	bl	80048d0 <memp_malloc>
 80055c2:	4d41      	ldr	r5, [pc, #260]	; (80056c8 <tcp_alloc+0x110>)
  if (pcb == NULL) {
 80055c4:	4604      	mov	r4, r0
 80055c6:	bb60      	cbnz	r0, 8005622 <tcp_alloc+0x6a>
  for(pcb = tcp_tw_pcbs; pcb != NULL; pcb = pcb->next) {
 80055c8:	4b40      	ldr	r3, [pc, #256]	; (80056cc <tcp_alloc+0x114>)
    if ((u32_t)(tcp_ticks - pcb->tmr) >= inactivity) {
 80055ca:	6828      	ldr	r0, [r5, #0]
  for(pcb = tcp_tw_pcbs; pcb != NULL; pcb = pcb->next) {
 80055cc:	681b      	ldr	r3, [r3, #0]
  inactivity = 0;
 80055ce:	4621      	mov	r1, r4
  for(pcb = tcp_tw_pcbs; pcb != NULL; pcb = pcb->next) {
 80055d0:	2b00      	cmp	r3, #0
 80055d2:	d161      	bne.n	8005698 <tcp_alloc+0xe0>
  if (inactive != NULL) {
 80055d4:	b114      	cbz	r4, 80055dc <tcp_alloc+0x24>
    tcp_abort(inactive);
 80055d6:	4620      	mov	r0, r4
 80055d8:	f7ff ffde 	bl	8005598 <tcp_abort>
    pcb = (struct tcp_pcb *)memp_malloc(MEMP_TCP_PCB);
 80055dc:	2002      	movs	r0, #2
 80055de:	f7ff f977 	bl	80048d0 <memp_malloc>
    if (pcb == NULL) {
 80055e2:	4604      	mov	r4, r0
 80055e4:	b9b8      	cbnz	r0, 8005616 <tcp_alloc+0x5e>
  for(pcb = tcp_active_pcbs; pcb != NULL; pcb = pcb->next) {
 80055e6:	4b3a      	ldr	r3, [pc, #232]	; (80056d0 <tcp_alloc+0x118>)
       (u32_t)(tcp_ticks - pcb->tmr) >= inactivity) {
 80055e8:	f8d5 e000 	ldr.w	lr, [r5]
  for(pcb = tcp_active_pcbs; pcb != NULL; pcb = pcb->next) {
 80055ec:	681b      	ldr	r3, [r3, #0]
  mprio = TCP_PRIO_MAX;
 80055ee:	207f      	movs	r0, #127	; 0x7f
  inactivity = 0;
 80055f0:	4627      	mov	r7, r4
  for(pcb = tcp_active_pcbs; pcb != NULL; pcb = pcb->next) {
 80055f2:	2b00      	cmp	r3, #0
 80055f4:	d158      	bne.n	80056a8 <tcp_alloc+0xf0>
  if (inactive != NULL) {
 80055f6:	b114      	cbz	r4, 80055fe <tcp_alloc+0x46>
    tcp_abort(inactive);
 80055f8:	4620      	mov	r0, r4
 80055fa:	f7ff ffcd 	bl	8005598 <tcp_abort>
      pcb = (struct tcp_pcb *)memp_malloc(MEMP_TCP_PCB);
 80055fe:	2002      	movs	r0, #2
 8005600:	f7ff f966 	bl	80048d0 <memp_malloc>
      if (pcb != NULL) {
 8005604:	4604      	mov	r4, r0
 8005606:	2800      	cmp	r0, #0
 8005608:	d044      	beq.n	8005694 <tcp_alloc+0xdc>
        MEMP_STATS_DEC(err, MEMP_TCP_PCB);
 800560a:	4a32      	ldr	r2, [pc, #200]	; (80056d4 <tcp_alloc+0x11c>)
 800560c:	f8b2 30cc 	ldrh.w	r3, [r2, #204]	; 0xcc
 8005610:	3b01      	subs	r3, #1
 8005612:	f8a2 30cc 	strh.w	r3, [r2, #204]	; 0xcc
      MEMP_STATS_DEC(err, MEMP_TCP_PCB);
 8005616:	4a2f      	ldr	r2, [pc, #188]	; (80056d4 <tcp_alloc+0x11c>)
 8005618:	f8b2 30cc 	ldrh.w	r3, [r2, #204]	; 0xcc
 800561c:	3b01      	subs	r3, #1
 800561e:	f8a2 30cc 	strh.w	r3, [r2, #204]	; 0xcc
    memset(pcb, 0, sizeof(struct tcp_pcb));
 8005622:	2298      	movs	r2, #152	; 0x98
 8005624:	2100      	movs	r1, #0
 8005626:	4620      	mov	r0, r4
 8005628:	f002 fb1a 	bl	8007c60 <memset>
    pcb->snd_buf = TCP_SND_BUF;
 800562c:	f640 3368 	movw	r3, #2920	; 0xb68
 8005630:	f8a4 3066 	strh.w	r3, [r4, #102]	; 0x66
    pcb->rcv_wnd = TCP_WND;
 8005634:	f241 63d0 	movw	r3, #5840	; 0x16d0
 8005638:	85a3      	strh	r3, [r4, #44]	; 0x2c
    pcb->rcv_ann_wnd = TCP_WND;
 800563a:	85e3      	strh	r3, [r4, #46]	; 0x2e
    pcb->ttl = TCP_TTL;
 800563c:	23ff      	movs	r3, #255	; 0xff
 800563e:	72a3      	strb	r3, [r4, #10]
    pcb->mss = (TCP_MSS > 536) ? 536 : TCP_MSS;
 8005640:	f44f 7306 	mov.w	r3, #536	; 0x218
 8005644:	86e3      	strh	r3, [r4, #54]	; 0x36
    pcb->rto = 3000 / TCP_SLOW_INTERVAL;
 8005646:	2306      	movs	r3, #6
 8005648:	f8a4 3044 	strh.w	r3, [r4, #68]	; 0x44
    pcb->sv = 3000 / TCP_SLOW_INTERVAL;
 800564c:	f8a4 3042 	strh.w	r3, [r4, #66]	; 0x42
    pcb->rtime = -1;
 8005650:	f64f 73ff 	movw	r3, #65535	; 0xffff
    pcb->snd_queuelen = 0;
 8005654:	2100      	movs	r1, #0
    pcb->rtime = -1;
 8005656:	86a3      	strh	r3, [r4, #52]	; 0x34
    pcb->cwnd = 1;
 8005658:	2301      	movs	r3, #1
 800565a:	f8a4 304c 	strh.w	r3, [r4, #76]	; 0x4c
    pcb->prio = prio;
 800565e:	7666      	strb	r6, [r4, #25]
    pcb->snd_queuelen = 0;
 8005660:	f8a4 1068 	strh.w	r1, [r4, #104]	; 0x68
    pcb->tos = 0;
 8005664:	7261      	strb	r1, [r4, #9]
    pcb->sa = 0;
 8005666:	f8a4 1040 	strh.w	r1, [r4, #64]	; 0x40
    iss = tcp_next_iss();
 800566a:	f7ff ff99 	bl	80055a0 <tcp_next_iss>
    pcb->tmr = tcp_ticks;
 800566e:	682b      	ldr	r3, [r5, #0]
 8005670:	6263      	str	r3, [r4, #36]	; 0x24
    pcb->last_timer = tcp_timer_ctr;
 8005672:	4b19      	ldr	r3, [pc, #100]	; (80056d8 <tcp_alloc+0x120>)
    pcb->snd_wl2 = iss;
 8005674:	65a0      	str	r0, [r4, #88]	; 0x58
    pcb->last_timer = tcp_timer_ctr;
 8005676:	781b      	ldrb	r3, [r3, #0]
 8005678:	f884 3021 	strb.w	r3, [r4, #33]	; 0x21
    pcb->recv = tcp_recv_null;
 800567c:	4b17      	ldr	r3, [pc, #92]	; (80056dc <tcp_alloc+0x124>)
 800567e:	f8c4 3080 	str.w	r3, [r4, #128]	; 0x80
    pcb->keep_idle  = TCP_KEEPIDLE_DEFAULT;
 8005682:	4b17      	ldr	r3, [pc, #92]	; (80056e0 <tcp_alloc+0x128>)
    pcb->snd_nxt = iss;
 8005684:	6520      	str	r0, [r4, #80]	; 0x50
    pcb->lastack = iss;
 8005686:	64a0      	str	r0, [r4, #72]	; 0x48
    pcb->snd_lbb = iss;   
 8005688:	65e0      	str	r0, [r4, #92]	; 0x5c
    pcb->polltmr = 0;
 800568a:	77e1      	strb	r1, [r4, #31]
    pcb->keep_idle  = TCP_KEEPIDLE_DEFAULT;
 800568c:	f8c4 3090 	str.w	r3, [r4, #144]	; 0x90
    pcb->keep_cnt_sent = 0;
 8005690:	f884 1096 	strb.w	r1, [r4, #150]	; 0x96
}
 8005694:	4620      	mov	r0, r4
 8005696:	bdf8      	pop	{r3, r4, r5, r6, r7, pc}
    if ((u32_t)(tcp_ticks - pcb->tmr) >= inactivity) {
 8005698:	6a5a      	ldr	r2, [r3, #36]	; 0x24
 800569a:	1a82      	subs	r2, r0, r2
 800569c:	428a      	cmp	r2, r1
 800569e:	bf24      	itt	cs
 80056a0:	461c      	movcs	r4, r3
 80056a2:	4611      	movcs	r1, r2
  for(pcb = tcp_tw_pcbs; pcb != NULL; pcb = pcb->next) {
 80056a4:	68db      	ldr	r3, [r3, #12]
 80056a6:	e793      	b.n	80055d0 <tcp_alloc+0x18>
    if (pcb->prio <= prio &&
 80056a8:	7e59      	ldrb	r1, [r3, #25]
 80056aa:	428e      	cmp	r6, r1
 80056ac:	d309      	bcc.n	80056c2 <tcp_alloc+0x10a>
 80056ae:	4281      	cmp	r1, r0
 80056b0:	d807      	bhi.n	80056c2 <tcp_alloc+0x10a>
       (u32_t)(tcp_ticks - pcb->tmr) >= inactivity) {
 80056b2:	6a5a      	ldr	r2, [r3, #36]	; 0x24
 80056b4:	ebae 0202 	sub.w	r2, lr, r2
       pcb->prio <= mprio &&
 80056b8:	42ba      	cmp	r2, r7
 80056ba:	bf22      	ittt	cs
 80056bc:	4608      	movcs	r0, r1
 80056be:	4617      	movcs	r7, r2
 80056c0:	461c      	movcs	r4, r3
  for(pcb = tcp_active_pcbs; pcb != NULL; pcb = pcb->next) {
 80056c2:	68db      	ldr	r3, [r3, #12]
 80056c4:	e795      	b.n	80055f2 <tcp_alloc+0x3a>
 80056c6:	bf00      	nop
 80056c8:	2000abe8 	.word	0x2000abe8
 80056cc:	2000abf8 	.word	0x2000abf8
 80056d0:	2000abe4 	.word	0x2000abe4
 80056d4:	2000aaca 	.word	0x2000aaca
 80056d8:	20007195 	.word	0x20007195
 80056dc:	080053dd 	.word	0x080053dd
 80056e0:	006ddd00 	.word	0x006ddd00

080056e4 <tcp_eff_send_mss>:
 * by using ip_route to determin the netif used to send to the address and
 * calculating the minimum of TCP_MSS and that netif's mtu (if set).
 */
u16_t
tcp_eff_send_mss(u16_t sendmss, ip_addr_t *addr)
{
 80056e4:	b510      	push	{r4, lr}
 80056e6:	4604      	mov	r4, r0
  u16_t mss_s;
  struct netif *outif;

  outif = ip_route(addr);
 80056e8:	4608      	mov	r0, r1
 80056ea:	f7fe fa7d 	bl	8003be8 <ip_route>
  if ((outif != NULL) && (outif->mtu != 0)) {
 80056ee:	b130      	cbz	r0, 80056fe <tcp_eff_send_mss+0x1a>
 80056f0:	8c03      	ldrh	r3, [r0, #32]
 80056f2:	b123      	cbz	r3, 80056fe <tcp_eff_send_mss+0x1a>
    mss_s = outif->mtu - IP_HLEN - TCP_HLEN;
 80056f4:	3b28      	subs	r3, #40	; 0x28
    /* RFC 1122, chap 4.2.2.6:
     * Eff.snd.MSS = min(SendMSS+20, MMS_S) - TCPhdrsize - IPoptionsize
     * We correct for TCP options in tcp_write(), and don't support IP options.
     */
    sendmss = LWIP_MIN(sendmss, mss_s);
 80056f6:	b29b      	uxth	r3, r3
 80056f8:	429c      	cmp	r4, r3
 80056fa:	bf28      	it	cs
 80056fc:	461c      	movcs	r4, r3
  }
  return sendmss;
}
 80056fe:	4620      	mov	r0, r4
 8005700:	bd10      	pop	{r4, pc}
	...

08005704 <tcp_oos_insert_segment>:
 *
 * Called from tcp_receive()
 */
static void
tcp_oos_insert_segment(struct tcp_seg *cseg, struct tcp_seg *next)
{
 8005704:	e92d 41f0 	stmdb	sp!, {r4, r5, r6, r7, r8, lr}
  struct tcp_seg *old_seg;

  if (TCPH_FLAGS(cseg->tcphdr) & TCP_FIN) {
 8005708:	68c3      	ldr	r3, [r0, #12]
{
 800570a:	4605      	mov	r5, r0
  if (TCPH_FLAGS(cseg->tcphdr) & TCP_FIN) {
 800570c:	8998      	ldrh	r0, [r3, #12]
{
 800570e:	460c      	mov	r4, r1
  if (TCPH_FLAGS(cseg->tcphdr) & TCP_FIN) {
 8005710:	f7fe f88f 	bl	8003832 <lwip_ntohs>
 8005714:	07c2      	lsls	r2, r0, #31
 8005716:	d415      	bmi.n	8005744 <tcp_oos_insert_segment+0x40>
  }
  else {
    /* delete some following segments
       oos queue may have segments with FIN flag */
    while (next &&
           TCP_SEQ_GEQ((seqno + cseg->len),
 8005718:	4e18      	ldr	r6, [pc, #96]	; (800577c <tcp_oos_insert_segment+0x78>)
    while (next &&
 800571a:	b1bc      	cbz	r4, 800574c <tcp_oos_insert_segment+0x48>
           TCP_SEQ_GEQ((seqno + cseg->len),
 800571c:	68e7      	ldr	r7, [r4, #12]
 800571e:	6830      	ldr	r0, [r6, #0]
 8005720:	892b      	ldrh	r3, [r5, #8]
 8005722:	6879      	ldr	r1, [r7, #4]
 8005724:	8922      	ldrh	r2, [r4, #8]
 8005726:	4403      	add	r3, r0
 8005728:	440a      	add	r2, r1
 800572a:	1a9a      	subs	r2, r3, r2
    while (next &&
 800572c:	2a00      	cmp	r2, #0
 800572e:	da10      	bge.n	8005752 <tcp_oos_insert_segment+0x4e>
      old_seg = next;
      next = next->next;
      tcp_seg_free(old_seg);
    }
    if (next &&
        TCP_SEQ_GT(seqno + cseg->len, next->tcphdr->seqno)) {
 8005730:	1a5b      	subs	r3, r3, r1
    if (next &&
 8005732:	2b00      	cmp	r3, #0
 8005734:	dd0a      	ble.n	800574c <tcp_oos_insert_segment+0x48>
      /* We need to trim the incoming segment. */
      cseg->len = (u16_t)(next->tcphdr->seqno - seqno);
 8005736:	1a09      	subs	r1, r1, r0
 8005738:	b289      	uxth	r1, r1
 800573a:	8129      	strh	r1, [r5, #8]
      pbuf_realloc(cseg->p, cseg->len);
 800573c:	6868      	ldr	r0, [r5, #4]
 800573e:	f7ff fa73 	bl	8004c28 <pbuf_realloc>
 8005742:	e003      	b.n	800574c <tcp_oos_insert_segment+0x48>
    tcp_segs_free(next);
 8005744:	4620      	mov	r0, r4
 8005746:	f7ff fbb9 	bl	8004ebc <tcp_segs_free>
    next = NULL;
 800574a:	2400      	movs	r4, #0
    }
  }
  cseg->next = next;
 800574c:	602c      	str	r4, [r5, #0]
}
 800574e:	e8bd 81f0 	ldmia.w	sp!, {r4, r5, r6, r7, r8, pc}
      if (TCPH_FLAGS(next->tcphdr) & TCP_FIN) {
 8005752:	89b8      	ldrh	r0, [r7, #12]
 8005754:	f7fe f86d 	bl	8003832 <lwip_ntohs>
 8005758:	07c3      	lsls	r3, r0, #31
 800575a:	d509      	bpl.n	8005770 <tcp_oos_insert_segment+0x6c>
        TCPH_SET_FLAG(cseg->tcphdr, TCP_FIN);
 800575c:	f8d5 800c 	ldr.w	r8, [r5, #12]
 8005760:	2001      	movs	r0, #1
 8005762:	f8b8 700c 	ldrh.w	r7, [r8, #12]
 8005766:	f7fe f861 	bl	800382c <lwip_htons>
 800576a:	4338      	orrs	r0, r7
 800576c:	f8a8 000c 	strh.w	r0, [r8, #12]
      next = next->next;
 8005770:	6827      	ldr	r7, [r4, #0]
      tcp_seg_free(old_seg);
 8005772:	4620      	mov	r0, r4
 8005774:	f7ff fb94 	bl	8004ea0 <tcp_seg_free>
      next = next->next;
 8005778:	463c      	mov	r4, r7
 800577a:	e7ce      	b.n	800571a <tcp_oos_insert_segment+0x16>
 800577c:	200071b8 	.word	0x200071b8

08005780 <tcp_receive>:
 *
 * Called from tcp_process().
 */
static void
tcp_receive(struct tcp_pcb *pcb)
{
 8005780:	e92d 47f0 	stmdb	sp!, {r4, r5, r6, r7, r8, r9, sl, lr}
  u16_t ooseq_qlen;
#endif /* TCP_OOSEQ_MAX_BYTES || TCP_OOSEQ_MAX_PBUFS */

  LWIP_ASSERT("tcp_receive: wrong state", pcb->state >= ESTABLISHED);

  if (flags & TCP_ACK) {
 8005784:	4ba7      	ldr	r3, [pc, #668]	; (8005a24 <tcp_receive+0x2a4>)
 8005786:	4ea8      	ldr	r6, [pc, #672]	; (8005a28 <tcp_receive+0x2a8>)
 8005788:	781b      	ldrb	r3, [r3, #0]
 800578a:	f013 0f10 	tst.w	r3, #16
{
 800578e:	4604      	mov	r4, r0
  if (flags & TCP_ACK) {
 8005790:	d070      	beq.n	8005874 <tcp_receive+0xf4>
    right_wnd_edge = pcb->snd_wnd + pcb->snd_wl2;

    /* Update window. */
    if (TCP_SEQ_LT(pcb->snd_wl1, seqno) ||
 8005792:	6d63      	ldr	r3, [r4, #84]	; 0x54
 8005794:	6832      	ldr	r2, [r6, #0]
  LWIP_ASSERT("tcp_receive: wrong state", pcb->state >= ESTABLISHED);
 8005796:	7e00      	ldrb	r0, [r0, #24]
    right_wnd_edge = pcb->snd_wnd + pcb->snd_wl2;
 8005798:	f8b4 1060 	ldrh.w	r1, [r4, #96]	; 0x60
 800579c:	6da7      	ldr	r7, [r4, #88]	; 0x58
    if (TCP_SEQ_LT(pcb->snd_wl1, seqno) ||
 800579e:	1a9d      	subs	r5, r3, r2
 80057a0:	2d00      	cmp	r5, #0
 80057a2:	4da2      	ldr	r5, [pc, #648]	; (8005a2c <tcp_receive+0x2ac>)
 80057a4:	db0d      	blt.n	80057c2 <tcp_receive+0x42>
 80057a6:	4293      	cmp	r3, r2
 80057a8:	d103      	bne.n	80057b2 <tcp_receive+0x32>
       (pcb->snd_wl1 == seqno && TCP_SEQ_LT(pcb->snd_wl2, ackno)) ||
 80057aa:	682b      	ldr	r3, [r5, #0]
 80057ac:	1afb      	subs	r3, r7, r3
 80057ae:	2b00      	cmp	r3, #0
 80057b0:	db07      	blt.n	80057c2 <tcp_receive+0x42>
 80057b2:	682b      	ldr	r3, [r5, #0]
 80057b4:	429f      	cmp	r7, r3
 80057b6:	d11f      	bne.n	80057f8 <tcp_receive+0x78>
       (pcb->snd_wl2 == ackno && tcphdr->wnd > pcb->snd_wnd)) {
 80057b8:	4b9d      	ldr	r3, [pc, #628]	; (8005a30 <tcp_receive+0x2b0>)
 80057ba:	681b      	ldr	r3, [r3, #0]
 80057bc:	89db      	ldrh	r3, [r3, #14]
 80057be:	428b      	cmp	r3, r1
 80057c0:	d91a      	bls.n	80057f8 <tcp_receive+0x78>
      pcb->snd_wnd = tcphdr->wnd;
 80057c2:	4b9b      	ldr	r3, [pc, #620]	; (8005a30 <tcp_receive+0x2b0>)
      /* keep track of the biggest window announced by the remote host to calculate
         the maximum segment size */
      if (pcb->snd_wnd_max < tcphdr->wnd) {
 80057c4:	f8b4 c062 	ldrh.w	ip, [r4, #98]	; 0x62
      pcb->snd_wnd = tcphdr->wnd;
 80057c8:	681b      	ldr	r3, [r3, #0]
 80057ca:	f8b3 e00e 	ldrh.w	lr, [r3, #14]
        pcb->snd_wnd_max = tcphdr->wnd;
      }
      pcb->snd_wl1 = seqno;
 80057ce:	6562      	str	r2, [r4, #84]	; 0x54
      if (pcb->snd_wnd_max < tcphdr->wnd) {
 80057d0:	45f4      	cmp	ip, lr
      pcb->snd_wl2 = ackno;
 80057d2:	682a      	ldr	r2, [r5, #0]
 80057d4:	65a2      	str	r2, [r4, #88]	; 0x58
      pcb->snd_wnd = tcphdr->wnd;
 80057d6:	4673      	mov	r3, lr
 80057d8:	f8a4 e060 	strh.w	lr, [r4, #96]	; 0x60
        pcb->snd_wnd_max = tcphdr->wnd;
 80057dc:	bf38      	it	cc
 80057de:	f8a4 e062 	strhcc.w	lr, [r4, #98]	; 0x62
 80057e2:	f894 2095 	ldrb.w	r2, [r4, #149]	; 0x95
      if (pcb->snd_wnd == 0) {
 80057e6:	2b00      	cmp	r3, #0
 80057e8:	f040 8111 	bne.w	8005a0e <tcp_receive+0x28e>
        if (pcb->persist_backoff == 0) {
 80057ec:	b922      	cbnz	r2, 80057f8 <tcp_receive+0x78>
          /* start persist timer */
          pcb->persist_cnt = 0;
 80057ee:	f884 e094 	strb.w	lr, [r4, #148]	; 0x94
          pcb->persist_backoff = 1;
 80057f2:	2301      	movs	r3, #1
        }
      } else if (pcb->persist_backoff > 0) {
        /* stop persist timer */
          pcb->persist_backoff = 0;
 80057f4:	f884 3095 	strb.w	r3, [r4, #149]	; 0x95
     * If it only passes 1, should reset dupack counter
     *
     */

    /* Clause 1 */
    if (TCP_SEQ_LEQ(ackno, pcb->lastack)) {
 80057f8:	682a      	ldr	r2, [r5, #0]
 80057fa:	f8d4 e048 	ldr.w	lr, [r4, #72]	; 0x48
 80057fe:	eba2 030e 	sub.w	r3, r2, lr
 8005802:	2b00      	cmp	r3, #0
 8005804:	f300 811a 	bgt.w	8005a3c <tcp_receive+0x2bc>
      pcb->acked = 0;
 8005808:	2300      	movs	r3, #0
 800580a:	f8a4 3064 	strh.w	r3, [r4, #100]	; 0x64
      /* Clause 2 */
      if (tcplen == 0) {
 800580e:	4b89      	ldr	r3, [pc, #548]	; (8005a34 <tcp_receive+0x2b4>)
 8005810:	881b      	ldrh	r3, [r3, #0]
 8005812:	2b00      	cmp	r3, #0
 8005814:	f040 838f 	bne.w	8005f36 <tcp_receive+0x7b6>
        /* Clause 3 */
        if (pcb->snd_wl2 + pcb->snd_wnd == right_wnd_edge){
 8005818:	f8b4 3060 	ldrh.w	r3, [r4, #96]	; 0x60
 800581c:	6da0      	ldr	r0, [r4, #88]	; 0x58
    right_wnd_edge = pcb->snd_wnd + pcb->snd_wl2;
 800581e:	4439      	add	r1, r7
        if (pcb->snd_wl2 + pcb->snd_wnd == right_wnd_edge){
 8005820:	4403      	add	r3, r0
 8005822:	4299      	cmp	r1, r3
 8005824:	f040 8387 	bne.w	8005f36 <tcp_receive+0x7b6>
          /* Clause 4 */
          if (pcb->rtime >= 0) {
 8005828:	f9b4 3034 	ldrsh.w	r3, [r4, #52]	; 0x34
 800582c:	2b00      	cmp	r3, #0
 800582e:	f2c0 8382 	blt.w	8005f36 <tcp_receive+0x7b6>
            /* Clause 5 */
            if (pcb->lastack == ackno) {
 8005832:	4572      	cmp	r2, lr
 8005834:	f040 837f 	bne.w	8005f36 <tcp_receive+0x7b6>
              found_dupack = 1;
              if ((u8_t)(pcb->dupacks + 1) > pcb->dupacks) {
 8005838:	f894 2047 	ldrb.w	r2, [r4, #71]	; 0x47
 800583c:	1c53      	adds	r3, r2, #1
 800583e:	b2db      	uxtb	r3, r3
 8005840:	429a      	cmp	r2, r3
                ++pcb->dupacks;
 8005842:	bf38      	it	cc
 8005844:	f884 3047 	strbcc.w	r3, [r4, #71]	; 0x47
              }
              if (pcb->dupacks > 3) {
 8005848:	f894 3047 	ldrb.w	r3, [r4, #71]	; 0x47
 800584c:	2b03      	cmp	r3, #3
 800584e:	f240 80e3 	bls.w	8005a18 <tcp_receive+0x298>
                /* Inflate the congestion window, but not if it means that
                   the value overflows. */
                if ((u16_t)(pcb->cwnd + pcb->mss) > pcb->cwnd) {
 8005852:	f8b4 204c 	ldrh.w	r2, [r4, #76]	; 0x4c
 8005856:	8ee3      	ldrh	r3, [r4, #54]	; 0x36
 8005858:	4413      	add	r3, r2
 800585a:	b29b      	uxth	r3, r3
 800585c:	429a      	cmp	r2, r3
 800585e:	d201      	bcs.n	8005864 <tcp_receive+0xe4>
                  pcb->cwnd += pcb->mss;
 8005860:	f8a4 304c 	strh.w	r3, [r4, #76]	; 0x4c
       on the list are acknowledged by the ACK. This may seem
       strange since an "unsent" segment shouldn't be acked. The
       rationale is that lwIP puts all outstanding segments on the
       ->unsent list after a retransmission, so these segments may
       in fact have been sent once. */
    while (pcb->unsent != NULL &&
 8005864:	6ee3      	ldr	r3, [r4, #108]	; 0x6c
 8005866:	2b00      	cmp	r3, #0
 8005868:	f040 8166 	bne.w	8005b38 <tcp_receive+0x3b8>
                                pcb->rttest, pcb->rtseq, ackno));

    /* RTT estimation calculations. This is done by checking if the
       incoming segment acknowledges the segment we use to take a
       round-trip time measurement. */
    if (pcb->rttest && TCP_SEQ_LT(pcb->rtseq, ackno)) {
 800586c:	6ba2      	ldr	r2, [r4, #56]	; 0x38
 800586e:	2a00      	cmp	r2, #0
 8005870:	f040 81a4 	bne.w	8005bbc <tcp_receive+0x43c>

  /* If the incoming segment contains data, we must process it
     further unless the pcb already received a FIN.
     (RFC 793, chapeter 3.9, "SEGMENT ARRIVES" in states CLOSE-WAIT, CLOSING,
     LAST-ACK and TIME-WAIT: "Ignore the segment text.") */
  if ((tcplen > 0) && (pcb->state < CLOSE_WAIT)) {
 8005874:	4f6f      	ldr	r7, [pc, #444]	; (8005a34 <tcp_receive+0x2b4>)
 8005876:	6aa2      	ldr	r2, [r4, #40]	; 0x28
 8005878:	8838      	ldrh	r0, [r7, #0]
 800587a:	2800      	cmp	r0, #0
 800587c:	f000 834f 	beq.w	8005f1e <tcp_receive+0x79e>
 8005880:	7e23      	ldrb	r3, [r4, #24]
 8005882:	2b06      	cmp	r3, #6
 8005884:	f200 834b 	bhi.w	8005f1e <tcp_receive+0x79e>
       this if the sequence number of the incoming segment is less
       than rcv_nxt, and the sequence number plus the length of the
       segment is larger than rcv_nxt. */
    /*    if (TCP_SEQ_LT(seqno, pcb->rcv_nxt)){
          if (TCP_SEQ_LT(pcb->rcv_nxt, seqno + tcplen)) {*/
    if (TCP_SEQ_BETWEEN(pcb->rcv_nxt, seqno + 1, seqno + tcplen - 1)){
 8005888:	6833      	ldr	r3, [r6, #0]
 800588a:	eba2 0e03 	sub.w	lr, r2, r3
 800588e:	f1be 0f01 	cmp.w	lr, #1
 8005892:	f100 81c2 	bmi.w	8005c1a <tcp_receive+0x49a>
 8005896:	f1c3 0101 	rsb	r1, r3, #1
 800589a:	1a09      	subs	r1, r1, r0
 800589c:	4411      	add	r1, r2
 800589e:	2900      	cmp	r1, #0
 80058a0:	f300 81bb 	bgt.w	8005c1a <tcp_receive+0x49a>
         After we are done with adjusting the pbuf pointers we must
         adjust the ->data pointer in the seg and the segment
         length.*/

      off = pcb->rcv_nxt - seqno;
      p = inseg.p;
 80058a4:	4d64      	ldr	r5, [pc, #400]	; (8005a38 <tcp_receive+0x2b8>)
 80058a6:	6868      	ldr	r0, [r5, #4]
      LWIP_ASSERT("inseg.p != NULL", inseg.p);
      LWIP_ASSERT("insane offset!", (off < 0x7fff));
      if (inseg.p->len < off) {
 80058a8:	8943      	ldrh	r3, [r0, #10]
 80058aa:	459e      	cmp	lr, r3
      off = pcb->rcv_nxt - seqno;
 80058ac:	4671      	mov	r1, lr
      if (inseg.p->len < off) {
 80058ae:	f340 81b1 	ble.w	8005c14 <tcp_receive+0x494>
        LWIP_ASSERT("pbuf too short!", (((s32_t)inseg.p->tot_len) >= off));
        new_tot_len = (u16_t)(inseg.p->tot_len - off);
 80058b2:	8903      	ldrh	r3, [r0, #8]
 80058b4:	1a5b      	subs	r3, r3, r1
 80058b6:	b29b      	uxth	r3, r3
          off -= p->len;
          /* KJM following line changed (with addition of new_tot_len var)
             to fix bug #9076
             inseg.p->tot_len -= p->len; */
          p->tot_len = new_tot_len;
          p->len = 0;
 80058b8:	f04f 0e00 	mov.w	lr, #0
        while (p->len < off) {
 80058bc:	8942      	ldrh	r2, [r0, #10]
 80058be:	4291      	cmp	r1, r2
 80058c0:	f300 81a2 	bgt.w	8005c08 <tcp_receive+0x488>
          p = p->next;
        }
        if(pbuf_header(p, (s16_t)-off)) {
 80058c4:	4249      	negs	r1, r1
          /* Do we need to cope with this failing?  Assert for now */
          LWIP_ASSERT("pbuf_header failed", 0);
        }
      } else {
        if(pbuf_header(inseg.p, (s16_t)-off)) {
 80058c6:	b209      	sxth	r1, r1
 80058c8:	f7ff f8d0 	bl	8004a6c <pbuf_header>
          /* Do we need to cope with this failing?  Assert for now */
          LWIP_ASSERT("pbuf_header failed", 0);
        }
      }
      inseg.len -= (u16_t)(pcb->rcv_nxt - seqno);
 80058cc:	8929      	ldrh	r1, [r5, #8]
 80058ce:	6833      	ldr	r3, [r6, #0]
 80058d0:	6aa2      	ldr	r2, [r4, #40]	; 0x28
      inseg.tcphdr->seqno = seqno = pcb->rcv_nxt;
 80058d2:	6032      	str	r2, [r6, #0]
      inseg.len -= (u16_t)(pcb->rcv_nxt - seqno);
 80058d4:	440b      	add	r3, r1
 80058d6:	1a9b      	subs	r3, r3, r2
 80058d8:	812b      	strh	r3, [r5, #8]
      inseg.tcphdr->seqno = seqno = pcb->rcv_nxt;
 80058da:	68eb      	ldr	r3, [r5, #12]
 80058dc:	605a      	str	r2, [r3, #4]
    }

    /* The sequence number must be within the window (above rcv_nxt
       and below rcv_nxt + rcv_wnd) in order to be further
       processed. */
    if (TCP_SEQ_BETWEEN(seqno, pcb->rcv_nxt, 
 80058de:	6831      	ldr	r1, [r6, #0]
 80058e0:	6aa2      	ldr	r2, [r4, #40]	; 0x28
 80058e2:	1a8b      	subs	r3, r1, r2
 80058e4:	2b00      	cmp	r3, #0
 80058e6:	f2c0 8315 	blt.w	8005f14 <tcp_receive+0x794>
 80058ea:	1c4b      	adds	r3, r1, #1
 80058ec:	8da0      	ldrh	r0, [r4, #44]	; 0x2c
 80058ee:	1a9b      	subs	r3, r3, r2
 80058f0:	1a1b      	subs	r3, r3, r0
 80058f2:	2b00      	cmp	r3, #0
 80058f4:	f300 830e 	bgt.w	8005f14 <tcp_receive+0x794>
                        pcb->rcv_nxt + pcb->rcv_wnd - 1)){
      if (pcb->rcv_nxt == seqno) {
 80058f8:	4291      	cmp	r1, r2
 80058fa:	f040 8242 	bne.w	8005d82 <tcp_receive+0x602>
        /* The incoming segment is the next in sequence. We check if
           we have to trim the end of the segment and update rcv_nxt
           and pass the data to the application. */
        tcplen = TCP_TCPLEN(&inseg);
 80058fe:	4d4e      	ldr	r5, [pc, #312]	; (8005a38 <tcp_receive+0x2b8>)
 8005900:	68eb      	ldr	r3, [r5, #12]
 8005902:	f8b5 8008 	ldrh.w	r8, [r5, #8]
 8005906:	8998      	ldrh	r0, [r3, #12]
 8005908:	f7fd ff93 	bl	8003832 <lwip_ntohs>
 800590c:	f010 0003 	ands.w	r0, r0, #3
 8005910:	bf18      	it	ne
 8005912:	2001      	movne	r0, #1
 8005914:	4440      	add	r0, r8

        if (tcplen > pcb->rcv_wnd) {
 8005916:	8da3      	ldrh	r3, [r4, #44]	; 0x2c
        tcplen = TCP_TCPLEN(&inseg);
 8005918:	b280      	uxth	r0, r0
        if (tcplen > pcb->rcv_wnd) {
 800591a:	4283      	cmp	r3, r0
        tcplen = TCP_TCPLEN(&inseg);
 800591c:	8038      	strh	r0, [r7, #0]
        if (tcplen > pcb->rcv_wnd) {
 800591e:	d234      	bcs.n	800598a <tcp_receive+0x20a>
          LWIP_DEBUGF(TCP_INPUT_DEBUG, 
                      ("tcp_receive: other end overran receive window"
                       "seqno %"U32_F" len %"U16_F" right edge %"U32_F"\n",
                       seqno, tcplen, pcb->rcv_nxt + pcb->rcv_wnd));
          if (TCPH_FLAGS(inseg.tcphdr) & TCP_FIN) {
 8005920:	68eb      	ldr	r3, [r5, #12]
 8005922:	8998      	ldrh	r0, [r3, #12]
 8005924:	f7fd ff85 	bl	8003832 <lwip_ntohs>
 8005928:	07c2      	lsls	r2, r0, #31
 800592a:	d510      	bpl.n	800594e <tcp_receive+0x1ce>
            /* Must remove the FIN from the header as we're trimming 
             * that byte of sequence-space from the packet */
            TCPH_FLAGS_SET(inseg.tcphdr, TCPH_FLAGS(inseg.tcphdr) &~ TCP_FIN);
 800592c:	f8d5 900c 	ldr.w	r9, [r5, #12]
 8005930:	f8b9 800c 	ldrh.w	r8, [r9, #12]
 8005934:	4640      	mov	r0, r8
 8005936:	f7fd ff7c 	bl	8003832 <lwip_ntohs>
 800593a:	f000 003e 	and.w	r0, r0, #62	; 0x3e
 800593e:	f7fd ff75 	bl	800382c <lwip_htons>
 8005942:	f428 587c 	bic.w	r8, r8, #16128	; 0x3f00
 8005946:	ea48 0800 	orr.w	r8, r8, r0
 800594a:	f8a9 800c 	strh.w	r8, [r9, #12]
          }
          /* Adjust length of segment to fit in the window. */
          inseg.len = pcb->rcv_wnd;
 800594e:	8da3      	ldrh	r3, [r4, #44]	; 0x2c
 8005950:	812b      	strh	r3, [r5, #8]
          if (TCPH_FLAGS(inseg.tcphdr) & TCP_SYN) {
 8005952:	68eb      	ldr	r3, [r5, #12]
 8005954:	8998      	ldrh	r0, [r3, #12]
 8005956:	f7fd ff6c 	bl	8003832 <lwip_ntohs>
 800595a:	0783      	lsls	r3, r0, #30
            inseg.len -= 1;
 800595c:	bf48      	it	mi
 800595e:	892b      	ldrhmi	r3, [r5, #8]
          }
          pbuf_realloc(inseg.p, inseg.len);
 8005960:	6868      	ldr	r0, [r5, #4]
            inseg.len -= 1;
 8005962:	bf44      	itt	mi
 8005964:	f103 33ff 	addmi.w	r3, r3, #4294967295
 8005968:	812b      	strhmi	r3, [r5, #8]
          pbuf_realloc(inseg.p, inseg.len);
 800596a:	8929      	ldrh	r1, [r5, #8]
 800596c:	f7ff f95c 	bl	8004c28 <pbuf_realloc>
          tcplen = TCP_TCPLEN(&inseg);
 8005970:	68eb      	ldr	r3, [r5, #12]
 8005972:	f8b5 8008 	ldrh.w	r8, [r5, #8]
 8005976:	8998      	ldrh	r0, [r3, #12]
 8005978:	f7fd ff5b 	bl	8003832 <lwip_ntohs>
 800597c:	f010 0003 	ands.w	r0, r0, #3
 8005980:	bf18      	it	ne
 8005982:	2001      	movne	r0, #1
 8005984:	4480      	add	r8, r0
 8005986:	f8a7 8000 	strh.w	r8, [r7]
        }
#if TCP_QUEUE_OOSEQ
        /* Received in-sequence data, adjust ooseq data if:
           - FIN has been received or
           - inseq overlaps with ooseq */
        if (pcb->ooseq != NULL) {
 800598a:	6f63      	ldr	r3, [r4, #116]	; 0x74
 800598c:	2b00      	cmp	r3, #0
 800598e:	f000 8153 	beq.w	8005c38 <tcp_receive+0x4b8>
          if (TCPH_FLAGS(inseg.tcphdr) & TCP_FIN) {
 8005992:	68eb      	ldr	r3, [r5, #12]
 8005994:	8998      	ldrh	r0, [r3, #12]
 8005996:	f7fd ff4c 	bl	8003832 <lwip_ntohs>
 800599a:	07c0      	lsls	r0, r0, #31
 800599c:	f100 8149 	bmi.w	8005c32 <tcp_receive+0x4b2>
              struct tcp_seg *old_ooseq = pcb->ooseq;
              pcb->ooseq = pcb->ooseq->next;
              tcp_seg_free(old_ooseq);
            }
          } else {
            next = pcb->ooseq;
 80059a0:	f8d4 8074 	ldr.w	r8, [r4, #116]	; 0x74
            /* Remove all segments on ooseq that are covered by inseg already.
             * FIN is copied from ooseq to inseg if present. */
            while (next &&
 80059a4:	f1b8 0f00 	cmp.w	r8, #0
 80059a8:	d02e      	beq.n	8005a08 <tcp_receive+0x288>
                   TCP_SEQ_GEQ(seqno + tcplen,
 80059aa:	f8d8 e00c 	ldr.w	lr, [r8, #12]
 80059ae:	6830      	ldr	r0, [r6, #0]
 80059b0:	883b      	ldrh	r3, [r7, #0]
 80059b2:	f8de 2004 	ldr.w	r2, [lr, #4]
 80059b6:	f8b8 1008 	ldrh.w	r1, [r8, #8]
 80059ba:	4403      	add	r3, r0
 80059bc:	4411      	add	r1, r2
 80059be:	1a59      	subs	r1, r3, r1
            while (next &&
 80059c0:	2900      	cmp	r1, #0
 80059c2:	f280 8169 	bge.w	8005c98 <tcp_receive+0x518>
              tcp_seg_free(prev);
            }
            /* Now trim right side of inseg if it overlaps with the first
             * segment on ooseq */
            if (next &&
                TCP_SEQ_GT(seqno + tcplen,
 80059c6:	1a9b      	subs	r3, r3, r2
            if (next &&
 80059c8:	2b00      	cmp	r3, #0
 80059ca:	dd1d      	ble.n	8005a08 <tcp_receive+0x288>
                           next->tcphdr->seqno)) {
              /* inseg cannot have FIN here (already processed above) */
              inseg.len = (u16_t)(next->tcphdr->seqno - seqno);
              if (TCPH_FLAGS(inseg.tcphdr) & TCP_SYN) {
 80059cc:	68eb      	ldr	r3, [r5, #12]
              inseg.len = (u16_t)(next->tcphdr->seqno - seqno);
 80059ce:	1a12      	subs	r2, r2, r0
 80059d0:	812a      	strh	r2, [r5, #8]
              if (TCPH_FLAGS(inseg.tcphdr) & TCP_SYN) {
 80059d2:	8998      	ldrh	r0, [r3, #12]
 80059d4:	f7fd ff2d 	bl	8003832 <lwip_ntohs>
 80059d8:	0783      	lsls	r3, r0, #30
                inseg.len -= 1;
 80059da:	bf48      	it	mi
 80059dc:	892b      	ldrhmi	r3, [r5, #8]
              }
              pbuf_realloc(inseg.p, inseg.len);
 80059de:	6868      	ldr	r0, [r5, #4]
                inseg.len -= 1;
 80059e0:	bf44      	itt	mi
 80059e2:	f103 33ff 	addmi.w	r3, r3, #4294967295
 80059e6:	812b      	strhmi	r3, [r5, #8]
              pbuf_realloc(inseg.p, inseg.len);
 80059e8:	8929      	ldrh	r1, [r5, #8]
 80059ea:	f7ff f91d 	bl	8004c28 <pbuf_realloc>
              tcplen = TCP_TCPLEN(&inseg);
 80059ee:	68eb      	ldr	r3, [r5, #12]
 80059f0:	f8b5 9008 	ldrh.w	r9, [r5, #8]
 80059f4:	8998      	ldrh	r0, [r3, #12]
 80059f6:	f7fd ff1c 	bl	8003832 <lwip_ntohs>
 80059fa:	f010 0003 	ands.w	r0, r0, #3
 80059fe:	bf18      	it	ne
 8005a00:	2001      	movne	r0, #1
 8005a02:	4481      	add	r9, r0
 8005a04:	f8a7 9000 	strh.w	r9, [r7]
              LWIP_ASSERT("tcp_receive: segment not trimmed correctly to ooseq queue\n",
                          (seqno + tcplen) == next->tcphdr->seqno);
            }
            pcb->ooseq = next;
 8005a08:	f8c4 8074 	str.w	r8, [r4, #116]	; 0x74
 8005a0c:	e114      	b.n	8005c38 <tcp_receive+0x4b8>
      } else if (pcb->persist_backoff > 0) {
 8005a0e:	2a00      	cmp	r2, #0
 8005a10:	f43f aef2 	beq.w	80057f8 <tcp_receive+0x78>
          pcb->persist_backoff = 0;
 8005a14:	2300      	movs	r3, #0
 8005a16:	e6ed      	b.n	80057f4 <tcp_receive+0x74>
              } else if (pcb->dupacks == 3) {
 8005a18:	f47f af24 	bne.w	8005864 <tcp_receive+0xe4>
                tcp_rexmit_fast(pcb);
 8005a1c:	4620      	mov	r0, r4
 8005a1e:	f001 fa3f 	bl	8006ea0 <tcp_rexmit_fast>
 8005a22:	e71f      	b.n	8005864 <tcp_receive+0xe4>
 8005a24:	2000719c 	.word	0x2000719c
 8005a28:	200071b8 	.word	0x200071b8
 8005a2c:	20007198 	.word	0x20007198
 8005a30:	200071bc 	.word	0x200071bc
 8005a34:	200071c0 	.word	0x200071c0
 8005a38:	200071a0 	.word	0x200071a0
    } else if (TCP_SEQ_BETWEEN(ackno, pcb->lastack+1, pcb->snd_nxt)){
 8005a3c:	6d21      	ldr	r1, [r4, #80]	; 0x50
 8005a3e:	1a51      	subs	r1, r2, r1
 8005a40:	2900      	cmp	r1, #0
 8005a42:	dc75      	bgt.n	8005b30 <tcp_receive+0x3b0>
      if (pcb->flags & TF_INFR) {
 8005a44:	7fa1      	ldrb	r1, [r4, #30]
      pcb->rto = (pcb->sa >> 3) + pcb->sv;
 8005a46:	f9b4 e040 	ldrsh.w	lr, [r4, #64]	; 0x40
      pcb->lastack = ackno;
 8005a4a:	64a2      	str	r2, [r4, #72]	; 0x48
      if (pcb->flags & TF_INFR) {
 8005a4c:	074f      	lsls	r7, r1, #29
        pcb->flags &= ~TF_INFR;
 8005a4e:	bf41      	itttt	mi
 8005a50:	f021 0104 	bicmi.w	r1, r1, #4
 8005a54:	77a1      	strbmi	r1, [r4, #30]
        pcb->cwnd = pcb->ssthresh;
 8005a56:	f8b4 104e 	ldrhmi.w	r1, [r4, #78]	; 0x4e
 8005a5a:	f8a4 104c 	strhmi.w	r1, [r4, #76]	; 0x4c
      pcb->rto = (pcb->sa >> 3) + pcb->sv;
 8005a5e:	f8b4 1042 	ldrh.w	r1, [r4, #66]	; 0x42
 8005a62:	eb01 01ee 	add.w	r1, r1, lr, asr #3
 8005a66:	f8a4 1044 	strh.w	r1, [r4, #68]	; 0x44
      pcb->snd_buf += pcb->acked;
 8005a6a:	f8b4 1066 	ldrh.w	r1, [r4, #102]	; 0x66
      pcb->acked = (u16_t)(ackno - pcb->lastack);
 8005a6e:	b29b      	uxth	r3, r3
      pcb->nrtx = 0;
 8005a70:	2700      	movs	r7, #0
      pcb->acked = (u16_t)(ackno - pcb->lastack);
 8005a72:	f8a4 3064 	strh.w	r3, [r4, #100]	; 0x64
      if (pcb->state >= ESTABLISHED) {
 8005a76:	2803      	cmp	r0, #3
      pcb->snd_buf += pcb->acked;
 8005a78:	440b      	add	r3, r1
      pcb->nrtx = 0;
 8005a7a:	f884 7046 	strb.w	r7, [r4, #70]	; 0x46
      pcb->snd_buf += pcb->acked;
 8005a7e:	f8a4 3066 	strh.w	r3, [r4, #102]	; 0x66
      pcb->dupacks = 0;
 8005a82:	f884 7047 	strb.w	r7, [r4, #71]	; 0x47
      if (pcb->state >= ESTABLISHED) {
 8005a86:	d90f      	bls.n	8005aa8 <tcp_receive+0x328>
        if (pcb->cwnd < pcb->ssthresh) {
 8005a88:	f8b4 204c 	ldrh.w	r2, [r4, #76]	; 0x4c
 8005a8c:	f8b4 304e 	ldrh.w	r3, [r4, #78]	; 0x4e
 8005a90:	4293      	cmp	r3, r2
          if ((u16_t)(pcb->cwnd + pcb->mss) > pcb->cwnd) {
 8005a92:	8ee3      	ldrh	r3, [r4, #54]	; 0x36
          u16_t new_cwnd = (pcb->cwnd + pcb->mss * pcb->mss / pcb->cwnd);
 8005a94:	bf9c      	itt	ls
 8005a96:	435b      	mulls	r3, r3
 8005a98:	fb93 f3f2 	sdivls	r3, r3, r2
 8005a9c:	4413      	add	r3, r2
 8005a9e:	b29b      	uxth	r3, r3
          if (new_cwnd > pcb->cwnd) {
 8005aa0:	429a      	cmp	r2, r3
 8005aa2:	d201      	bcs.n	8005aa8 <tcp_receive+0x328>
            pcb->cwnd = new_cwnd;
 8005aa4:	f8a4 304c 	strh.w	r3, [r4, #76]	; 0x4c
      while (pcb->unacked != NULL &&
 8005aa8:	6f23      	ldr	r3, [r4, #112]	; 0x70
 8005aaa:	b943      	cbnz	r3, 8005abe <tcp_receive+0x33e>
      if(pcb->unacked == NULL)
 8005aac:	6f22      	ldr	r2, [r4, #112]	; 0x70
 8005aae:	2300      	movs	r3, #0
 8005ab0:	2a00      	cmp	r2, #0
 8005ab2:	d13b      	bne.n	8005b2c <tcp_receive+0x3ac>
        pcb->rtime = -1;
 8005ab4:	f64f 72ff 	movw	r2, #65535	; 0xffff
 8005ab8:	86a2      	strh	r2, [r4, #52]	; 0x34
      pcb->polltmr = 0;
 8005aba:	77e3      	strb	r3, [r4, #31]
 8005abc:	e6d2      	b.n	8005864 <tcp_receive+0xe4>
             TCP_SEQ_LEQ(ntohl(pcb->unacked->tcphdr->seqno) +
 8005abe:	68db      	ldr	r3, [r3, #12]
 8005ac0:	6858      	ldr	r0, [r3, #4]
 8005ac2:	f7fd febb 	bl	800383c <lwip_ntohl>
 8005ac6:	6f23      	ldr	r3, [r4, #112]	; 0x70
 8005ac8:	f8b3 8008 	ldrh.w	r8, [r3, #8]
 8005acc:	68db      	ldr	r3, [r3, #12]
 8005ace:	4607      	mov	r7, r0
 8005ad0:	8998      	ldrh	r0, [r3, #12]
 8005ad2:	f7fd feae 	bl	8003832 <lwip_ntohs>
 8005ad6:	682b      	ldr	r3, [r5, #0]
 8005ad8:	f010 0003 	ands.w	r0, r0, #3
 8005adc:	bf18      	it	ne
 8005ade:	2001      	movne	r0, #1
 8005ae0:	4440      	add	r0, r8
 8005ae2:	1aff      	subs	r7, r7, r3
 8005ae4:	4438      	add	r0, r7
      while (pcb->unacked != NULL &&
 8005ae6:	2800      	cmp	r0, #0
 8005ae8:	dce0      	bgt.n	8005aac <tcp_receive+0x32c>
        next = pcb->unacked;
 8005aea:	6f27      	ldr	r7, [r4, #112]	; 0x70
        pcb->unacked = pcb->unacked->next;
 8005aec:	683b      	ldr	r3, [r7, #0]
 8005aee:	6723      	str	r3, [r4, #112]	; 0x70
        LWIP_ASSERT("pcb->snd_queuelen >= pbuf_clen(next->p)", (pcb->snd_queuelen >= pbuf_clen(next->p)));
 8005af0:	6878      	ldr	r0, [r7, #4]
 8005af2:	f7ff f8bf 	bl	8004c74 <pbuf_clen>
        if ((pcb->acked != 0) && ((TCPH_FLAGS(next->tcphdr) & TCP_FIN) != 0)) {
 8005af6:	f8b4 3064 	ldrh.w	r3, [r4, #100]	; 0x64
 8005afa:	b15b      	cbz	r3, 8005b14 <tcp_receive+0x394>
 8005afc:	68fb      	ldr	r3, [r7, #12]
 8005afe:	8998      	ldrh	r0, [r3, #12]
 8005b00:	f7fd fe97 	bl	8003832 <lwip_ntohs>
 8005b04:	07c0      	lsls	r0, r0, #31
          pcb->acked--;
 8005b06:	bf42      	ittt	mi
 8005b08:	f8b4 3064 	ldrhmi.w	r3, [r4, #100]	; 0x64
 8005b0c:	f103 33ff 	addmi.w	r3, r3, #4294967295
 8005b10:	f8a4 3064 	strhmi.w	r3, [r4, #100]	; 0x64
        pcb->snd_queuelen -= pbuf_clen(next->p);
 8005b14:	6878      	ldr	r0, [r7, #4]
 8005b16:	f7ff f8ad 	bl	8004c74 <pbuf_clen>
 8005b1a:	f8b4 3068 	ldrh.w	r3, [r4, #104]	; 0x68
 8005b1e:	1a18      	subs	r0, r3, r0
 8005b20:	f8a4 0068 	strh.w	r0, [r4, #104]	; 0x68
        tcp_seg_free(next);
 8005b24:	4638      	mov	r0, r7
 8005b26:	f7ff f9bb 	bl	8004ea0 <tcp_seg_free>
 8005b2a:	e7bd      	b.n	8005aa8 <tcp_receive+0x328>
        pcb->rtime = 0;
 8005b2c:	86a3      	strh	r3, [r4, #52]	; 0x34
 8005b2e:	e7c4      	b.n	8005aba <tcp_receive+0x33a>
      pcb->acked = 0;
 8005b30:	2300      	movs	r3, #0
 8005b32:	f8a4 3064 	strh.w	r3, [r4, #100]	; 0x64
 8005b36:	e695      	b.n	8005864 <tcp_receive+0xe4>
           TCP_SEQ_BETWEEN(ackno, ntohl(pcb->unsent->tcphdr->seqno) + 
 8005b38:	68db      	ldr	r3, [r3, #12]
 8005b3a:	682f      	ldr	r7, [r5, #0]
 8005b3c:	6858      	ldr	r0, [r3, #4]
 8005b3e:	f7fd fe7d 	bl	800383c <lwip_ntohl>
 8005b42:	6ee3      	ldr	r3, [r4, #108]	; 0x6c
 8005b44:	f8b3 8008 	ldrh.w	r8, [r3, #8]
 8005b48:	68db      	ldr	r3, [r3, #12]
 8005b4a:	4681      	mov	r9, r0
 8005b4c:	8998      	ldrh	r0, [r3, #12]
 8005b4e:	f7fd fe70 	bl	8003832 <lwip_ntohs>
 8005b52:	f010 0003 	ands.w	r0, r0, #3
 8005b56:	bf18      	it	ne
 8005b58:	2001      	movne	r0, #1
 8005b5a:	eba7 0709 	sub.w	r7, r7, r9
 8005b5e:	4440      	add	r0, r8
 8005b60:	1a3f      	subs	r7, r7, r0
    while (pcb->unsent != NULL &&
 8005b62:	2f00      	cmp	r7, #0
 8005b64:	f6ff ae82 	blt.w	800586c <tcp_receive+0xec>
           TCP_SEQ_BETWEEN(ackno, ntohl(pcb->unsent->tcphdr->seqno) + 
 8005b68:	682b      	ldr	r3, [r5, #0]
 8005b6a:	6d22      	ldr	r2, [r4, #80]	; 0x50
 8005b6c:	1a9b      	subs	r3, r3, r2
 8005b6e:	2b00      	cmp	r3, #0
 8005b70:	f73f ae7c 	bgt.w	800586c <tcp_receive+0xec>
      next = pcb->unsent;
 8005b74:	6ee7      	ldr	r7, [r4, #108]	; 0x6c
      pcb->unsent = pcb->unsent->next;
 8005b76:	683b      	ldr	r3, [r7, #0]
 8005b78:	66e3      	str	r3, [r4, #108]	; 0x6c
      if (pcb->unsent == NULL) {
 8005b7a:	b90b      	cbnz	r3, 8005b80 <tcp_receive+0x400>
        pcb->unsent_oversize = 0;
 8005b7c:	f8a4 306a 	strh.w	r3, [r4, #106]	; 0x6a
      LWIP_ASSERT("pcb->snd_queuelen >= pbuf_clen(next->p)", (pcb->snd_queuelen >= pbuf_clen(next->p)));
 8005b80:	6878      	ldr	r0, [r7, #4]
 8005b82:	f7ff f877 	bl	8004c74 <pbuf_clen>
      if ((pcb->acked != 0) && ((TCPH_FLAGS(next->tcphdr) & TCP_FIN) != 0)) {
 8005b86:	f8b4 3064 	ldrh.w	r3, [r4, #100]	; 0x64
 8005b8a:	b15b      	cbz	r3, 8005ba4 <tcp_receive+0x424>
 8005b8c:	68fb      	ldr	r3, [r7, #12]
 8005b8e:	8998      	ldrh	r0, [r3, #12]
 8005b90:	f7fd fe4f 	bl	8003832 <lwip_ntohs>
 8005b94:	07c1      	lsls	r1, r0, #31
        pcb->acked--;
 8005b96:	bf42      	ittt	mi
 8005b98:	f8b4 3064 	ldrhmi.w	r3, [r4, #100]	; 0x64
 8005b9c:	f103 33ff 	addmi.w	r3, r3, #4294967295
 8005ba0:	f8a4 3064 	strhmi.w	r3, [r4, #100]	; 0x64
      pcb->snd_queuelen -= pbuf_clen(next->p);
 8005ba4:	6878      	ldr	r0, [r7, #4]
 8005ba6:	f7ff f865 	bl	8004c74 <pbuf_clen>
 8005baa:	f8b4 3068 	ldrh.w	r3, [r4, #104]	; 0x68
 8005bae:	1a18      	subs	r0, r3, r0
 8005bb0:	f8a4 0068 	strh.w	r0, [r4, #104]	; 0x68
      tcp_seg_free(next);
 8005bb4:	4638      	mov	r0, r7
 8005bb6:	f7ff f973 	bl	8004ea0 <tcp_seg_free>
 8005bba:	e653      	b.n	8005864 <tcp_receive+0xe4>
    if (pcb->rttest && TCP_SEQ_LT(pcb->rtseq, ackno)) {
 8005bbc:	6be3      	ldr	r3, [r4, #60]	; 0x3c
 8005bbe:	6829      	ldr	r1, [r5, #0]
 8005bc0:	1a5b      	subs	r3, r3, r1
 8005bc2:	2b00      	cmp	r3, #0
 8005bc4:	f6bf ae56 	bge.w	8005874 <tcp_receive+0xf4>
      m = (s16_t)(tcp_ticks - pcb->rttest);
 8005bc8:	4ba1      	ldr	r3, [pc, #644]	; (8005e50 <tcp_receive+0x6d0>)
      m = m - (pcb->sa >> 3);
 8005bca:	f9b4 0040 	ldrsh.w	r0, [r4, #64]	; 0x40
      m = (s16_t)(tcp_ticks - pcb->rttest);
 8005bce:	6819      	ldr	r1, [r3, #0]
 8005bd0:	1a89      	subs	r1, r1, r2
      m = m - (pcb->sa >> 3);
 8005bd2:	eba1 01e0 	sub.w	r1, r1, r0, asr #3
 8005bd6:	b289      	uxth	r1, r1
 8005bd8:	b20b      	sxth	r3, r1
      if (m < 0) {
 8005bda:	2b00      	cmp	r3, #0
      m = m - (pcb->sv >> 2);
 8005bdc:	f9b4 2042 	ldrsh.w	r2, [r4, #66]	; 0x42
      pcb->sa += m;
 8005be0:	4408      	add	r0, r1
        m = -m;
 8005be2:	bfbc      	itt	lt
 8005be4:	4249      	neglt	r1, r1
 8005be6:	b20b      	sxthlt	r3, r1
      pcb->sv += m;
 8005be8:	eba2 02a2 	sub.w	r2, r2, r2, asr #2
 8005bec:	4413      	add	r3, r2
      pcb->sa += m;
 8005bee:	b200      	sxth	r0, r0
      pcb->sv += m;
 8005bf0:	b29b      	uxth	r3, r3
 8005bf2:	f8a4 3042 	strh.w	r3, [r4, #66]	; 0x42
      pcb->rto = (pcb->sa >> 3) + pcb->sv;
 8005bf6:	eb03 03e0 	add.w	r3, r3, r0, asr #3
 8005bfa:	f8a4 3044 	strh.w	r3, [r4, #68]	; 0x44
      pcb->rttest = 0;
 8005bfe:	2300      	movs	r3, #0
      pcb->sa += m;
 8005c00:	f8a4 0040 	strh.w	r0, [r4, #64]	; 0x40
      pcb->rttest = 0;
 8005c04:	63a3      	str	r3, [r4, #56]	; 0x38
 8005c06:	e635      	b.n	8005874 <tcp_receive+0xf4>
          p->tot_len = new_tot_len;
 8005c08:	8103      	strh	r3, [r0, #8]
          p->len = 0;
 8005c0a:	f8a0 e00a 	strh.w	lr, [r0, #10]
          off -= p->len;
 8005c0e:	1a89      	subs	r1, r1, r2
          p = p->next;
 8005c10:	6800      	ldr	r0, [r0, #0]
 8005c12:	e653      	b.n	80058bc <tcp_receive+0x13c>
        if(pbuf_header(inseg.p, (s16_t)-off)) {
 8005c14:	f1ce 0100 	rsb	r1, lr, #0
 8005c18:	e655      	b.n	80058c6 <tcp_receive+0x146>
      if (TCP_SEQ_LT(seqno, pcb->rcv_nxt)){
 8005c1a:	1a9b      	subs	r3, r3, r2
 8005c1c:	2b00      	cmp	r3, #0
        tcp_ack_now(pcb);
 8005c1e:	bfbe      	ittt	lt
 8005c20:	7fa3      	ldrblt	r3, [r4, #30]
 8005c22:	f043 0302 	orrlt.w	r3, r3, #2
 8005c26:	77a3      	strblt	r3, [r4, #30]
 8005c28:	e659      	b.n	80058de <tcp_receive+0x15e>
              pcb->ooseq = pcb->ooseq->next;
 8005c2a:	6803      	ldr	r3, [r0, #0]
 8005c2c:	6763      	str	r3, [r4, #116]	; 0x74
              tcp_seg_free(old_ooseq);
 8005c2e:	f7ff f937 	bl	8004ea0 <tcp_seg_free>
            while (pcb->ooseq != NULL) {
 8005c32:	6f60      	ldr	r0, [r4, #116]	; 0x74
 8005c34:	2800      	cmp	r0, #0
 8005c36:	d1f8      	bne.n	8005c2a <tcp_receive+0x4aa>
          }
        }
#endif /* TCP_QUEUE_OOSEQ */

        pcb->rcv_nxt = seqno + tcplen;
 8005c38:	8839      	ldrh	r1, [r7, #0]

        /* Update the receiver's (our) window. */
        LWIP_ASSERT("tcp_receive: tcplen > rcv_wnd\n", pcb->rcv_wnd >= tcplen);
        pcb->rcv_wnd -= tcplen;
 8005c3a:	8da3      	ldrh	r3, [r4, #44]	; 0x2c
        pcb->rcv_nxt = seqno + tcplen;
 8005c3c:	6832      	ldr	r2, [r6, #0]
        pcb->rcv_wnd -= tcplen;
 8005c3e:	1a5b      	subs	r3, r3, r1
        pcb->rcv_nxt = seqno + tcplen;
 8005c40:	440a      	add	r2, r1
 8005c42:	62a2      	str	r2, [r4, #40]	; 0x28
        pcb->rcv_wnd -= tcplen;
 8005c44:	85a3      	strh	r3, [r4, #44]	; 0x2c

        tcp_update_rcv_ann_wnd(pcb);
 8005c46:	4620      	mov	r0, r4
 8005c48:	f7ff f8f4 	bl	8004e34 <tcp_update_rcv_ann_wnd>
           chains its data on this pbuf as well.

           If the segment was a FIN, we set the TF_GOT_FIN flag that will
           be used to indicate to the application that the remote side has
           closed its end of the connection. */
        if (inseg.p->tot_len > 0) {
 8005c4c:	686b      	ldr	r3, [r5, #4]
 8005c4e:	891a      	ldrh	r2, [r3, #8]
 8005c50:	b11a      	cbz	r2, 8005c5a <tcp_receive+0x4da>
          recv_data = inseg.p;
 8005c52:	4a80      	ldr	r2, [pc, #512]	; (8005e54 <tcp_receive+0x6d4>)
 8005c54:	6013      	str	r3, [r2, #0]
          /* Since this pbuf now is the responsibility of the
             application, we delete our reference to it so that we won't
             (mistakingly) deallocate it. */
          inseg.p = NULL;
 8005c56:	2300      	movs	r3, #0
 8005c58:	606b      	str	r3, [r5, #4]
        }
        if (TCPH_FLAGS(inseg.tcphdr) & TCP_FIN) {
 8005c5a:	68eb      	ldr	r3, [r5, #12]
          tcp_update_rcv_ann_wnd(pcb);

          if (cseg->p->tot_len > 0) {
            /* Chain this pbuf onto the pbuf that we will pass to
               the application. */
            if (recv_data) {
 8005c5c:	4f7d      	ldr	r7, [pc, #500]	; (8005e54 <tcp_receive+0x6d4>)
        if (TCPH_FLAGS(inseg.tcphdr) & TCP_FIN) {
 8005c5e:	8998      	ldrh	r0, [r3, #12]
            }
            cseg->p = NULL;
          }
          if (TCPH_FLAGS(cseg->tcphdr) & TCP_FIN) {
            LWIP_DEBUGF(TCP_INPUT_DEBUG, ("tcp_receive: dequeued FIN.\n"));
            recv_flags |= TF_GOT_FIN;
 8005c60:	f8df 81f4 	ldr.w	r8, [pc, #500]	; 8005e58 <tcp_receive+0x6d8>
        if (TCPH_FLAGS(inseg.tcphdr) & TCP_FIN) {
 8005c64:	f7fd fde5 	bl	8003832 <lwip_ntohs>
 8005c68:	07c5      	lsls	r5, r0, #31
          recv_flags |= TF_GOT_FIN;
 8005c6a:	bf41      	itttt	mi
 8005c6c:	4a7a      	ldrmi	r2, [pc, #488]	; (8005e58 <tcp_receive+0x6d8>)
 8005c6e:	7813      	ldrbmi	r3, [r2, #0]
 8005c70:	f043 0320 	orrmi.w	r3, r3, #32
 8005c74:	7013      	strbmi	r3, [r2, #0]
            cseg->p = NULL;
 8005c76:	f04f 0900 	mov.w	r9, #0
        while (pcb->ooseq != NULL &&
 8005c7a:	6f65      	ldr	r5, [r4, #116]	; 0x74
 8005c7c:	b125      	cbz	r5, 8005c88 <tcp_receive+0x508>
               pcb->ooseq->tcphdr->seqno == pcb->rcv_nxt) {
 8005c7e:	68e9      	ldr	r1, [r5, #12]
        while (pcb->ooseq != NULL &&
 8005c80:	6aa2      	ldr	r2, [r4, #40]	; 0x28
               pcb->ooseq->tcphdr->seqno == pcb->rcv_nxt) {
 8005c82:	684b      	ldr	r3, [r1, #4]
        while (pcb->ooseq != NULL &&
 8005c84:	4293      	cmp	r3, r2
 8005c86:	d032      	beq.n	8005cee <tcp_receive+0x56e>
        }
#endif /* TCP_QUEUE_OOSEQ */


        /* Acknowledge the segment(s). */
        tcp_ack(pcb);
 8005c88:	7fa3      	ldrb	r3, [r4, #30]
 8005c8a:	07d9      	lsls	r1, r3, #31
 8005c8c:	d574      	bpl.n	8005d78 <tcp_receive+0x5f8>
 8005c8e:	f023 0301 	bic.w	r3, r3, #1
    /* Segments with length 0 is taken care of here. Segments that
       fall out of the window are ACKed. */
    /*if (TCP_SEQ_GT(pcb->rcv_nxt, seqno) ||
      TCP_SEQ_GEQ(seqno, pcb->rcv_nxt + pcb->rcv_wnd)) {*/
    if(!TCP_SEQ_BETWEEN(seqno, pcb->rcv_nxt, pcb->rcv_nxt + pcb->rcv_wnd-1)){
      tcp_ack_now(pcb);
 8005c92:	f043 0302 	orr.w	r3, r3, #2
 8005c96:	e071      	b.n	8005d7c <tcp_receive+0x5fc>
              if (TCPH_FLAGS(next->tcphdr) & TCP_FIN &&
 8005c98:	f8be 000c 	ldrh.w	r0, [lr, #12]
 8005c9c:	f7fd fdc9 	bl	8003832 <lwip_ntohs>
 8005ca0:	07c1      	lsls	r1, r0, #31
 8005ca2:	d51d      	bpl.n	8005ce0 <tcp_receive+0x560>
                  (TCPH_FLAGS(inseg.tcphdr) & TCP_SYN) == 0) {
 8005ca4:	68eb      	ldr	r3, [r5, #12]
 8005ca6:	8998      	ldrh	r0, [r3, #12]
 8005ca8:	f7fd fdc3 	bl	8003832 <lwip_ntohs>
              if (TCPH_FLAGS(next->tcphdr) & TCP_FIN &&
 8005cac:	0782      	lsls	r2, r0, #30
 8005cae:	d417      	bmi.n	8005ce0 <tcp_receive+0x560>
                TCPH_SET_FLAG(inseg.tcphdr, TCP_FIN);
 8005cb0:	f8d5 a00c 	ldr.w	sl, [r5, #12]
 8005cb4:	2001      	movs	r0, #1
 8005cb6:	f8ba 900c 	ldrh.w	r9, [sl, #12]
 8005cba:	f7fd fdb7 	bl	800382c <lwip_htons>
                tcplen = TCP_TCPLEN(&inseg);
 8005cbe:	68eb      	ldr	r3, [r5, #12]
                TCPH_SET_FLAG(inseg.tcphdr, TCP_FIN);
 8005cc0:	ea49 0000 	orr.w	r0, r9, r0
 8005cc4:	f8aa 000c 	strh.w	r0, [sl, #12]
                tcplen = TCP_TCPLEN(&inseg);
 8005cc8:	8998      	ldrh	r0, [r3, #12]
 8005cca:	f8b5 9008 	ldrh.w	r9, [r5, #8]
 8005cce:	f7fd fdb0 	bl	8003832 <lwip_ntohs>
 8005cd2:	f010 0003 	ands.w	r0, r0, #3
 8005cd6:	bf18      	it	ne
 8005cd8:	2001      	movne	r0, #1
 8005cda:	4481      	add	r9, r0
 8005cdc:	f8a7 9000 	strh.w	r9, [r7]
              next = next->next;
 8005ce0:	f8d8 9000 	ldr.w	r9, [r8]
              tcp_seg_free(prev);
 8005ce4:	4640      	mov	r0, r8
 8005ce6:	f7ff f8db 	bl	8004ea0 <tcp_seg_free>
              next = next->next;
 8005cea:	46c8      	mov	r8, r9
 8005cec:	e65a      	b.n	80059a4 <tcp_receive+0x224>
          seqno = pcb->ooseq->tcphdr->seqno;
 8005cee:	6033      	str	r3, [r6, #0]
          pcb->rcv_nxt += TCP_TCPLEN(cseg);
 8005cf0:	8988      	ldrh	r0, [r1, #12]
 8005cf2:	f8b5 a008 	ldrh.w	sl, [r5, #8]
 8005cf6:	f7fd fd9c 	bl	8003832 <lwip_ntohs>
 8005cfa:	f010 0003 	ands.w	r0, r0, #3
 8005cfe:	bf18      	it	ne
 8005d00:	2001      	movne	r0, #1
 8005d02:	6aa3      	ldr	r3, [r4, #40]	; 0x28
 8005d04:	4450      	add	r0, sl
 8005d06:	4418      	add	r0, r3
          LWIP_ASSERT("tcp_receive: ooseq tcplen > rcv_wnd\n",
 8005d08:	68eb      	ldr	r3, [r5, #12]
          pcb->rcv_nxt += TCP_TCPLEN(cseg);
 8005d0a:	62a0      	str	r0, [r4, #40]	; 0x28
          LWIP_ASSERT("tcp_receive: ooseq tcplen > rcv_wnd\n",
 8005d0c:	8998      	ldrh	r0, [r3, #12]
 8005d0e:	f7fd fd90 	bl	8003832 <lwip_ntohs>
          pcb->rcv_wnd -= TCP_TCPLEN(cseg);
 8005d12:	68eb      	ldr	r3, [r5, #12]
 8005d14:	f8b5 a008 	ldrh.w	sl, [r5, #8]
 8005d18:	8998      	ldrh	r0, [r3, #12]
 8005d1a:	f7fd fd8a 	bl	8003832 <lwip_ntohs>
 8005d1e:	f010 0003 	ands.w	r0, r0, #3
 8005d22:	8da3      	ldrh	r3, [r4, #44]	; 0x2c
 8005d24:	bf18      	it	ne
 8005d26:	2001      	movne	r0, #1
 8005d28:	4450      	add	r0, sl
 8005d2a:	1a18      	subs	r0, r3, r0
 8005d2c:	85a0      	strh	r0, [r4, #44]	; 0x2c
          tcp_update_rcv_ann_wnd(pcb);
 8005d2e:	4620      	mov	r0, r4
 8005d30:	f7ff f880 	bl	8004e34 <tcp_update_rcv_ann_wnd>
          if (cseg->p->tot_len > 0) {
 8005d34:	6869      	ldr	r1, [r5, #4]
 8005d36:	890b      	ldrh	r3, [r1, #8]
 8005d38:	b12b      	cbz	r3, 8005d46 <tcp_receive+0x5c6>
            if (recv_data) {
 8005d3a:	6838      	ldr	r0, [r7, #0]
 8005d3c:	b1d0      	cbz	r0, 8005d74 <tcp_receive+0x5f4>
              pbuf_cat(recv_data, cseg->p);
 8005d3e:	f7fe ffa6 	bl	8004c8e <pbuf_cat>
            cseg->p = NULL;
 8005d42:	f8c5 9004 	str.w	r9, [r5, #4]
          if (TCPH_FLAGS(cseg->tcphdr) & TCP_FIN) {
 8005d46:	68eb      	ldr	r3, [r5, #12]
 8005d48:	8998      	ldrh	r0, [r3, #12]
 8005d4a:	f7fd fd72 	bl	8003832 <lwip_ntohs>
 8005d4e:	07c0      	lsls	r0, r0, #31
 8005d50:	d50a      	bpl.n	8005d68 <tcp_receive+0x5e8>
            recv_flags |= TF_GOT_FIN;
 8005d52:	f898 3000 	ldrb.w	r3, [r8]
 8005d56:	f043 0320 	orr.w	r3, r3, #32
 8005d5a:	f888 3000 	strb.w	r3, [r8]
            if (pcb->state == ESTABLISHED) { /* force passive close or we can move to active close */
 8005d5e:	7e23      	ldrb	r3, [r4, #24]
 8005d60:	2b04      	cmp	r3, #4
              pcb->state = CLOSE_WAIT;
 8005d62:	bf04      	itt	eq
 8005d64:	2307      	moveq	r3, #7
 8005d66:	7623      	strbeq	r3, [r4, #24]
          pcb->ooseq = cseg->next;
 8005d68:	682b      	ldr	r3, [r5, #0]
 8005d6a:	6763      	str	r3, [r4, #116]	; 0x74
          tcp_seg_free(cseg);
 8005d6c:	4628      	mov	r0, r5
 8005d6e:	f7ff f897 	bl	8004ea0 <tcp_seg_free>
 8005d72:	e782      	b.n	8005c7a <tcp_receive+0x4fa>
              recv_data = cseg->p;
 8005d74:	6039      	str	r1, [r7, #0]
 8005d76:	e7e4      	b.n	8005d42 <tcp_receive+0x5c2>
        tcp_ack(pcb);
 8005d78:	f043 0301 	orr.w	r3, r3, #1
      tcp_ack_now(pcb);
 8005d7c:	77a3      	strb	r3, [r4, #30]
    }
  }
}
 8005d7e:	e8bd 87f0 	ldmia.w	sp!, {r4, r5, r6, r7, r8, r9, sl, pc}
        tcp_send_empty_ack(pcb);
 8005d82:	4620      	mov	r0, r4
 8005d84:	f000 fe82 	bl	8006a8c <tcp_send_empty_ack>
        if (pcb->ooseq == NULL) {
 8005d88:	6f65      	ldr	r5, [r4, #116]	; 0x74
 8005d8a:	b92d      	cbnz	r5, 8005d98 <tcp_receive+0x618>
          pcb->ooseq = tcp_seg_copy(&inseg);
 8005d8c:	4833      	ldr	r0, [pc, #204]	; (8005e5c <tcp_receive+0x6dc>)
 8005d8e:	f7ff f89d 	bl	8004ecc <tcp_seg_copy>
 8005d92:	6760      	str	r0, [r4, #116]	; 0x74
 8005d94:	e8bd 87f0 	ldmia.w	sp!, {r4, r5, r6, r7, r8, r9, sl, pc}
            if (seqno == next->tcphdr->seqno) {
 8005d98:	6833      	ldr	r3, [r6, #0]
 8005d9a:	f04f 0800 	mov.w	r8, #0
 8005d9e:	f103 3eff 	add.w	lr, r3, #4294967295
 8005da2:	f103 0c01 	add.w	ip, r3, #1
 8005da6:	68e8      	ldr	r0, [r5, #12]
 8005da8:	6842      	ldr	r2, [r0, #4]
 8005daa:	429a      	cmp	r2, r3
 8005dac:	d118      	bne.n	8005de0 <tcp_receive+0x660>
              if (inseg.len > next->len) {
 8005dae:	482b      	ldr	r0, [pc, #172]	; (8005e5c <tcp_receive+0x6dc>)
 8005db0:	892b      	ldrh	r3, [r5, #8]
 8005db2:	8902      	ldrh	r2, [r0, #8]
 8005db4:	429a      	cmp	r2, r3
 8005db6:	f240 80c2 	bls.w	8005f3e <tcp_receive+0x7be>
                cseg = tcp_seg_copy(&inseg);
 8005dba:	f7ff f887 	bl	8004ecc <tcp_seg_copy>
                if (cseg != NULL) {
 8005dbe:	2800      	cmp	r0, #0
 8005dc0:	f000 80bd 	beq.w	8005f3e <tcp_receive+0x7be>
                  if (prev != NULL) {
 8005dc4:	f1b8 0f00 	cmp.w	r8, #0
 8005dc8:	d008      	beq.n	8005ddc <tcp_receive+0x65c>
                    prev->next = cseg;
 8005dca:	f8c8 0000 	str.w	r0, [r8]
                    tcp_oos_insert_segment(cseg, next);
 8005dce:	4629      	mov	r1, r5
}
 8005dd0:	e8bd 47f0 	ldmia.w	sp!, {r4, r5, r6, r7, r8, r9, sl, lr}
                    tcp_oos_insert_segment(cseg, next);
 8005dd4:	f7ff bc96 	b.w	8005704 <tcp_oos_insert_segment>
 8005dd8:	460d      	mov	r5, r1
 8005dda:	e7e4      	b.n	8005da6 <tcp_receive+0x626>
                    pcb->ooseq = cseg;
 8005ddc:	6760      	str	r0, [r4, #116]	; 0x74
 8005dde:	e7f6      	b.n	8005dce <tcp_receive+0x64e>
              if (prev == NULL) {
 8005de0:	f1b8 0f00 	cmp.w	r8, #0
 8005de4:	d10a      	bne.n	8005dfc <tcp_receive+0x67c>
                if (TCP_SEQ_LT(seqno, next->tcphdr->seqno)) {
 8005de6:	1a99      	subs	r1, r3, r2
 8005de8:	2900      	cmp	r1, #0
 8005dea:	da39      	bge.n	8005e60 <tcp_receive+0x6e0>
                  cseg = tcp_seg_copy(&inseg);
 8005dec:	481b      	ldr	r0, [pc, #108]	; (8005e5c <tcp_receive+0x6dc>)
 8005dee:	f7ff f86d 	bl	8004ecc <tcp_seg_copy>
                  if (cseg != NULL) {
 8005df2:	2800      	cmp	r0, #0
 8005df4:	f000 80a3 	beq.w	8005f3e <tcp_receive+0x7be>
                    pcb->ooseq = cseg;
 8005df8:	6760      	str	r0, [r4, #116]	; 0x74
 8005dfa:	e7e8      	b.n	8005dce <tcp_receive+0x64e>
                if (TCP_SEQ_BETWEEN(seqno, prev->tcphdr->seqno+1, next->tcphdr->seqno-1)) {
 8005dfc:	f8d8 100c 	ldr.w	r1, [r8, #12]
 8005e00:	6849      	ldr	r1, [r1, #4]
 8005e02:	ebae 0101 	sub.w	r1, lr, r1
 8005e06:	2900      	cmp	r1, #0
 8005e08:	db2a      	blt.n	8005e60 <tcp_receive+0x6e0>
 8005e0a:	ebac 0102 	sub.w	r1, ip, r2
 8005e0e:	2900      	cmp	r1, #0
 8005e10:	dc26      	bgt.n	8005e60 <tcp_receive+0x6e0>
                  cseg = tcp_seg_copy(&inseg);
 8005e12:	4812      	ldr	r0, [pc, #72]	; (8005e5c <tcp_receive+0x6dc>)
 8005e14:	f7ff f85a 	bl	8004ecc <tcp_seg_copy>
                  if (cseg != NULL) {
 8005e18:	4604      	mov	r4, r0
 8005e1a:	2800      	cmp	r0, #0
 8005e1c:	f000 808f 	beq.w	8005f3e <tcp_receive+0x7be>
                    if (TCP_SEQ_GT(prev->tcphdr->seqno + prev->len, seqno)) {
 8005e20:	f8d8 300c 	ldr.w	r3, [r8, #12]
 8005e24:	6831      	ldr	r1, [r6, #0]
 8005e26:	685a      	ldr	r2, [r3, #4]
 8005e28:	f8b8 3008 	ldrh.w	r3, [r8, #8]
 8005e2c:	4413      	add	r3, r2
 8005e2e:	1a5b      	subs	r3, r3, r1
 8005e30:	2b00      	cmp	r3, #0
 8005e32:	dd07      	ble.n	8005e44 <tcp_receive+0x6c4>
                      prev->len = (u16_t)(seqno - prev->tcphdr->seqno);
 8005e34:	1a89      	subs	r1, r1, r2
 8005e36:	b289      	uxth	r1, r1
 8005e38:	f8a8 1008 	strh.w	r1, [r8, #8]
                      pbuf_realloc(prev->p, prev->len);
 8005e3c:	f8d8 0004 	ldr.w	r0, [r8, #4]
 8005e40:	f7fe fef2 	bl	8004c28 <pbuf_realloc>
                    prev->next = cseg;
 8005e44:	f8c8 4000 	str.w	r4, [r8]
                    tcp_oos_insert_segment(cseg, next);
 8005e48:	4629      	mov	r1, r5
 8005e4a:	4620      	mov	r0, r4
 8005e4c:	e7c0      	b.n	8005dd0 <tcp_receive+0x650>
 8005e4e:	bf00      	nop
 8005e50:	2000abe8 	.word	0x2000abe8
 8005e54:	200071b0 	.word	0x200071b0
 8005e58:	200071b4 	.word	0x200071b4
 8005e5c:	200071a0 	.word	0x200071a0
              if (next->next == NULL &&
 8005e60:	6829      	ldr	r1, [r5, #0]
 8005e62:	46a8      	mov	r8, r5
 8005e64:	2900      	cmp	r1, #0
 8005e66:	d1b7      	bne.n	8005dd8 <tcp_receive+0x658>
                  TCP_SEQ_GT(seqno, next->tcphdr->seqno)) {
 8005e68:	1a9b      	subs	r3, r3, r2
              if (next->next == NULL &&
 8005e6a:	2b00      	cmp	r3, #0
 8005e6c:	dd67      	ble.n	8005f3e <tcp_receive+0x7be>
                if (TCPH_FLAGS(next->tcphdr) & TCP_FIN) {
 8005e6e:	8980      	ldrh	r0, [r0, #12]
 8005e70:	f7fd fcdf 	bl	8003832 <lwip_ntohs>
 8005e74:	07c2      	lsls	r2, r0, #31
 8005e76:	d462      	bmi.n	8005f3e <tcp_receive+0x7be>
                next->next = tcp_seg_copy(&inseg);
 8005e78:	4832      	ldr	r0, [pc, #200]	; (8005f44 <tcp_receive+0x7c4>)
 8005e7a:	f7ff f827 	bl	8004ecc <tcp_seg_copy>
 8005e7e:	6028      	str	r0, [r5, #0]
                if (next->next != NULL) {
 8005e80:	2800      	cmp	r0, #0
 8005e82:	d05c      	beq.n	8005f3e <tcp_receive+0x7be>
                  if (TCP_SEQ_GT(next->tcphdr->seqno + next->len, seqno)) {
 8005e84:	68eb      	ldr	r3, [r5, #12]
 8005e86:	6831      	ldr	r1, [r6, #0]
 8005e88:	685a      	ldr	r2, [r3, #4]
 8005e8a:	892b      	ldrh	r3, [r5, #8]
 8005e8c:	4413      	add	r3, r2
 8005e8e:	1a5b      	subs	r3, r3, r1
 8005e90:	2b00      	cmp	r3, #0
 8005e92:	dd05      	ble.n	8005ea0 <tcp_receive+0x720>
                    next->len = (u16_t)(seqno - next->tcphdr->seqno);
 8005e94:	1a89      	subs	r1, r1, r2
 8005e96:	b289      	uxth	r1, r1
 8005e98:	8129      	strh	r1, [r5, #8]
                    pbuf_realloc(next->p, next->len);
 8005e9a:	6868      	ldr	r0, [r5, #4]
 8005e9c:	f7fe fec4 	bl	8004c28 <pbuf_realloc>
                  if ((u32_t)tcplen + seqno > pcb->rcv_nxt + (u32_t)pcb->rcv_wnd) {
 8005ea0:	6833      	ldr	r3, [r6, #0]
 8005ea2:	883a      	ldrh	r2, [r7, #0]
 8005ea4:	6aa1      	ldr	r1, [r4, #40]	; 0x28
 8005ea6:	441a      	add	r2, r3
 8005ea8:	8da3      	ldrh	r3, [r4, #44]	; 0x2c
 8005eaa:	440b      	add	r3, r1
 8005eac:	429a      	cmp	r2, r3
 8005eae:	d946      	bls.n	8005f3e <tcp_receive+0x7be>
                    if (TCPH_FLAGS(next->next->tcphdr) & TCP_FIN) {
 8005eb0:	682b      	ldr	r3, [r5, #0]
 8005eb2:	68db      	ldr	r3, [r3, #12]
 8005eb4:	8998      	ldrh	r0, [r3, #12]
 8005eb6:	f7fd fcbc 	bl	8003832 <lwip_ntohs>
 8005eba:	07c3      	lsls	r3, r0, #31
 8005ebc:	d511      	bpl.n	8005ee2 <tcp_receive+0x762>
                      TCPH_FLAGS_SET(next->next->tcphdr, TCPH_FLAGS(next->next->tcphdr) &~ TCP_FIN);
 8005ebe:	682b      	ldr	r3, [r5, #0]
 8005ec0:	f8d3 900c 	ldr.w	r9, [r3, #12]
 8005ec4:	f8b9 800c 	ldrh.w	r8, [r9, #12]
 8005ec8:	4640      	mov	r0, r8
 8005eca:	f7fd fcb2 	bl	8003832 <lwip_ntohs>
 8005ece:	f000 003e 	and.w	r0, r0, #62	; 0x3e
 8005ed2:	f7fd fcab 	bl	800382c <lwip_htons>
 8005ed6:	f428 587c 	bic.w	r8, r8, #16128	; 0x3f00
 8005eda:	ea48 0800 	orr.w	r8, r8, r0
 8005ede:	f8a9 800c 	strh.w	r8, [r9, #12]
                    next->next->len = pcb->rcv_nxt + pcb->rcv_wnd - seqno;
 8005ee2:	8da1      	ldrh	r1, [r4, #44]	; 0x2c
 8005ee4:	6832      	ldr	r2, [r6, #0]
 8005ee6:	682b      	ldr	r3, [r5, #0]
 8005ee8:	1a89      	subs	r1, r1, r2
 8005eea:	6aa2      	ldr	r2, [r4, #40]	; 0x28
                    pbuf_realloc(next->next->p, next->next->len);
 8005eec:	6858      	ldr	r0, [r3, #4]
                    next->next->len = pcb->rcv_nxt + pcb->rcv_wnd - seqno;
 8005eee:	4411      	add	r1, r2
 8005ef0:	b289      	uxth	r1, r1
 8005ef2:	8119      	strh	r1, [r3, #8]
                    pbuf_realloc(next->next->p, next->next->len);
 8005ef4:	f7fe fe98 	bl	8004c28 <pbuf_realloc>
                    tcplen = TCP_TCPLEN(next->next);
 8005ef8:	682b      	ldr	r3, [r5, #0]
 8005efa:	891c      	ldrh	r4, [r3, #8]
 8005efc:	68db      	ldr	r3, [r3, #12]
 8005efe:	8998      	ldrh	r0, [r3, #12]
 8005f00:	f7fd fc97 	bl	8003832 <lwip_ntohs>
 8005f04:	f010 0003 	ands.w	r0, r0, #3
 8005f08:	bf18      	it	ne
 8005f0a:	2001      	movne	r0, #1
 8005f0c:	4404      	add	r4, r0
 8005f0e:	803c      	strh	r4, [r7, #0]
 8005f10:	e8bd 87f0 	ldmia.w	sp!, {r4, r5, r6, r7, r8, r9, sl, pc}
      tcp_send_empty_ack(pcb);
 8005f14:	4620      	mov	r0, r4
}
 8005f16:	e8bd 47f0 	ldmia.w	sp!, {r4, r5, r6, r7, r8, r9, sl, lr}
      tcp_send_empty_ack(pcb);
 8005f1a:	f000 bdb7 	b.w	8006a8c <tcp_send_empty_ack>
    if(!TCP_SEQ_BETWEEN(seqno, pcb->rcv_nxt, pcb->rcv_nxt + pcb->rcv_wnd-1)){
 8005f1e:	6833      	ldr	r3, [r6, #0]
 8005f20:	1a99      	subs	r1, r3, r2
 8005f22:	2900      	cmp	r1, #0
 8005f24:	db05      	blt.n	8005f32 <tcp_receive+0x7b2>
 8005f26:	3301      	adds	r3, #1
 8005f28:	1a9b      	subs	r3, r3, r2
 8005f2a:	8da2      	ldrh	r2, [r4, #44]	; 0x2c
 8005f2c:	1a9b      	subs	r3, r3, r2
 8005f2e:	2b00      	cmp	r3, #0
 8005f30:	dd05      	ble.n	8005f3e <tcp_receive+0x7be>
      tcp_ack_now(pcb);
 8005f32:	7fa3      	ldrb	r3, [r4, #30]
 8005f34:	e6ad      	b.n	8005c92 <tcp_receive+0x512>
        pcb->dupacks = 0;
 8005f36:	2300      	movs	r3, #0
 8005f38:	f884 3047 	strb.w	r3, [r4, #71]	; 0x47
 8005f3c:	e492      	b.n	8005864 <tcp_receive+0xe4>
 8005f3e:	e8bd 87f0 	ldmia.w	sp!, {r4, r5, r6, r7, r8, r9, sl, pc}
 8005f42:	bf00      	nop
 8005f44:	200071a0 	.word	0x200071a0

08005f48 <tcp_parseopt.isra.0>:
 * Currently, only the MSS option is supported!
 *
 * @param pcb the tcp_pcb for which a segment arrived
 */
static void
tcp_parseopt(struct tcp_pcb *pcb)
 8005f48:	b5f8      	push	{r3, r4, r5, r6, r7, lr}
  u8_t *opts, opt;
#if LWIP_TCP_TIMESTAMPS
  u32_t tsval;
#endif

  opts = (u8_t *)tcphdr + TCP_HLEN;
 8005f4a:	4e1f      	ldr	r6, [pc, #124]	; (8005fc8 <tcp_parseopt.isra.0+0x80>)
 8005f4c:	6835      	ldr	r5, [r6, #0]
tcp_parseopt(struct tcp_pcb *pcb)
 8005f4e:	4604      	mov	r4, r0

  /* Parse the TCP MSS option, if present. */
  if(TCPH_HDRLEN(tcphdr) > 0x5) {
 8005f50:	89a8      	ldrh	r0, [r5, #12]
 8005f52:	f7fd fc6e 	bl	8003832 <lwip_ntohs>
 8005f56:	f3c0 300f 	ubfx	r0, r0, #12, #16
 8005f5a:	2805      	cmp	r0, #5
 8005f5c:	d90f      	bls.n	8005f7e <tcp_parseopt.isra.0+0x36>
    max_c = (TCPH_HDRLEN(tcphdr) - 5) << 2;
 8005f5e:	6833      	ldr	r3, [r6, #0]
 8005f60:	8998      	ldrh	r0, [r3, #12]
 8005f62:	f7fd fc66 	bl	8003832 <lwip_ntohs>
 8005f66:	0b00      	lsrs	r0, r0, #12
 8005f68:	3805      	subs	r0, #5
 8005f6a:	0080      	lsls	r0, r0, #2
  opts = (u8_t *)tcphdr + TCP_HLEN;
 8005f6c:	3514      	adds	r5, #20
    max_c = (TCPH_HDRLEN(tcphdr) - 5) << 2;
 8005f6e:	b280      	uxth	r0, r0
    for (c = 0; c < max_c; ) {
 8005f70:	2300      	movs	r3, #0
          return;
        }
        /* An MSS option with the right option length. */
        mss = (opts[c + 2] << 8) | opts[c + 3];
        /* Limit the mss to the configured TCP_MSS and prevent division by zero */
        pcb->mss = ((mss > TCP_MSS) || (mss == 0)) ? TCP_MSS : mss;
 8005f72:	f240 56b3 	movw	r6, #1459	; 0x5b3
 8005f76:	f240 57b4 	movw	r7, #1460	; 0x5b4
    for (c = 0; c < max_c; ) {
 8005f7a:	4298      	cmp	r0, r3
 8005f7c:	d800      	bhi.n	8005f80 <tcp_parseopt.isra.0+0x38>
 8005f7e:	bdf8      	pop	{r3, r4, r5, r6, r7, pc}
      switch (opt) {
 8005f80:	5cea      	ldrb	r2, [r5, r3]
 8005f82:	2a01      	cmp	r2, #1
 8005f84:	d009      	beq.n	8005f9a <tcp_parseopt.isra.0+0x52>
 8005f86:	d3fa      	bcc.n	8005f7e <tcp_parseopt.isra.0+0x36>
 8005f88:	2a02      	cmp	r2, #2
 8005f8a:	eb05 0103 	add.w	r1, r5, r3
 8005f8e:	d007      	beq.n	8005fa0 <tcp_parseopt.isra.0+0x58>
        c += 0x0A;
        break;
#endif
      default:
        LWIP_DEBUGF(TCP_INPUT_DEBUG, ("tcp_parseopt: other\n"));
        if (opts[c + 1] == 0) {
 8005f90:	784a      	ldrb	r2, [r1, #1]
 8005f92:	2a00      	cmp	r2, #0
 8005f94:	d0f3      	beq.n	8005f7e <tcp_parseopt.isra.0+0x36>
             and we don't process them further. */
          return;
        }
        /* All other options have a length field, so that we easily
           can skip past them. */
        c += opts[c + 1];
 8005f96:	4413      	add	r3, r2
 8005f98:	e000      	b.n	8005f9c <tcp_parseopt.isra.0+0x54>
        ++c;
 8005f9a:	3301      	adds	r3, #1
        c += opts[c + 1];
 8005f9c:	b29b      	uxth	r3, r3
 8005f9e:	e7ec      	b.n	8005f7a <tcp_parseopt.isra.0+0x32>
        if (opts[c + 1] != 0x04 || c + 0x04 > max_c) {
 8005fa0:	784a      	ldrb	r2, [r1, #1]
 8005fa2:	2a04      	cmp	r2, #4
 8005fa4:	d1eb      	bne.n	8005f7e <tcp_parseopt.isra.0+0x36>
 8005fa6:	1cda      	adds	r2, r3, #3
 8005fa8:	4282      	cmp	r2, r0
 8005faa:	dae8      	bge.n	8005f7e <tcp_parseopt.isra.0+0x36>
        mss = (opts[c + 2] << 8) | opts[c + 3];
 8005fac:	f891 e002 	ldrb.w	lr, [r1, #2]
 8005fb0:	78ca      	ldrb	r2, [r1, #3]
 8005fb2:	ea42 220e 	orr.w	r2, r2, lr, lsl #8
        pcb->mss = ((mss > TCP_MSS) || (mss == 0)) ? TCP_MSS : mss;
 8005fb6:	1e51      	subs	r1, r2, #1
 8005fb8:	b289      	uxth	r1, r1
 8005fba:	42b1      	cmp	r1, r6
 8005fbc:	bf88      	it	hi
 8005fbe:	463a      	movhi	r2, r7
 8005fc0:	8022      	strh	r2, [r4, #0]
        c += 0x04;
 8005fc2:	3304      	adds	r3, #4
 8005fc4:	e7ea      	b.n	8005f9c <tcp_parseopt.isra.0+0x54>
 8005fc6:	bf00      	nop
 8005fc8:	200071bc 	.word	0x200071bc

08005fcc <tcp_input>:
{
 8005fcc:	e92d 4ff0 	stmdb	sp!, {r4, r5, r6, r7, r8, r9, sl, fp, lr}
  TCP_STATS_INC(tcp.recv);
 8005fd0:	4db0      	ldr	r5, [pc, #704]	; (8006294 <tcp_input+0x2c8>)
  tcphdr = (struct tcp_hdr *)((u8_t *)p->payload + IPH_HL(iphdr) * 4);
 8005fd2:	4cb1      	ldr	r4, [pc, #708]	; (8006298 <tcp_input+0x2cc>)
  TCP_STATS_INC(tcp.recv);
 8005fd4:	f8b5 3092 	ldrh.w	r3, [r5, #146]	; 0x92
 8005fd8:	3301      	adds	r3, #1
 8005fda:	f8a5 3092 	strh.w	r3, [r5, #146]	; 0x92
  iphdr = (struct ip_hdr *)p->payload;
 8005fde:	6843      	ldr	r3, [r0, #4]
{
 8005fe0:	4689      	mov	r9, r1
 8005fe2:	7819      	ldrb	r1, [r3, #0]
 8005fe4:	f001 010f 	and.w	r1, r1, #15
  tcphdr = (struct tcp_hdr *)((u8_t *)p->payload + IPH_HL(iphdr) * 4);
 8005fe8:	eb03 0381 	add.w	r3, r3, r1, lsl #2
  if (pbuf_header(p, -((s16_t)(IPH_HL(iphdr) * 4))) || (p->tot_len < sizeof(struct tcp_hdr))) {
 8005fec:	0089      	lsls	r1, r1, #2
{
 8005fee:	b089      	sub	sp, #36	; 0x24
  if (pbuf_header(p, -((s16_t)(IPH_HL(iphdr) * 4))) || (p->tot_len < sizeof(struct tcp_hdr))) {
 8005ff0:	4249      	negs	r1, r1
{
 8005ff2:	4607      	mov	r7, r0
  tcphdr = (struct tcp_hdr *)((u8_t *)p->payload + IPH_HL(iphdr) * 4);
 8005ff4:	6023      	str	r3, [r4, #0]
  if (pbuf_header(p, -((s16_t)(IPH_HL(iphdr) * 4))) || (p->tot_len < sizeof(struct tcp_hdr))) {
 8005ff6:	f7fe fd39 	bl	8004a6c <pbuf_header>
 8005ffa:	4626      	mov	r6, r4
 8005ffc:	b910      	cbnz	r0, 8006004 <tcp_input+0x38>
 8005ffe:	893b      	ldrh	r3, [r7, #8]
 8006000:	2b13      	cmp	r3, #19
 8006002:	d805      	bhi.n	8006010 <tcp_input+0x44>
    TCP_STATS_INC(tcp.lenerr);
 8006004:	f8b5 309a 	ldrh.w	r3, [r5, #154]	; 0x9a
 8006008:	3301      	adds	r3, #1
 800600a:	f8a5 309a 	strh.w	r3, [r5, #154]	; 0x9a
    goto dropped;
 800600e:	e012      	b.n	8006036 <tcp_input+0x6a>
  if (ip_addr_isbroadcast(&current_iphdr_dest, inp) ||
 8006010:	f8df 8290 	ldr.w	r8, [pc, #656]	; 80062a4 <tcp_input+0x2d8>
 8006014:	4649      	mov	r1, r9
 8006016:	f8d8 0000 	ldr.w	r0, [r8]
 800601a:	f7fd ffb3 	bl	8003f84 <ip4_addr_isbroadcast>
 800601e:	b928      	cbnz	r0, 800602c <tcp_input+0x60>
      ip_addr_ismulticast(&current_iphdr_dest)) {
 8006020:	f8d8 3000 	ldr.w	r3, [r8]
 8006024:	f003 03f0 	and.w	r3, r3, #240	; 0xf0
  if (ip_addr_isbroadcast(&current_iphdr_dest, inp) ||
 8006028:	2be0      	cmp	r3, #224	; 0xe0
 800602a:	d10a      	bne.n	8006042 <tcp_input+0x76>
    TCP_STATS_INC(tcp.proterr);
 800602c:	f8b5 30a0 	ldrh.w	r3, [r5, #160]	; 0xa0
 8006030:	3301      	adds	r3, #1
 8006032:	f8a5 30a0 	strh.w	r3, [r5, #160]	; 0xa0
  TCP_STATS_INC(tcp.drop);
 8006036:	f8b5 3096 	ldrh.w	r3, [r5, #150]	; 0x96
 800603a:	3301      	adds	r3, #1
 800603c:	f8a5 3096 	strh.w	r3, [r5, #150]	; 0x96
 8006040:	e0fb      	b.n	800623a <tcp_input+0x26e>
  if (inet_chksum_pseudo(p, ip_current_src_addr(), ip_current_dest_addr(),
 8006042:	f8df 927c 	ldr.w	r9, [pc, #636]	; 80062c0 <tcp_input+0x2f4>
 8006046:	893b      	ldrh	r3, [r7, #8]
 8006048:	9300      	str	r3, [sp, #0]
 800604a:	4642      	mov	r2, r8
 800604c:	2306      	movs	r3, #6
 800604e:	4649      	mov	r1, r9
 8006050:	4638      	mov	r0, r7
 8006052:	f7fd fd5d 	bl	8003b10 <inet_chksum_pseudo>
 8006056:	f8cd 901c 	str.w	r9, [sp, #28]
 800605a:	b128      	cbz	r0, 8006068 <tcp_input+0x9c>
    TCP_STATS_INC(tcp.chkerr);
 800605c:	f8b5 3098 	ldrh.w	r3, [r5, #152]	; 0x98
 8006060:	3301      	adds	r3, #1
 8006062:	f8a5 3098 	strh.w	r3, [r5, #152]	; 0x98
    goto dropped;
 8006066:	e7e6      	b.n	8006036 <tcp_input+0x6a>
  hdrlen = TCPH_HDRLEN(tcphdr);
 8006068:	6823      	ldr	r3, [r4, #0]
 800606a:	8998      	ldrh	r0, [r3, #12]
 800606c:	f7fd fbe1 	bl	8003832 <lwip_ntohs>
 8006070:	0b00      	lsrs	r0, r0, #12
  if(pbuf_header(p, -(hdrlen * 4))){
 8006072:	ebc0 3080 	rsb	r0, r0, r0, lsl #14
 8006076:	0081      	lsls	r1, r0, #2
 8006078:	b209      	sxth	r1, r1
 800607a:	4638      	mov	r0, r7
 800607c:	f7fe fcf6 	bl	8004a6c <pbuf_header>
 8006080:	4682      	mov	sl, r0
 8006082:	2800      	cmp	r0, #0
 8006084:	d1be      	bne.n	8006004 <tcp_input+0x38>
  tcphdr->src = ntohs(tcphdr->src);
 8006086:	6824      	ldr	r4, [r4, #0]
  seqno = tcphdr->seqno = ntohl(tcphdr->seqno);
 8006088:	f8df 8230 	ldr.w	r8, [pc, #560]	; 80062bc <tcp_input+0x2f0>
  tcphdr->src = ntohs(tcphdr->src);
 800608c:	8820      	ldrh	r0, [r4, #0]
  ackno = tcphdr->ackno = ntohl(tcphdr->ackno);
 800608e:	f8df 9234 	ldr.w	r9, [pc, #564]	; 80062c4 <tcp_input+0x2f8>
  tcphdr->src = ntohs(tcphdr->src);
 8006092:	f7fd fbce 	bl	8003832 <lwip_ntohs>
 8006096:	8020      	strh	r0, [r4, #0]
  tcphdr->dest = ntohs(tcphdr->dest);
 8006098:	6834      	ldr	r4, [r6, #0]
 800609a:	8860      	ldrh	r0, [r4, #2]
 800609c:	f7fd fbc9 	bl	8003832 <lwip_ntohs>
 80060a0:	8060      	strh	r0, [r4, #2]
  seqno = tcphdr->seqno = ntohl(tcphdr->seqno);
 80060a2:	6834      	ldr	r4, [r6, #0]
 80060a4:	6860      	ldr	r0, [r4, #4]
 80060a6:	f7fd fbc9 	bl	800383c <lwip_ntohl>
 80060aa:	6060      	str	r0, [r4, #4]
  ackno = tcphdr->ackno = ntohl(tcphdr->ackno);
 80060ac:	6834      	ldr	r4, [r6, #0]
  seqno = tcphdr->seqno = ntohl(tcphdr->seqno);
 80060ae:	f8c8 0000 	str.w	r0, [r8]
  ackno = tcphdr->ackno = ntohl(tcphdr->ackno);
 80060b2:	68a0      	ldr	r0, [r4, #8]
 80060b4:	f7fd fbc2 	bl	800383c <lwip_ntohl>
 80060b8:	60a0      	str	r0, [r4, #8]
  tcphdr->wnd = ntohs(tcphdr->wnd);
 80060ba:	6834      	ldr	r4, [r6, #0]
  ackno = tcphdr->ackno = ntohl(tcphdr->ackno);
 80060bc:	f8c9 0000 	str.w	r0, [r9]
  tcphdr->wnd = ntohs(tcphdr->wnd);
 80060c0:	89e0      	ldrh	r0, [r4, #14]
 80060c2:	f7fd fbb6 	bl	8003832 <lwip_ntohs>
  flags = TCPH_FLAGS(tcphdr);
 80060c6:	6833      	ldr	r3, [r6, #0]
  tcphdr->wnd = ntohs(tcphdr->wnd);
 80060c8:	81e0      	strh	r0, [r4, #14]
  flags = TCPH_FLAGS(tcphdr);
 80060ca:	8998      	ldrh	r0, [r3, #12]
 80060cc:	f7fd fbb1 	bl	8003832 <lwip_ntohs>
 80060d0:	4a72      	ldr	r2, [pc, #456]	; (800629c <tcp_input+0x2d0>)
  tcplen = p->tot_len + ((flags & (TCP_FIN | TCP_SYN)) ? 1 : 0);
 80060d2:	f8b7 e008 	ldrh.w	lr, [r7, #8]
  prev = NULL;
 80060d6:	f8cd a00c 	str.w	sl, [sp, #12]
  flags = TCPH_FLAGS(tcphdr);
 80060da:	b2c3      	uxtb	r3, r0
 80060dc:	f003 013f 	and.w	r1, r3, #63	; 0x3f
       ip_addr_cmp(&(pcb->remote_ip), &current_iphdr_src) &&
 80060e0:	9807      	ldr	r0, [sp, #28]
  flags = TCPH_FLAGS(tcphdr);
 80060e2:	7011      	strb	r1, [r2, #0]
  for(pcb = tcp_active_pcbs; pcb != NULL; pcb = pcb->next) {
 80060e4:	4a6e      	ldr	r2, [pc, #440]	; (80062a0 <tcp_input+0x2d4>)
       ip_addr_cmp(&(pcb->remote_ip), &current_iphdr_src) &&
 80060e6:	6800      	ldr	r0, [r0, #0]
  for(pcb = tcp_active_pcbs; pcb != NULL; pcb = pcb->next) {
 80060e8:	6812      	ldr	r2, [r2, #0]
       ip_addr_cmp(&(pcb->remote_ip), &current_iphdr_src) &&
 80060ea:	9006      	str	r0, [sp, #24]
  tcplen = p->tot_len + ((flags & (TCP_FIN | TCP_SYN)) ? 1 : 0);
 80060ec:	f013 0b03 	ands.w	fp, r3, #3
 80060f0:	bf18      	it	ne
 80060f2:	f04f 0b01 	movne.w	fp, #1
       ip_addr_cmp(&(pcb->local_ip), &current_iphdr_dest)) {
 80060f6:	486b      	ldr	r0, [pc, #428]	; (80062a4 <tcp_input+0x2d8>)
  tcplen = p->tot_len + ((flags & (TCP_FIN | TCP_SYN)) ? 1 : 0);
 80060f8:	496b      	ldr	r1, [pc, #428]	; (80062a8 <tcp_input+0x2dc>)
  for(pcb = tcp_active_pcbs; pcb != NULL; pcb = pcb->next) {
 80060fa:	9205      	str	r2, [sp, #20]
  tcplen = p->tot_len + ((flags & (TCP_FIN | TCP_SYN)) ? 1 : 0);
 80060fc:	44f3      	add	fp, lr
 80060fe:	fa1f fb8b 	uxth.w	fp, fp
    if (pcb->remote_port == tcphdr->src &&
 8006102:	6832      	ldr	r2, [r6, #0]
       ip_addr_cmp(&(pcb->local_ip), &current_iphdr_dest)) {
 8006104:	f8d0 c000 	ldr.w	ip, [r0]
  for(pcb = tcp_active_pcbs; pcb != NULL; pcb = pcb->next) {
 8006108:	9c05      	ldr	r4, [sp, #20]
  tcplen = p->tot_len + ((flags & (TCP_FIN | TCP_SYN)) ? 1 : 0);
 800610a:	f8a1 b000 	strh.w	fp, [r1]
 800610e:	46ca      	mov	sl, r9
 8006110:	9104      	str	r1, [sp, #16]
  for(pcb = tcp_active_pcbs; pcb != NULL; pcb = pcb->next) {
 8006112:	b914      	cbnz	r4, 800611a <tcp_input+0x14e>
    for(pcb = tcp_tw_pcbs; pcb != NULL; pcb = pcb->next) {
 8006114:	4965      	ldr	r1, [pc, #404]	; (80062ac <tcp_input+0x2e0>)
 8006116:	6808      	ldr	r0, [r1, #0]
 8006118:	e096      	b.n	8006248 <tcp_input+0x27c>
    if (pcb->remote_port == tcphdr->src &&
 800611a:	f8b4 901c 	ldrh.w	r9, [r4, #28]
 800611e:	8811      	ldrh	r1, [r2, #0]
 8006120:	4589      	cmp	r9, r1
 8006122:	d150      	bne.n	80061c6 <tcp_input+0x1fa>
 8006124:	f8b4 901a 	ldrh.w	r9, [r4, #26]
 8006128:	8851      	ldrh	r1, [r2, #2]
 800612a:	4589      	cmp	r9, r1
 800612c:	d14b      	bne.n	80061c6 <tcp_input+0x1fa>
       pcb->local_port == tcphdr->dest &&
 800612e:	6861      	ldr	r1, [r4, #4]
 8006130:	4608      	mov	r0, r1
 8006132:	9906      	ldr	r1, [sp, #24]
 8006134:	4288      	cmp	r0, r1
 8006136:	d146      	bne.n	80061c6 <tcp_input+0x1fa>
       ip_addr_cmp(&(pcb->remote_ip), &current_iphdr_src) &&
 8006138:	6821      	ldr	r1, [r4, #0]
 800613a:	4561      	cmp	r1, ip
 800613c:	d143      	bne.n	80061c6 <tcp_input+0x1fa>
      if (prev != NULL) {
 800613e:	9803      	ldr	r0, [sp, #12]
      LWIP_ASSERT("tcp_input: pcb->next != pcb (before cache)", pcb->next != pcb);
 8006140:	68e1      	ldr	r1, [r4, #12]
      if (prev != NULL) {
 8006142:	b120      	cbz	r0, 800614e <tcp_input+0x182>
        prev->next = pcb->next;
 8006144:	60c1      	str	r1, [r0, #12]
        pcb->next = tcp_active_pcbs;
 8006146:	9905      	ldr	r1, [sp, #20]
 8006148:	60e1      	str	r1, [r4, #12]
        tcp_active_pcbs = pcb;
 800614a:	4955      	ldr	r1, [pc, #340]	; (80062a0 <tcp_input+0x2d4>)
 800614c:	600c      	str	r4, [r1, #0]
    inseg.next = NULL;
 800614e:	4958      	ldr	r1, [pc, #352]	; (80062b0 <tcp_input+0x2e4>)
    recv_flags = 0;
 8006150:	f8df 917c 	ldr.w	r9, [pc, #380]	; 80062d0 <tcp_input+0x304>
    inseg.tcphdr = tcphdr;
 8006154:	60ca      	str	r2, [r1, #12]
    recv_data = NULL;
 8006156:	4a57      	ldr	r2, [pc, #348]	; (80062b4 <tcp_input+0x2e8>)
    inseg.len = p->tot_len;
 8006158:	f8a1 e008 	strh.w	lr, [r1, #8]
    inseg.next = NULL;
 800615c:	2000      	movs	r0, #0
    if (flags & TCP_PSH) {
 800615e:	f013 0f08 	tst.w	r3, #8
    inseg.next = NULL;
 8006162:	6008      	str	r0, [r1, #0]
    inseg.p = p;
 8006164:	604f      	str	r7, [r1, #4]
    recv_data = NULL;
 8006166:	6010      	str	r0, [r2, #0]
    recv_flags = 0;
 8006168:	f889 0000 	strb.w	r0, [r9]
 800616c:	4693      	mov	fp, r2
 800616e:	468a      	mov	sl, r1
    if (flags & TCP_PSH) {
 8006170:	d003      	beq.n	800617a <tcp_input+0x1ae>
      p->flags |= PBUF_FLAG_PUSH;
 8006172:	7b7b      	ldrb	r3, [r7, #13]
 8006174:	f043 0301 	orr.w	r3, r3, #1
 8006178:	737b      	strb	r3, [r7, #13]
    if (pcb->refused_data != NULL) {
 800617a:	6fa3      	ldr	r3, [r4, #120]	; 0x78
 800617c:	4f4e      	ldr	r7, [pc, #312]	; (80062b8 <tcp_input+0x2ec>)
 800617e:	2b00      	cmp	r3, #0
 8006180:	f000 8115 	beq.w	80063ae <tcp_input+0x3e2>
      if ((tcp_process_refused_data(pcb) == ERR_ABRT) ||
 8006184:	4620      	mov	r0, r4
 8006186:	f7ff f93b 	bl	8005400 <tcp_process_refused_data>
 800618a:	300a      	adds	r0, #10
 800618c:	d008      	beq.n	80061a0 <tcp_input+0x1d4>
 800618e:	6fa3      	ldr	r3, [r4, #120]	; 0x78
 8006190:	2b00      	cmp	r3, #0
 8006192:	f000 810c 	beq.w	80063ae <tcp_input+0x3e2>
        ((pcb->refused_data != NULL) && (tcplen > 0))) {
 8006196:	4b44      	ldr	r3, [pc, #272]	; (80062a8 <tcp_input+0x2dc>)
 8006198:	881b      	ldrh	r3, [r3, #0]
 800619a:	2b00      	cmp	r3, #0
 800619c:	f000 8107 	beq.w	80063ae <tcp_input+0x3e2>
        TCP_STATS_INC(tcp.drop);
 80061a0:	f8b5 3096 	ldrh.w	r3, [r5, #150]	; 0x96
 80061a4:	3301      	adds	r3, #1
 80061a6:	f8a5 3096 	strh.w	r3, [r5, #150]	; 0x96
    if (inseg.p != NULL)
 80061aa:	f8da 0004 	ldr.w	r0, [sl, #4]
    tcp_input_pcb = NULL;
 80061ae:	2400      	movs	r4, #0
 80061b0:	603c      	str	r4, [r7, #0]
    recv_data = NULL;
 80061b2:	f8cb 4000 	str.w	r4, [fp]
    if (inseg.p != NULL)
 80061b6:	b118      	cbz	r0, 80061c0 <tcp_input+0x1f4>
      pbuf_free(inseg.p);
 80061b8:	f7fe fc83 	bl	8004ac2 <pbuf_free>
      inseg.p = NULL;
 80061bc:	f8ca 4004 	str.w	r4, [sl, #4]
}
 80061c0:	b009      	add	sp, #36	; 0x24
 80061c2:	e8bd 8ff0 	ldmia.w	sp!, {r4, r5, r6, r7, r8, r9, sl, fp, pc}
  for(pcb = tcp_active_pcbs; pcb != NULL; pcb = pcb->next) {
 80061c6:	9403      	str	r4, [sp, #12]
 80061c8:	68e4      	ldr	r4, [r4, #12]
 80061ca:	e7a2      	b.n	8006112 <tcp_input+0x146>
      if (pcb->remote_port == tcphdr->src &&
 80061cc:	8b81      	ldrh	r1, [r0, #28]
 80061ce:	f8b2 e000 	ldrh.w	lr, [r2]
 80061d2:	458e      	cmp	lr, r1
 80061d4:	d137      	bne.n	8006246 <tcp_input+0x27a>
         pcb->local_port == tcphdr->dest &&
 80061d6:	8b41      	ldrh	r1, [r0, #26]
      if (pcb->remote_port == tcphdr->src &&
 80061d8:	f8b2 9002 	ldrh.w	r9, [r2, #2]
 80061dc:	4589      	cmp	r9, r1
 80061de:	d132      	bne.n	8006246 <tcp_input+0x27a>
         pcb->local_port == tcphdr->dest &&
 80061e0:	6841      	ldr	r1, [r0, #4]
 80061e2:	460c      	mov	r4, r1
 80061e4:	9906      	ldr	r1, [sp, #24]
 80061e6:	42a1      	cmp	r1, r4
 80061e8:	d12d      	bne.n	8006246 <tcp_input+0x27a>
         ip_addr_cmp(&(pcb->remote_ip), &current_iphdr_src) &&
 80061ea:	6801      	ldr	r1, [r0, #0]
 80061ec:	458c      	cmp	ip, r1
 80061ee:	d12a      	bne.n	8006246 <tcp_input+0x27a>
  if (flags & TCP_RST)  {
 80061f0:	075e      	lsls	r6, r3, #29
 80061f2:	d422      	bmi.n	800623a <tcp_input+0x26e>
  if (flags & TCP_SYN) {
 80061f4:	079d      	lsls	r5, r3, #30
 80061f6:	d512      	bpl.n	800621e <tcp_input+0x252>
    if (TCP_SEQ_BETWEEN(seqno, pcb->rcv_nxt, pcb->rcv_nxt+pcb->rcv_wnd)) {
 80061f8:	4b30      	ldr	r3, [pc, #192]	; (80062bc <tcp_input+0x2f0>)
 80061fa:	6819      	ldr	r1, [r3, #0]
 80061fc:	6a83      	ldr	r3, [r0, #40]	; 0x28
 80061fe:	1acb      	subs	r3, r1, r3
 8006200:	d412      	bmi.n	8006228 <tcp_input+0x25c>
 8006202:	8d82      	ldrh	r2, [r0, #44]	; 0x2c
 8006204:	1a9b      	subs	r3, r3, r2
 8006206:	2b00      	cmp	r3, #0
 8006208:	dc0e      	bgt.n	8006228 <tcp_input+0x25c>
      tcp_rst(ackno, seqno + tcplen, ip_current_dest_addr(), ip_current_src_addr(),
 800620a:	e88d 4200 	stmia.w	sp, {r9, lr}
 800620e:	4b2c      	ldr	r3, [pc, #176]	; (80062c0 <tcp_input+0x2f4>)
 8006210:	4a24      	ldr	r2, [pc, #144]	; (80062a4 <tcp_input+0x2d8>)
 8006212:	4459      	add	r1, fp
    tcp_rst(ackno, seqno + tcplen, ip_current_dest_addr(),
 8006214:	482b      	ldr	r0, [pc, #172]	; (80062c4 <tcp_input+0x2f8>)
 8006216:	6800      	ldr	r0, [r0, #0]
      tcp_rst(ackno, seqno + tcplen,
 8006218:	f000 fdac 	bl	8006d74 <tcp_rst>
 800621c:	e00d      	b.n	800623a <tcp_input+0x26e>
  } else if (flags & TCP_FIN) {
 800621e:	07dc      	lsls	r4, r3, #31
    pcb->tmr = tcp_ticks;
 8006220:	bf42      	ittt	mi
 8006222:	4b29      	ldrmi	r3, [pc, #164]	; (80062c8 <tcp_input+0x2fc>)
 8006224:	681b      	ldrmi	r3, [r3, #0]
 8006226:	6243      	strmi	r3, [r0, #36]	; 0x24
  if ((tcplen > 0))  {
 8006228:	f1bb 0f00 	cmp.w	fp, #0
 800622c:	d005      	beq.n	800623a <tcp_input+0x26e>
    pcb->flags |= TF_ACK_NOW;
 800622e:	7f83      	ldrb	r3, [r0, #30]
 8006230:	f043 0302 	orr.w	r3, r3, #2
 8006234:	7783      	strb	r3, [r0, #30]
    return tcp_output(pcb);
 8006236:	f000 fc57 	bl	8006ae8 <tcp_output>
  pbuf_free(p);
 800623a:	4638      	mov	r0, r7
}
 800623c:	b009      	add	sp, #36	; 0x24
 800623e:	e8bd 4ff0 	ldmia.w	sp!, {r4, r5, r6, r7, r8, r9, sl, fp, lr}
  pbuf_free(p);
 8006242:	f7fe bc3e 	b.w	8004ac2 <pbuf_free>
    for(pcb = tcp_tw_pcbs; pcb != NULL; pcb = pcb->next) {
 8006246:	68c0      	ldr	r0, [r0, #12]
 8006248:	2800      	cmp	r0, #0
 800624a:	d1bf      	bne.n	80061cc <tcp_input+0x200>
    for(lpcb = tcp_listen_pcbs.listen_pcbs; lpcb != NULL; lpcb = lpcb->next) {
 800624c:	491f      	ldr	r1, [pc, #124]	; (80062cc <tcp_input+0x300>)
 800624e:	680c      	ldr	r4, [r1, #0]
 8006250:	46a1      	mov	r9, r4
 8006252:	f1b9 0f00 	cmp.w	r9, #0
 8006256:	d13d      	bne.n	80062d4 <tcp_input+0x308>
    if (!(TCPH_FLAGS(tcphdr) & TCP_RST)) {
 8006258:	8990      	ldrh	r0, [r2, #12]
 800625a:	f7fd faea 	bl	8003832 <lwip_ntohs>
 800625e:	0743      	lsls	r3, r0, #29
 8006260:	d4eb      	bmi.n	800623a <tcp_input+0x26e>
      TCP_STATS_INC(tcp.proterr);
 8006262:	f8b5 30a0 	ldrh.w	r3, [r5, #160]	; 0xa0
      tcp_rst(ackno, seqno + tcplen,
 8006266:	9a04      	ldr	r2, [sp, #16]
 8006268:	f8d8 1000 	ldr.w	r1, [r8]
 800626c:	8810      	ldrh	r0, [r2, #0]
      TCP_STATS_INC(tcp.proterr);
 800626e:	3301      	adds	r3, #1
 8006270:	f8a5 30a0 	strh.w	r3, [r5, #160]	; 0xa0
      TCP_STATS_INC(tcp.drop);
 8006274:	f8b5 3096 	ldrh.w	r3, [r5, #150]	; 0x96
 8006278:	3301      	adds	r3, #1
 800627a:	f8a5 3096 	strh.w	r3, [r5, #150]	; 0x96
        tcphdr->dest, tcphdr->src);
 800627e:	6833      	ldr	r3, [r6, #0]
      tcp_rst(ackno, seqno + tcplen,
 8006280:	881a      	ldrh	r2, [r3, #0]
 8006282:	9201      	str	r2, [sp, #4]
 8006284:	885b      	ldrh	r3, [r3, #2]
 8006286:	9300      	str	r3, [sp, #0]
 8006288:	4401      	add	r1, r0
 800628a:	4b0d      	ldr	r3, [pc, #52]	; (80062c0 <tcp_input+0x2f4>)
 800628c:	4a05      	ldr	r2, [pc, #20]	; (80062a4 <tcp_input+0x2d8>)
 800628e:	f8da 0000 	ldr.w	r0, [sl]
 8006292:	e7c1      	b.n	8006218 <tcp_input+0x24c>
 8006294:	2000aaca 	.word	0x2000aaca
 8006298:	200071bc 	.word	0x200071bc
 800629c:	2000719c 	.word	0x2000719c
 80062a0:	2000abe4 	.word	0x2000abe4
 80062a4:	20008394 	.word	0x20008394
 80062a8:	200071c0 	.word	0x200071c0
 80062ac:	2000abf8 	.word	0x2000abf8
 80062b0:	200071a0 	.word	0x200071a0
 80062b4:	200071b0 	.word	0x200071b0
 80062b8:	2000abfc 	.word	0x2000abfc
 80062bc:	200071b8 	.word	0x200071b8
 80062c0:	2000838c 	.word	0x2000838c
 80062c4:	20007198 	.word	0x20007198
 80062c8:	2000abe8 	.word	0x2000abe8
 80062cc:	2000abec 	.word	0x2000abec
 80062d0:	200071b4 	.word	0x200071b4
      if (lpcb->local_port == tcphdr->dest) {
 80062d4:	f8b9 101a 	ldrh.w	r1, [r9, #26]
 80062d8:	9103      	str	r1, [sp, #12]
 80062da:	f8b2 e002 	ldrh.w	lr, [r2, #2]
 80062de:	458e      	cmp	lr, r1
 80062e0:	d108      	bne.n	80062f4 <tcp_input+0x328>
        if (ip_addr_cmp(&(lpcb->local_ip), &current_iphdr_dest) ||
 80062e2:	f8d9 e000 	ldr.w	lr, [r9]
 80062e6:	45f4      	cmp	ip, lr
 80062e8:	f000 8288 	beq.w	80067fc <tcp_input+0x830>
            ip_addr_isany(&(lpcb->local_ip))) {
 80062ec:	f1be 0f00 	cmp.w	lr, #0
 80062f0:	f000 8284 	beq.w	80067fc <tcp_input+0x830>
 80062f4:	4648      	mov	r0, r9
    for(lpcb = tcp_listen_pcbs.listen_pcbs; lpcb != NULL; lpcb = lpcb->next) {
 80062f6:	f8d9 900c 	ldr.w	r9, [r9, #12]
 80062fa:	e7aa      	b.n	8006252 <tcp_input+0x286>
  } else if (flags & TCP_SYN) {
 80062fc:	0799      	lsls	r1, r3, #30
 80062fe:	d59c      	bpl.n	800623a <tcp_input+0x26e>
    npcb = tcp_alloc(pcb->prio);
 8006300:	f899 0019 	ldrb.w	r0, [r9, #25]
 8006304:	f7ff f958 	bl	80055b8 <tcp_alloc>
    if (npcb == NULL) {
 8006308:	4682      	mov	sl, r0
 800630a:	b928      	cbnz	r0, 8006318 <tcp_input+0x34c>
      TCP_STATS_INC(tcp.memerr);
 800630c:	f8b5 309c 	ldrh.w	r3, [r5, #156]	; 0x9c
 8006310:	3301      	adds	r3, #1
 8006312:	f8a5 309c 	strh.w	r3, [r5, #156]	; 0x9c
 8006316:	e790      	b.n	800623a <tcp_input+0x26e>
    ip_addr_copy(npcb->local_ip, current_iphdr_dest);
 8006318:	4ba5      	ldr	r3, [pc, #660]	; (80065b0 <tcp_input+0x5e4>)
    npcb->remote_port = tcphdr->src;
 800631a:	6832      	ldr	r2, [r6, #0]
    ip_addr_copy(npcb->local_ip, current_iphdr_dest);
 800631c:	681b      	ldr	r3, [r3, #0]
 800631e:	6003      	str	r3, [r0, #0]
    npcb->local_port = pcb->local_port;
 8006320:	f8b9 301a 	ldrh.w	r3, [r9, #26]
 8006324:	8343      	strh	r3, [r0, #26]
    ip_addr_copy(npcb->remote_ip, current_iphdr_src);
 8006326:	9b07      	ldr	r3, [sp, #28]
    npcb->remote_port = tcphdr->src;
 8006328:	7851      	ldrb	r1, [r2, #1]
    ip_addr_copy(npcb->remote_ip, current_iphdr_src);
 800632a:	681b      	ldr	r3, [r3, #0]
 800632c:	6043      	str	r3, [r0, #4]
    npcb->remote_port = tcphdr->src;
 800632e:	7813      	ldrb	r3, [r2, #0]
 8006330:	ea43 2301 	orr.w	r3, r3, r1, lsl #8
 8006334:	8383      	strh	r3, [r0, #28]
    npcb->state = SYN_RCVD;
 8006336:	2303      	movs	r3, #3
 8006338:	7603      	strb	r3, [r0, #24]
    npcb->rcv_nxt = seqno + 1;
 800633a:	f8d8 3000 	ldr.w	r3, [r8]
 800633e:	1c59      	adds	r1, r3, #1
 8006340:	6281      	str	r1, [r0, #40]	; 0x28
    npcb->rcv_ann_right_edge = npcb->rcv_nxt;
 8006342:	6301      	str	r1, [r0, #48]	; 0x30
    npcb->snd_wl1 = seqno - 1;/* initialise to seqno-1 to force window update */
 8006344:	3b01      	subs	r3, #1
    npcb->snd_wnd = tcphdr->wnd;
 8006346:	89d2      	ldrh	r2, [r2, #14]
    npcb->snd_wl1 = seqno - 1;/* initialise to seqno-1 to force window update */
 8006348:	6543      	str	r3, [r0, #84]	; 0x54
    npcb->callback_arg = pcb->callback_arg;
 800634a:	f8d9 3010 	ldr.w	r3, [r9, #16]
 800634e:	6103      	str	r3, [r0, #16]
    npcb->accept = pcb->accept;
 8006350:	f8d9 3014 	ldr.w	r3, [r9, #20]
    npcb->snd_wnd = tcphdr->wnd;
 8006354:	f8a0 2060 	strh.w	r2, [r0, #96]	; 0x60
    npcb->snd_wnd_max = tcphdr->wnd;
 8006358:	f8a0 2062 	strh.w	r2, [r0, #98]	; 0x62
    npcb->ssthresh = npcb->snd_wnd;
 800635c:	f8a0 204e 	strh.w	r2, [r0, #78]	; 0x4e
    npcb->accept = pcb->accept;
 8006360:	6143      	str	r3, [r0, #20]
    npcb->so_options = pcb->so_options & SOF_INHERITED;
 8006362:	f899 3008 	ldrb.w	r3, [r9, #8]
 8006366:	f023 0373 	bic.w	r3, r3, #115	; 0x73
 800636a:	7203      	strb	r3, [r0, #8]
    TCP_REG_ACTIVE(npcb);
 800636c:	4b91      	ldr	r3, [pc, #580]	; (80065b4 <tcp_input+0x5e8>)
 800636e:	681a      	ldr	r2, [r3, #0]
 8006370:	60c2      	str	r2, [r0, #12]
 8006372:	6018      	str	r0, [r3, #0]
 8006374:	f000 fe78 	bl	8007068 <tcp_timer_needed>
 8006378:	4b8f      	ldr	r3, [pc, #572]	; (80065b8 <tcp_input+0x5ec>)
 800637a:	2201      	movs	r2, #1
    tcp_parseopt(npcb);
 800637c:	f10a 0036 	add.w	r0, sl, #54	; 0x36
    TCP_REG_ACTIVE(npcb);
 8006380:	701a      	strb	r2, [r3, #0]
    tcp_parseopt(npcb);
 8006382:	f7ff fde1 	bl	8005f48 <tcp_parseopt.isra.0>
    npcb->mss = tcp_eff_send_mss(npcb->mss, &(npcb->remote_ip));
 8006386:	f10a 0104 	add.w	r1, sl, #4
 800638a:	f8ba 0036 	ldrh.w	r0, [sl, #54]	; 0x36
 800638e:	f7ff f9a9 	bl	80056e4 <tcp_eff_send_mss>
    rc = tcp_enqueue_flags(npcb, TCP_SYN | TCP_ACK);
 8006392:	2112      	movs	r1, #18
    npcb->mss = tcp_eff_send_mss(npcb->mss, &(npcb->remote_ip));
 8006394:	f8aa 0036 	strh.w	r0, [sl, #54]	; 0x36
    rc = tcp_enqueue_flags(npcb, TCP_SYN | TCP_ACK);
 8006398:	4650      	mov	r0, sl
 800639a:	f000 faf1 	bl	8006980 <tcp_enqueue_flags>
    if (rc != ERR_OK) {
 800639e:	b120      	cbz	r0, 80063aa <tcp_input+0x3de>
      tcp_abandon(npcb, 0);
 80063a0:	4621      	mov	r1, r4
 80063a2:	4650      	mov	r0, sl
 80063a4:	f7ff f8aa 	bl	80054fc <tcp_abandon>
 80063a8:	e747      	b.n	800623a <tcp_input+0x26e>
    return tcp_output(npcb);
 80063aa:	4650      	mov	r0, sl
 80063ac:	e743      	b.n	8006236 <tcp_input+0x26a>
  if (flags & TCP_RST) {
 80063ae:	4d83      	ldr	r5, [pc, #524]	; (80065bc <tcp_input+0x5f0>)
    tcp_input_pcb = pcb;
 80063b0:	603c      	str	r4, [r7, #0]
  if (flags & TCP_RST) {
 80063b2:	782b      	ldrb	r3, [r5, #0]
 80063b4:	075a      	lsls	r2, r3, #29
 80063b6:	d52f      	bpl.n	8006418 <tcp_input+0x44c>
    if (pcb->state == SYN_SENT) {
 80063b8:	7e23      	ldrb	r3, [r4, #24]
 80063ba:	2b02      	cmp	r3, #2
 80063bc:	d10e      	bne.n	80063dc <tcp_input+0x410>
      if (ackno == pcb->snd_nxt) {
 80063be:	4b80      	ldr	r3, [pc, #512]	; (80065c0 <tcp_input+0x5f4>)
 80063c0:	6d22      	ldr	r2, [r4, #80]	; 0x50
 80063c2:	681b      	ldr	r3, [r3, #0]
 80063c4:	429a      	cmp	r2, r3
 80063c6:	d112      	bne.n	80063ee <tcp_input+0x422>
      recv_flags |= TF_RESET;
 80063c8:	f899 3000 	ldrb.w	r3, [r9]
 80063cc:	f043 0308 	orr.w	r3, r3, #8
 80063d0:	f889 3000 	strb.w	r3, [r9]
      pcb->flags &= ~TF_ACK_DELAY;
 80063d4:	7fa3      	ldrb	r3, [r4, #30]
 80063d6:	f023 0301 	bic.w	r3, r3, #1
 80063da:	e027      	b.n	800642c <tcp_input+0x460>
      if (TCP_SEQ_BETWEEN(seqno, pcb->rcv_nxt, 
 80063dc:	4b79      	ldr	r3, [pc, #484]	; (80065c4 <tcp_input+0x5f8>)
 80063de:	6aa2      	ldr	r2, [r4, #40]	; 0x28
 80063e0:	681b      	ldr	r3, [r3, #0]
 80063e2:	1a9b      	subs	r3, r3, r2
 80063e4:	d403      	bmi.n	80063ee <tcp_input+0x422>
 80063e6:	8da2      	ldrh	r2, [r4, #44]	; 0x2c
 80063e8:	1a9b      	subs	r3, r3, r2
 80063ea:	2b00      	cmp	r3, #0
 80063ec:	ddec      	ble.n	80063c8 <tcp_input+0x3fc>
      if (recv_flags & TF_RESET) {
 80063ee:	f899 3000 	ldrb.w	r3, [r9]
 80063f2:	071d      	lsls	r5, r3, #28
 80063f4:	f140 81a4 	bpl.w	8006740 <tcp_input+0x774>
        TCP_EVENT_ERR(pcb->errf, pcb->callback_arg, ERR_RST);
 80063f8:	f8d4 308c 	ldr.w	r3, [r4, #140]	; 0x8c
 80063fc:	b11b      	cbz	r3, 8006406 <tcp_input+0x43a>
 80063fe:	f06f 010a 	mvn.w	r1, #10
          TCP_EVENT_ERR(pcb->errf, pcb->callback_arg, ERR_CLSD);
 8006402:	6920      	ldr	r0, [r4, #16]
 8006404:	4798      	blx	r3
        tcp_pcb_remove(&tcp_active_pcbs, pcb);
 8006406:	4621      	mov	r1, r4
 8006408:	486a      	ldr	r0, [pc, #424]	; (80065b4 <tcp_input+0x5e8>)
 800640a:	f7fe ff01 	bl	8005210 <tcp_pcb_remove>
        memp_free(MEMP_TCP_PCB, pcb);
 800640e:	4621      	mov	r1, r4
 8006410:	2002      	movs	r0, #2
 8006412:	f7fe fa87 	bl	8004924 <memp_free>
 8006416:	e6c8      	b.n	80061aa <tcp_input+0x1de>
  if ((flags & TCP_SYN) && (pcb->state != SYN_SENT && pcb->state != SYN_RCVD)) { 
 8006418:	f013 0f02 	tst.w	r3, #2
 800641c:	7fa3      	ldrb	r3, [r4, #30]
 800641e:	d007      	beq.n	8006430 <tcp_input+0x464>
 8006420:	7e22      	ldrb	r2, [r4, #24]
 8006422:	3a02      	subs	r2, #2
 8006424:	2a01      	cmp	r2, #1
 8006426:	d903      	bls.n	8006430 <tcp_input+0x464>
      tcp_ack_now(pcb);
 8006428:	f043 0302 	orr.w	r3, r3, #2
      pcb->flags &= ~TF_ACK_DELAY;
 800642c:	77a3      	strb	r3, [r4, #30]
 800642e:	e7de      	b.n	80063ee <tcp_input+0x422>
  if ((pcb->flags & TF_RXCLOSED) == 0) {
 8006430:	06d8      	lsls	r0, r3, #27
    pcb->tmr = tcp_ticks;
 8006432:	bf5e      	ittt	pl
 8006434:	4b64      	ldrpl	r3, [pc, #400]	; (80065c8 <tcp_input+0x5fc>)
 8006436:	681b      	ldrpl	r3, [r3, #0]
 8006438:	6263      	strpl	r3, [r4, #36]	; 0x24
  pcb->keep_cnt_sent = 0;
 800643a:	2300      	movs	r3, #0
 800643c:	f884 3096 	strb.w	r3, [r4, #150]	; 0x96
  tcp_parseopt(pcb);
 8006440:	f104 0036 	add.w	r0, r4, #54	; 0x36
 8006444:	f7ff fd80 	bl	8005f48 <tcp_parseopt.isra.0>
  switch (pcb->state) {
 8006448:	7e23      	ldrb	r3, [r4, #24]
 800644a:	3b02      	subs	r3, #2
 800644c:	2b07      	cmp	r3, #7
 800644e:	d8ce      	bhi.n	80063ee <tcp_input+0x422>
 8006450:	e8df f013 	tbh	[pc, r3, lsl #1]
 8006454:	00730008 	.word	0x00730008
 8006458:	00dd00d9 	.word	0x00dd00d9
 800645c:	00d90126 	.word	0x00d90126
 8006460:	01630144 	.word	0x01630144
    if ((flags & TCP_ACK) && (flags & TCP_SYN)
 8006464:	782b      	ldrb	r3, [r5, #0]
 8006466:	f003 0312 	and.w	r3, r3, #18
 800646a:	2b12      	cmp	r3, #18
 800646c:	d150      	bne.n	8006510 <tcp_input+0x544>
        && ackno == ntohl(pcb->unacked->tcphdr->seqno) + 1) {
 800646e:	6f23      	ldr	r3, [r4, #112]	; 0x70
 8006470:	68db      	ldr	r3, [r3, #12]
 8006472:	6858      	ldr	r0, [r3, #4]
 8006474:	f7fd f9e2 	bl	800383c <lwip_ntohl>
 8006478:	4b51      	ldr	r3, [pc, #324]	; (80065c0 <tcp_input+0x5f4>)
 800647a:	681b      	ldr	r3, [r3, #0]
 800647c:	3001      	adds	r0, #1
 800647e:	4298      	cmp	r0, r3
 8006480:	d146      	bne.n	8006510 <tcp_input+0x544>
      pcb->snd_buf++;
 8006482:	f8b4 3066 	ldrh.w	r3, [r4, #102]	; 0x66
      pcb->lastack = ackno;
 8006486:	64a0      	str	r0, [r4, #72]	; 0x48
      pcb->snd_buf++;
 8006488:	3301      	adds	r3, #1
 800648a:	f8a4 3066 	strh.w	r3, [r4, #102]	; 0x66
      pcb->rcv_nxt = seqno + 1;
 800648e:	f8d8 3000 	ldr.w	r3, [r8]
      pcb->mss = tcp_eff_send_mss(pcb->mss, &(pcb->remote_ip));
 8006492:	8ee0      	ldrh	r0, [r4, #54]	; 0x36
      pcb->rcv_nxt = seqno + 1;
 8006494:	1c5a      	adds	r2, r3, #1
 8006496:	62a2      	str	r2, [r4, #40]	; 0x28
      pcb->rcv_ann_right_edge = pcb->rcv_nxt;
 8006498:	6322      	str	r2, [r4, #48]	; 0x30
      pcb->snd_wnd = tcphdr->wnd;
 800649a:	6832      	ldr	r2, [r6, #0]
      pcb->snd_wl1 = seqno - 1; /* initialise to seqno - 1 to force window update */
 800649c:	3b01      	subs	r3, #1
      pcb->snd_wnd = tcphdr->wnd;
 800649e:	89d2      	ldrh	r2, [r2, #14]
      pcb->snd_wl1 = seqno - 1; /* initialise to seqno - 1 to force window update */
 80064a0:	6563      	str	r3, [r4, #84]	; 0x54
      pcb->state = ESTABLISHED;
 80064a2:	2304      	movs	r3, #4
      pcb->mss = tcp_eff_send_mss(pcb->mss, &(pcb->remote_ip));
 80064a4:	18e1      	adds	r1, r4, r3
      pcb->snd_wnd = tcphdr->wnd;
 80064a6:	f8a4 2060 	strh.w	r2, [r4, #96]	; 0x60
      pcb->snd_wnd_max = tcphdr->wnd;
 80064aa:	f8a4 2062 	strh.w	r2, [r4, #98]	; 0x62
      pcb->state = ESTABLISHED;
 80064ae:	7623      	strb	r3, [r4, #24]
      pcb->mss = tcp_eff_send_mss(pcb->mss, &(pcb->remote_ip));
 80064b0:	f7ff f918 	bl	80056e4 <tcp_eff_send_mss>
      pcb->ssthresh = pcb->mss * 10;
 80064b4:	eb00 0380 	add.w	r3, r0, r0, lsl #2
 80064b8:	005b      	lsls	r3, r3, #1
 80064ba:	f8a4 304e 	strh.w	r3, [r4, #78]	; 0x4e
      pcb->cwnd = ((pcb->cwnd == 1) ? (pcb->mss * 2) : pcb->mss);
 80064be:	f8b4 304c 	ldrh.w	r3, [r4, #76]	; 0x4c
      pcb->mss = tcp_eff_send_mss(pcb->mss, &(pcb->remote_ip));
 80064c2:	86e0      	strh	r0, [r4, #54]	; 0x36
      pcb->cwnd = ((pcb->cwnd == 1) ? (pcb->mss * 2) : pcb->mss);
 80064c4:	2b01      	cmp	r3, #1
 80064c6:	bf04      	itt	eq
 80064c8:	0040      	lsleq	r0, r0, #1
 80064ca:	b280      	uxtheq	r0, r0
      --pcb->snd_queuelen;
 80064cc:	f8b4 3068 	ldrh.w	r3, [r4, #104]	; 0x68
      pcb->cwnd = ((pcb->cwnd == 1) ? (pcb->mss * 2) : pcb->mss);
 80064d0:	f8a4 004c 	strh.w	r0, [r4, #76]	; 0x4c
      rseg = pcb->unacked;
 80064d4:	6f20      	ldr	r0, [r4, #112]	; 0x70
      --pcb->snd_queuelen;
 80064d6:	3b01      	subs	r3, #1
 80064d8:	f8a4 3068 	strh.w	r3, [r4, #104]	; 0x68
      pcb->unacked = rseg->next;
 80064dc:	6803      	ldr	r3, [r0, #0]
 80064de:	6723      	str	r3, [r4, #112]	; 0x70
      tcp_seg_free(rseg);
 80064e0:	f7fe fcde 	bl	8004ea0 <tcp_seg_free>
      if(pcb->unacked == NULL)
 80064e4:	6f23      	ldr	r3, [r4, #112]	; 0x70
 80064e6:	b93b      	cbnz	r3, 80064f8 <tcp_input+0x52c>
        pcb->rtime = -1;
 80064e8:	f64f 73ff 	movw	r3, #65535	; 0xffff
 80064ec:	86a3      	strh	r3, [r4, #52]	; 0x34
      TCP_EVENT_CONNECTED(pcb, ERR_OK, err);
 80064ee:	f8d4 3084 	ldr.w	r3, [r4, #132]	; 0x84
 80064f2:	b933      	cbnz	r3, 8006502 <tcp_input+0x536>
      tcp_ack_now(pcb);
 80064f4:	7fa3      	ldrb	r3, [r4, #30]
 80064f6:	e797      	b.n	8006428 <tcp_input+0x45c>
        pcb->rtime = 0;
 80064f8:	2300      	movs	r3, #0
 80064fa:	86a3      	strh	r3, [r4, #52]	; 0x34
        pcb->nrtx = 0;
 80064fc:	f884 3046 	strb.w	r3, [r4, #70]	; 0x46
 8006500:	e7f5      	b.n	80064ee <tcp_input+0x522>
      TCP_EVENT_CONNECTED(pcb, ERR_OK, err);
 8006502:	2200      	movs	r2, #0
 8006504:	4621      	mov	r1, r4
 8006506:	6920      	ldr	r0, [r4, #16]
 8006508:	4798      	blx	r3
      if (err == ERR_ABRT) {
 800650a:	300a      	adds	r0, #10
 800650c:	d1f2      	bne.n	80064f4 <tcp_input+0x528>
 800650e:	e64c      	b.n	80061aa <tcp_input+0x1de>
    else if (flags & TCP_ACK) {
 8006510:	782b      	ldrb	r3, [r5, #0]
 8006512:	06d9      	lsls	r1, r3, #27
 8006514:	f57f af6b 	bpl.w	80063ee <tcp_input+0x422>
        tcphdr->dest, tcphdr->src);
 8006518:	6833      	ldr	r3, [r6, #0]
      tcp_rst(ackno, seqno + tcplen, ip_current_dest_addr(), ip_current_src_addr(),
 800651a:	9a04      	ldr	r2, [sp, #16]
 800651c:	f8d8 1000 	ldr.w	r1, [r8]
 8006520:	8810      	ldrh	r0, [r2, #0]
 8006522:	881a      	ldrh	r2, [r3, #0]
 8006524:	9201      	str	r2, [sp, #4]
 8006526:	885b      	ldrh	r3, [r3, #2]
 8006528:	9300      	str	r3, [sp, #0]
 800652a:	4401      	add	r1, r0
 800652c:	4824      	ldr	r0, [pc, #144]	; (80065c0 <tcp_input+0x5f4>)
 800652e:	4b27      	ldr	r3, [pc, #156]	; (80065cc <tcp_input+0x600>)
 8006530:	4a1f      	ldr	r2, [pc, #124]	; (80065b0 <tcp_input+0x5e4>)
 8006532:	6800      	ldr	r0, [r0, #0]
        tcp_rst(ackno, seqno + tcplen, ip_current_dest_addr(), ip_current_src_addr(),
 8006534:	f000 fc1e 	bl	8006d74 <tcp_rst>
 8006538:	e759      	b.n	80063ee <tcp_input+0x422>
    if (flags & TCP_ACK) {
 800653a:	782b      	ldrb	r3, [r5, #0]
 800653c:	06da      	lsls	r2, r3, #27
 800653e:	d554      	bpl.n	80065ea <tcp_input+0x61e>
      if (TCP_SEQ_BETWEEN(ackno, pcb->lastack+1, pcb->snd_nxt)) {
 8006540:	4b1f      	ldr	r3, [pc, #124]	; (80065c0 <tcp_input+0x5f4>)
 8006542:	6818      	ldr	r0, [r3, #0]
 8006544:	6ca3      	ldr	r3, [r4, #72]	; 0x48
 8006546:	43db      	mvns	r3, r3
 8006548:	42c3      	cmn	r3, r0
 800654a:	d441      	bmi.n	80065d0 <tcp_input+0x604>
 800654c:	6d23      	ldr	r3, [r4, #80]	; 0x50
 800654e:	1ac3      	subs	r3, r0, r3
 8006550:	2b00      	cmp	r3, #0
 8006552:	dc3d      	bgt.n	80065d0 <tcp_input+0x604>
        pcb->state = ESTABLISHED;
 8006554:	2304      	movs	r3, #4
 8006556:	7623      	strb	r3, [r4, #24]
        LWIP_ASSERT("pcb->accept != NULL", pcb->accept != NULL);
 8006558:	6963      	ldr	r3, [r4, #20]
        TCP_EVENT_ACCEPT(pcb, ERR_OK, err);
 800655a:	b91b      	cbnz	r3, 8006564 <tcp_input+0x598>
            tcp_abort(pcb);
 800655c:	4620      	mov	r0, r4
 800655e:	f7ff f81b 	bl	8005598 <tcp_abort>
            goto aborted;
 8006562:	e622      	b.n	80061aa <tcp_input+0x1de>
        TCP_EVENT_ACCEPT(pcb, ERR_OK, err);
 8006564:	2200      	movs	r2, #0
 8006566:	4621      	mov	r1, r4
 8006568:	6920      	ldr	r0, [r4, #16]
 800656a:	4798      	blx	r3
        if (err != ERR_OK) {
 800656c:	b110      	cbz	r0, 8006574 <tcp_input+0x5a8>
          if (err != ERR_ABRT) {
 800656e:	300a      	adds	r0, #10
 8006570:	d1f4      	bne.n	800655c <tcp_input+0x590>
 8006572:	e61a      	b.n	80061aa <tcp_input+0x1de>
        tcp_receive(pcb);
 8006574:	4620      	mov	r0, r4
        old_cwnd = pcb->cwnd;
 8006576:	f8b4 504c 	ldrh.w	r5, [r4, #76]	; 0x4c
        tcp_receive(pcb);
 800657a:	f7ff f901 	bl	8005780 <tcp_receive>
        if (pcb->acked != 0) {
 800657e:	f8b4 3064 	ldrh.w	r3, [r4, #100]	; 0x64
 8006582:	b113      	cbz	r3, 800658a <tcp_input+0x5be>
          pcb->acked--;
 8006584:	3b01      	subs	r3, #1
 8006586:	f8a4 3064 	strh.w	r3, [r4, #100]	; 0x64
        pcb->cwnd = ((old_cwnd == 1) ? (pcb->mss * 2) : pcb->mss);
 800658a:	8ee3      	ldrh	r3, [r4, #54]	; 0x36
 800658c:	2d01      	cmp	r5, #1
 800658e:	bf04      	itt	eq
 8006590:	005b      	lsleq	r3, r3, #1
 8006592:	b29b      	uxtheq	r3, r3
 8006594:	f8a4 304c 	strh.w	r3, [r4, #76]	; 0x4c
    if (recv_flags & TF_GOT_FIN) { /* passive close */
 8006598:	f899 3000 	ldrb.w	r3, [r9]
 800659c:	0698      	lsls	r0, r3, #26
 800659e:	f57f af26 	bpl.w	80063ee <tcp_input+0x422>
      tcp_ack_now(pcb);
 80065a2:	7fa3      	ldrb	r3, [r4, #30]
 80065a4:	f043 0302 	orr.w	r3, r3, #2
 80065a8:	77a3      	strb	r3, [r4, #30]
      pcb->state = CLOSE_WAIT;
 80065aa:	2307      	movs	r3, #7
      pcb->state = FIN_WAIT_2;
 80065ac:	7623      	strb	r3, [r4, #24]
 80065ae:	e71e      	b.n	80063ee <tcp_input+0x422>
 80065b0:	20008394 	.word	0x20008394
 80065b4:	2000abe4 	.word	0x2000abe4
 80065b8:	2000abe0 	.word	0x2000abe0
 80065bc:	2000719c 	.word	0x2000719c
 80065c0:	20007198 	.word	0x20007198
 80065c4:	200071b8 	.word	0x200071b8
 80065c8:	2000abe8 	.word	0x2000abe8
 80065cc:	2000838c 	.word	0x2000838c
                tcphdr->dest, tcphdr->src);
 80065d0:	6833      	ldr	r3, [r6, #0]
        tcp_rst(ackno, seqno + tcplen, ip_current_dest_addr(), ip_current_src_addr(),
 80065d2:	9a04      	ldr	r2, [sp, #16]
 80065d4:	f8d8 1000 	ldr.w	r1, [r8]
 80065d8:	8815      	ldrh	r5, [r2, #0]
 80065da:	881a      	ldrh	r2, [r3, #0]
 80065dc:	9201      	str	r2, [sp, #4]
 80065de:	885b      	ldrh	r3, [r3, #2]
 80065e0:	9300      	str	r3, [sp, #0]
 80065e2:	4a94      	ldr	r2, [pc, #592]	; (8006834 <tcp_input+0x868>)
 80065e4:	4b94      	ldr	r3, [pc, #592]	; (8006838 <tcp_input+0x86c>)
 80065e6:	4429      	add	r1, r5
 80065e8:	e7a4      	b.n	8006534 <tcp_input+0x568>
    } else if ((flags & TCP_SYN) && (seqno == pcb->rcv_nxt - 1)) {
 80065ea:	079d      	lsls	r5, r3, #30
 80065ec:	f57f aeff 	bpl.w	80063ee <tcp_input+0x422>
 80065f0:	4a92      	ldr	r2, [pc, #584]	; (800683c <tcp_input+0x870>)
 80065f2:	6aa3      	ldr	r3, [r4, #40]	; 0x28
 80065f4:	6812      	ldr	r2, [r2, #0]
 80065f6:	3b01      	subs	r3, #1
 80065f8:	4293      	cmp	r3, r2
 80065fa:	f47f aef8 	bne.w	80063ee <tcp_input+0x422>
      tcp_rexmit(pcb);
 80065fe:	4620      	mov	r0, r4
 8006600:	f000 fc27 	bl	8006e52 <tcp_rexmit>
 8006604:	e6f3      	b.n	80063ee <tcp_input+0x422>
    tcp_receive(pcb);
 8006606:	4620      	mov	r0, r4
 8006608:	f7ff f8ba 	bl	8005780 <tcp_receive>
 800660c:	e7c4      	b.n	8006598 <tcp_input+0x5cc>
    tcp_receive(pcb);
 800660e:	4620      	mov	r0, r4
 8006610:	f7ff f8b6 	bl	8005780 <tcp_receive>
    if (recv_flags & TF_GOT_FIN) {
 8006614:	f899 3000 	ldrb.w	r3, [r9]
 8006618:	f013 0f20 	tst.w	r3, #32
      if ((flags & TCP_ACK) && (ackno == pcb->snd_nxt)) {
 800661c:	782b      	ldrb	r3, [r5, #0]
    if (recv_flags & TF_GOT_FIN) {
 800661e:	d034      	beq.n	800668a <tcp_input+0x6be>
      if ((flags & TCP_ACK) && (ackno == pcb->snd_nxt)) {
 8006620:	f013 0f10 	tst.w	r3, #16
 8006624:	7fa3      	ldrb	r3, [r4, #30]
        tcp_ack_now(pcb);
 8006626:	f043 0302 	orr.w	r3, r3, #2
      if ((flags & TCP_ACK) && (ackno == pcb->snd_nxt)) {
 800662a:	d02b      	beq.n	8006684 <tcp_input+0x6b8>
 800662c:	4a84      	ldr	r2, [pc, #528]	; (8006840 <tcp_input+0x874>)
 800662e:	6d21      	ldr	r1, [r4, #80]	; 0x50
 8006630:	6812      	ldr	r2, [r2, #0]
 8006632:	4291      	cmp	r1, r2
 8006634:	d126      	bne.n	8006684 <tcp_input+0x6b8>
        tcp_ack_now(pcb);
 8006636:	77a3      	strb	r3, [r4, #30]
        tcp_pcb_purge(pcb);
 8006638:	4620      	mov	r0, r4
 800663a:	f7fe fc5d 	bl	8004ef8 <tcp_pcb_purge>
        TCP_RMV_ACTIVE(pcb);
 800663e:	4a81      	ldr	r2, [pc, #516]	; (8006844 <tcp_input+0x878>)
 8006640:	6813      	ldr	r3, [r2, #0]
 8006642:	429c      	cmp	r4, r3
 8006644:	d102      	bne.n	800664c <tcp_input+0x680>
      TCP_RMV_ACTIVE(pcb);
 8006646:	68e3      	ldr	r3, [r4, #12]
 8006648:	6013      	str	r3, [r2, #0]
 800664a:	e00c      	b.n	8006666 <tcp_input+0x69a>
        TCP_RMV_ACTIVE(pcb);
 800664c:	4a7e      	ldr	r2, [pc, #504]	; (8006848 <tcp_input+0x87c>)
 800664e:	2100      	movs	r1, #0
 8006650:	6013      	str	r3, [r2, #0]
 8006652:	b90b      	cbnz	r3, 8006658 <tcp_input+0x68c>
 8006654:	b139      	cbz	r1, 8006666 <tcp_input+0x69a>
 8006656:	e7f7      	b.n	8006648 <tcp_input+0x67c>
 8006658:	68d8      	ldr	r0, [r3, #12]
 800665a:	4284      	cmp	r4, r0
 800665c:	d10f      	bne.n	800667e <tcp_input+0x6b2>
 800665e:	b101      	cbz	r1, 8006662 <tcp_input+0x696>
 8006660:	6013      	str	r3, [r2, #0]
      TCP_RMV_ACTIVE(pcb);
 8006662:	68e2      	ldr	r2, [r4, #12]
 8006664:	60da      	str	r2, [r3, #12]
 8006666:	4b79      	ldr	r3, [pc, #484]	; (800684c <tcp_input+0x880>)
 8006668:	2201      	movs	r2, #1
 800666a:	701a      	strb	r2, [r3, #0]
      pcb->state = TIME_WAIT;
 800666c:	230a      	movs	r3, #10
 800666e:	7623      	strb	r3, [r4, #24]
      TCP_REG(&tcp_tw_pcbs, pcb);
 8006670:	4b77      	ldr	r3, [pc, #476]	; (8006850 <tcp_input+0x884>)
 8006672:	681a      	ldr	r2, [r3, #0]
 8006674:	60e2      	str	r2, [r4, #12]
 8006676:	601c      	str	r4, [r3, #0]
 8006678:	f000 fcf6 	bl	8007068 <tcp_timer_needed>
 800667c:	e6b7      	b.n	80063ee <tcp_input+0x422>
        TCP_RMV_ACTIVE(pcb);
 800667e:	2101      	movs	r1, #1
 8006680:	4603      	mov	r3, r0
 8006682:	e7e6      	b.n	8006652 <tcp_input+0x686>
        tcp_ack_now(pcb);
 8006684:	77a3      	strb	r3, [r4, #30]
        pcb->state = CLOSING;
 8006686:	2308      	movs	r3, #8
 8006688:	e790      	b.n	80065ac <tcp_input+0x5e0>
    } else if ((flags & TCP_ACK) && (ackno == pcb->snd_nxt)) {
 800668a:	06d9      	lsls	r1, r3, #27
 800668c:	f57f aeaf 	bpl.w	80063ee <tcp_input+0x422>
 8006690:	4b6b      	ldr	r3, [pc, #428]	; (8006840 <tcp_input+0x874>)
 8006692:	6d22      	ldr	r2, [r4, #80]	; 0x50
 8006694:	681b      	ldr	r3, [r3, #0]
 8006696:	429a      	cmp	r2, r3
 8006698:	f47f aea9 	bne.w	80063ee <tcp_input+0x422>
      pcb->state = FIN_WAIT_2;
 800669c:	2306      	movs	r3, #6
 800669e:	e785      	b.n	80065ac <tcp_input+0x5e0>
    tcp_receive(pcb);
 80066a0:	4620      	mov	r0, r4
 80066a2:	f7ff f86d 	bl	8005780 <tcp_receive>
    if (recv_flags & TF_GOT_FIN) {
 80066a6:	f899 3000 	ldrb.w	r3, [r9]
 80066aa:	069a      	lsls	r2, r3, #26
 80066ac:	f57f ae9f 	bpl.w	80063ee <tcp_input+0x422>
      tcp_ack_now(pcb);
 80066b0:	7fa3      	ldrb	r3, [r4, #30]
 80066b2:	f043 0302 	orr.w	r3, r3, #2
 80066b6:	77a3      	strb	r3, [r4, #30]
      tcp_pcb_purge(pcb);
 80066b8:	4620      	mov	r0, r4
 80066ba:	f7fe fc1d 	bl	8004ef8 <tcp_pcb_purge>
      TCP_RMV_ACTIVE(pcb);
 80066be:	4a61      	ldr	r2, [pc, #388]	; (8006844 <tcp_input+0x878>)
 80066c0:	6813      	ldr	r3, [r2, #0]
 80066c2:	429c      	cmp	r4, r3
 80066c4:	d0bf      	beq.n	8006646 <tcp_input+0x67a>
 80066c6:	4a60      	ldr	r2, [pc, #384]	; (8006848 <tcp_input+0x87c>)
 80066c8:	2100      	movs	r1, #0
 80066ca:	6013      	str	r3, [r2, #0]
 80066cc:	2b00      	cmp	r3, #0
 80066ce:	d0c1      	beq.n	8006654 <tcp_input+0x688>
 80066d0:	68d8      	ldr	r0, [r3, #12]
 80066d2:	4284      	cmp	r4, r0
 80066d4:	d0c3      	beq.n	800665e <tcp_input+0x692>
 80066d6:	2101      	movs	r1, #1
 80066d8:	4603      	mov	r3, r0
 80066da:	e7f7      	b.n	80066cc <tcp_input+0x700>
    tcp_receive(pcb);
 80066dc:	4620      	mov	r0, r4
 80066de:	f7ff f84f 	bl	8005780 <tcp_receive>
    if (flags & TCP_ACK && ackno == pcb->snd_nxt) {
 80066e2:	782b      	ldrb	r3, [r5, #0]
 80066e4:	06db      	lsls	r3, r3, #27
 80066e6:	f57f ae82 	bpl.w	80063ee <tcp_input+0x422>
 80066ea:	4b55      	ldr	r3, [pc, #340]	; (8006840 <tcp_input+0x874>)
 80066ec:	6d22      	ldr	r2, [r4, #80]	; 0x50
 80066ee:	681b      	ldr	r3, [r3, #0]
 80066f0:	429a      	cmp	r2, r3
 80066f2:	f47f ae7c 	bne.w	80063ee <tcp_input+0x422>
      tcp_pcb_purge(pcb);
 80066f6:	4620      	mov	r0, r4
 80066f8:	f7fe fbfe 	bl	8004ef8 <tcp_pcb_purge>
      TCP_RMV_ACTIVE(pcb);
 80066fc:	4a51      	ldr	r2, [pc, #324]	; (8006844 <tcp_input+0x878>)
 80066fe:	6813      	ldr	r3, [r2, #0]
 8006700:	429c      	cmp	r4, r3
 8006702:	d0a0      	beq.n	8006646 <tcp_input+0x67a>
 8006704:	4a50      	ldr	r2, [pc, #320]	; (8006848 <tcp_input+0x87c>)
 8006706:	2100      	movs	r1, #0
 8006708:	6013      	str	r3, [r2, #0]
 800670a:	2b00      	cmp	r3, #0
 800670c:	d0a2      	beq.n	8006654 <tcp_input+0x688>
 800670e:	68d8      	ldr	r0, [r3, #12]
 8006710:	4284      	cmp	r4, r0
 8006712:	d0a4      	beq.n	800665e <tcp_input+0x692>
 8006714:	2101      	movs	r1, #1
 8006716:	4603      	mov	r3, r0
 8006718:	e7f7      	b.n	800670a <tcp_input+0x73e>
    tcp_receive(pcb);
 800671a:	4620      	mov	r0, r4
 800671c:	f7ff f830 	bl	8005780 <tcp_receive>
    if (flags & TCP_ACK && ackno == pcb->snd_nxt) {
 8006720:	782b      	ldrb	r3, [r5, #0]
 8006722:	06de      	lsls	r6, r3, #27
 8006724:	f57f ae63 	bpl.w	80063ee <tcp_input+0x422>
 8006728:	4b45      	ldr	r3, [pc, #276]	; (8006840 <tcp_input+0x874>)
 800672a:	6d22      	ldr	r2, [r4, #80]	; 0x50
 800672c:	681b      	ldr	r3, [r3, #0]
 800672e:	429a      	cmp	r2, r3
      recv_flags |= TF_CLOSED;
 8006730:	bf02      	ittt	eq
 8006732:	f899 3000 	ldrbeq.w	r3, [r9]
 8006736:	f043 0310 	orreq.w	r3, r3, #16
 800673a:	f889 3000 	strbeq.w	r3, [r9]
 800673e:	e656      	b.n	80063ee <tcp_input+0x422>
      } else if (recv_flags & TF_CLOSED) {
 8006740:	06d8      	lsls	r0, r3, #27
 8006742:	d50b      	bpl.n	800675c <tcp_input+0x790>
        if (!(pcb->flags & TF_RXCLOSED)) {
 8006744:	7fa3      	ldrb	r3, [r4, #30]
 8006746:	06d9      	lsls	r1, r3, #27
 8006748:	f53f ae5d 	bmi.w	8006406 <tcp_input+0x43a>
          TCP_EVENT_ERR(pcb->errf, pcb->callback_arg, ERR_CLSD);
 800674c:	f8d4 308c 	ldr.w	r3, [r4, #140]	; 0x8c
 8006750:	2b00      	cmp	r3, #0
 8006752:	f43f ae58 	beq.w	8006406 <tcp_input+0x43a>
 8006756:	f06f 010b 	mvn.w	r1, #11
 800675a:	e652      	b.n	8006402 <tcp_input+0x436>
        if (pcb->acked > 0) {
 800675c:	f8b4 2064 	ldrh.w	r2, [r4, #100]	; 0x64
 8006760:	b992      	cbnz	r2, 8006788 <tcp_input+0x7bc>
        if (recv_data != NULL) {
 8006762:	f8db 2000 	ldr.w	r2, [fp]
 8006766:	b9c2      	cbnz	r2, 800679a <tcp_input+0x7ce>
        if (recv_flags & TF_GOT_FIN) {
 8006768:	f899 3000 	ldrb.w	r3, [r9]
 800676c:	069a      	lsls	r2, r3, #26
 800676e:	d505      	bpl.n	800677c <tcp_input+0x7b0>
          if (pcb->refused_data != NULL) {
 8006770:	6fa3      	ldr	r3, [r4, #120]	; 0x78
 8006772:	b383      	cbz	r3, 80067d6 <tcp_input+0x80a>
            pcb->refused_data->flags |= PBUF_FLAG_TCP_FIN;
 8006774:	7b5a      	ldrb	r2, [r3, #13]
 8006776:	f042 0220 	orr.w	r2, r2, #32
 800677a:	735a      	strb	r2, [r3, #13]
        tcp_input_pcb = NULL;
 800677c:	2300      	movs	r3, #0
        tcp_output(pcb);
 800677e:	4620      	mov	r0, r4
        tcp_input_pcb = NULL;
 8006780:	603b      	str	r3, [r7, #0]
        tcp_output(pcb);
 8006782:	f000 f9b1 	bl	8006ae8 <tcp_output>
 8006786:	e510      	b.n	80061aa <tcp_input+0x1de>
          TCP_EVENT_SENT(pcb, pcb->acked, err);
 8006788:	6fe3      	ldr	r3, [r4, #124]	; 0x7c
 800678a:	2b00      	cmp	r3, #0
 800678c:	d0e9      	beq.n	8006762 <tcp_input+0x796>
 800678e:	4621      	mov	r1, r4
 8006790:	6920      	ldr	r0, [r4, #16]
 8006792:	4798      	blx	r3
          if (err == ERR_ABRT) {
 8006794:	300a      	adds	r0, #10
 8006796:	d1e4      	bne.n	8006762 <tcp_input+0x796>
 8006798:	e507      	b.n	80061aa <tcp_input+0x1de>
          if (pcb->flags & TF_RXCLOSED) {
 800679a:	7fa3      	ldrb	r3, [r4, #30]
 800679c:	f013 0310 	ands.w	r3, r3, #16
 80067a0:	d003      	beq.n	80067aa <tcp_input+0x7de>
            pbuf_free(recv_data);
 80067a2:	4610      	mov	r0, r2
 80067a4:	f7fe f98d 	bl	8004ac2 <pbuf_free>
 80067a8:	e6d8      	b.n	800655c <tcp_input+0x590>
          TCP_EVENT_RECV(pcb, recv_data, ERR_OK, err);
 80067aa:	f8d4 5080 	ldr.w	r5, [r4, #128]	; 0x80
 80067ae:	b165      	cbz	r5, 80067ca <tcp_input+0x7fe>
 80067b0:	4621      	mov	r1, r4
 80067b2:	6920      	ldr	r0, [r4, #16]
 80067b4:	47a8      	blx	r5
          if (err == ERR_ABRT) {
 80067b6:	f110 0f0a 	cmn.w	r0, #10
 80067ba:	f43f acf6 	beq.w	80061aa <tcp_input+0x1de>
          if (err != ERR_OK) {
 80067be:	2800      	cmp	r0, #0
 80067c0:	d0d2      	beq.n	8006768 <tcp_input+0x79c>
            pcb->refused_data = recv_data;
 80067c2:	f8db 3000 	ldr.w	r3, [fp]
 80067c6:	67a3      	str	r3, [r4, #120]	; 0x78
 80067c8:	e7ce      	b.n	8006768 <tcp_input+0x79c>
          TCP_EVENT_RECV(pcb, recv_data, ERR_OK, err);
 80067ca:	462b      	mov	r3, r5
 80067cc:	4621      	mov	r1, r4
 80067ce:	4628      	mov	r0, r5
 80067d0:	f7fe fe04 	bl	80053dc <tcp_recv_null>
 80067d4:	e7ef      	b.n	80067b6 <tcp_input+0x7ea>
            if (pcb->rcv_wnd != TCP_WND) {
 80067d6:	8da3      	ldrh	r3, [r4, #44]	; 0x2c
            TCP_EVENT_CLOSED(pcb, err);
 80067d8:	f8d4 5080 	ldr.w	r5, [r4, #128]	; 0x80
            if (pcb->rcv_wnd != TCP_WND) {
 80067dc:	f241 62d0 	movw	r2, #5840	; 0x16d0
 80067e0:	4293      	cmp	r3, r2
              pcb->rcv_wnd++;
 80067e2:	bf1c      	itt	ne
 80067e4:	3301      	addne	r3, #1
 80067e6:	85a3      	strhne	r3, [r4, #44]	; 0x2c
            TCP_EVENT_CLOSED(pcb, err);
 80067e8:	2d00      	cmp	r5, #0
 80067ea:	d0c7      	beq.n	800677c <tcp_input+0x7b0>
 80067ec:	2300      	movs	r3, #0
 80067ee:	461a      	mov	r2, r3
 80067f0:	4621      	mov	r1, r4
 80067f2:	6920      	ldr	r0, [r4, #16]
 80067f4:	47a8      	blx	r5
            if (err == ERR_ABRT) {
 80067f6:	300a      	adds	r0, #10
 80067f8:	d1c0      	bne.n	800677c <tcp_input+0x7b0>
 80067fa:	e4d6      	b.n	80061aa <tcp_input+0x1de>
      if (prev != NULL) {
 80067fc:	b138      	cbz	r0, 800680e <tcp_input+0x842>
        ((struct tcp_pcb_listen *)prev)->next = lpcb->next;
 80067fe:	f8d9 100c 	ldr.w	r1, [r9, #12]
 8006802:	60c1      	str	r1, [r0, #12]
        tcp_listen_pcbs.listen_pcbs = lpcb;
 8006804:	4813      	ldr	r0, [pc, #76]	; (8006854 <tcp_input+0x888>)
        lpcb->next = tcp_listen_pcbs.listen_pcbs;
 8006806:	f8c9 400c 	str.w	r4, [r9, #12]
        tcp_listen_pcbs.listen_pcbs = lpcb;
 800680a:	f8c0 9000 	str.w	r9, [r0]
  if (flags & TCP_RST) {
 800680e:	0758      	lsls	r0, r3, #29
 8006810:	f53f ad13 	bmi.w	800623a <tcp_input+0x26e>
  if (flags & TCP_ACK) {
 8006814:	f013 0410 	ands.w	r4, r3, #16
 8006818:	f43f ad70 	beq.w	80062fc <tcp_input+0x330>
    tcp_rst(ackno, seqno + tcplen, ip_current_dest_addr(),
 800681c:	4b07      	ldr	r3, [pc, #28]	; (800683c <tcp_input+0x870>)
 800681e:	6818      	ldr	r0, [r3, #0]
 8006820:	8813      	ldrh	r3, [r2, #0]
 8006822:	9301      	str	r3, [sp, #4]
 8006824:	9b03      	ldr	r3, [sp, #12]
 8006826:	9300      	str	r3, [sp, #0]
 8006828:	4a02      	ldr	r2, [pc, #8]	; (8006834 <tcp_input+0x868>)
 800682a:	4b03      	ldr	r3, [pc, #12]	; (8006838 <tcp_input+0x86c>)
 800682c:	eb0b 0100 	add.w	r1, fp, r0
 8006830:	e4f0      	b.n	8006214 <tcp_input+0x248>
 8006832:	bf00      	nop
 8006834:	20008394 	.word	0x20008394
 8006838:	2000838c 	.word	0x2000838c
 800683c:	200071b8 	.word	0x200071b8
 8006840:	20007198 	.word	0x20007198
 8006844:	2000abe4 	.word	0x2000abe4
 8006848:	2000abf0 	.word	0x2000abf0
 800684c:	2000abe0 	.word	0x2000abe0
 8006850:	2000abf8 	.word	0x2000abf8
 8006854:	2000abec 	.word	0x2000abec

08006858 <tcp_create_segment>:
 * The TCP header is filled in except ackno and wnd.
 * p is freed on failure.
 */
static struct tcp_seg *
tcp_create_segment(struct tcp_pcb *pcb, struct pbuf *p, u8_t flags, u32_t seqno, u8_t optflags)
{
 8006858:	e92d 47f0 	stmdb	sp!, {r4, r5, r6, r7, r8, r9, sl, lr}
 800685c:	f89d 8020 	ldrb.w	r8, [sp, #32]
  struct tcp_seg *seg;
  u8_t optlen = LWIP_TCP_OPT_LENGTH(optflags);
 8006860:	f018 0f01 	tst.w	r8, #1
 8006864:	bf14      	ite	ne
 8006866:	2504      	movne	r5, #4
 8006868:	2500      	moveq	r5, #0
 800686a:	f018 0f02 	tst.w	r8, #2
{
 800686e:	469a      	mov	sl, r3
 8006870:	4681      	mov	r9, r0
  u8_t optlen = LWIP_TCP_OPT_LENGTH(optflags);
 8006872:	bf14      	ite	ne
 8006874:	230c      	movne	r3, #12
 8006876:	2300      	moveq	r3, #0

  if ((seg = (struct tcp_seg *)memp_malloc(MEMP_TCP_SEG)) == NULL) {
 8006878:	2004      	movs	r0, #4
{
 800687a:	460f      	mov	r7, r1
 800687c:	4616      	mov	r6, r2
  u8_t optlen = LWIP_TCP_OPT_LENGTH(optflags);
 800687e:	441d      	add	r5, r3
  if ((seg = (struct tcp_seg *)memp_malloc(MEMP_TCP_SEG)) == NULL) {
 8006880:	f7fe f826 	bl	80048d0 <memp_malloc>
 8006884:	4604      	mov	r4, r0
 8006886:	b928      	cbnz	r0, 8006894 <tcp_create_segment+0x3c>
    LWIP_DEBUGF(TCP_OUTPUT_DEBUG | 2, ("tcp_create_segment: no memory.\n"));
    pbuf_free(p);
 8006888:	4638      	mov	r0, r7
 800688a:	f7fe f91a 	bl	8004ac2 <pbuf_free>
  /* ackno is set in tcp_output */
  TCPH_HDRLEN_FLAGS_SET(seg->tcphdr, (5 + optlen / 4), flags);
  /* wnd and chksum are set in tcp_output */
  seg->tcphdr->urgp = 0;
  return seg;
} 
 800688e:	4620      	mov	r0, r4
 8006890:	e8bd 87f0 	ldmia.w	sp!, {r4, r5, r6, r7, r8, r9, sl, pc}
  seg->flags = optflags;
 8006894:	f880 800a 	strb.w	r8, [r0, #10]
  seg->len = p->tot_len - optlen;
 8006898:	893b      	ldrh	r3, [r7, #8]
  seg->p = p;
 800689a:	6047      	str	r7, [r0, #4]
  seg->len = p->tot_len - optlen;
 800689c:	1b5b      	subs	r3, r3, r5
  seg->next = NULL;
 800689e:	f04f 0800 	mov.w	r8, #0
 80068a2:	f8c0 8000 	str.w	r8, [r0]
  seg->len = p->tot_len - optlen;
 80068a6:	8103      	strh	r3, [r0, #8]
  if (pbuf_header(p, TCP_HLEN)) {
 80068a8:	2114      	movs	r1, #20
 80068aa:	4638      	mov	r0, r7
 80068ac:	f7fe f8de 	bl	8004a6c <pbuf_header>
 80068b0:	4607      	mov	r7, r0
 80068b2:	b150      	cbz	r0, 80068ca <tcp_create_segment+0x72>
    TCP_STATS_INC(tcp.err);
 80068b4:	4a1a      	ldr	r2, [pc, #104]	; (8006920 <tcp_create_segment+0xc8>)
 80068b6:	f8b2 30a4 	ldrh.w	r3, [r2, #164]	; 0xa4
    tcp_seg_free(seg);
 80068ba:	4620      	mov	r0, r4
    TCP_STATS_INC(tcp.err);
 80068bc:	3301      	adds	r3, #1
 80068be:	f8a2 30a4 	strh.w	r3, [r2, #164]	; 0xa4
    return NULL;
 80068c2:	4644      	mov	r4, r8
    tcp_seg_free(seg);
 80068c4:	f7fe faec 	bl	8004ea0 <tcp_seg_free>
    return NULL;
 80068c8:	e7e1      	b.n	800688e <tcp_create_segment+0x36>
  seg->tcphdr = (struct tcp_hdr *)seg->p->payload;
 80068ca:	6863      	ldr	r3, [r4, #4]
  seg->tcphdr->src = htons(pcb->local_port);
 80068cc:	f8b9 001a 	ldrh.w	r0, [r9, #26]
  seg->tcphdr = (struct tcp_hdr *)seg->p->payload;
 80068d0:	f8d3 8004 	ldr.w	r8, [r3, #4]
 80068d4:	f8c4 800c 	str.w	r8, [r4, #12]
  seg->tcphdr->src = htons(pcb->local_port);
 80068d8:	f7fc ffa8 	bl	800382c <lwip_htons>
 80068dc:	f8a8 0000 	strh.w	r0, [r8]
  seg->tcphdr->dest = htons(pcb->remote_port);
 80068e0:	f8b9 001c 	ldrh.w	r0, [r9, #28]
 80068e4:	f8d4 800c 	ldr.w	r8, [r4, #12]
 80068e8:	f7fc ffa0 	bl	800382c <lwip_htons>
 80068ec:	f8a8 0002 	strh.w	r0, [r8, #2]
  seg->tcphdr->seqno = htonl(seqno);
 80068f0:	4650      	mov	r0, sl
 80068f2:	f8d4 800c 	ldr.w	r8, [r4, #12]
  TCPH_HDRLEN_FLAGS_SET(seg->tcphdr, (5 + optlen / 4), flags);
 80068f6:	f3c5 0587 	ubfx	r5, r5, #2, #8
  seg->tcphdr->seqno = htonl(seqno);
 80068fa:	f7fc ff9d 	bl	8003838 <lwip_htonl>
  TCPH_HDRLEN_FLAGS_SET(seg->tcphdr, (5 + optlen / 4), flags);
 80068fe:	3505      	adds	r5, #5
 8006900:	ea46 3505 	orr.w	r5, r6, r5, lsl #12
  seg->tcphdr->seqno = htonl(seqno);
 8006904:	f8c8 0004 	str.w	r0, [r8, #4]
  TCPH_HDRLEN_FLAGS_SET(seg->tcphdr, (5 + optlen / 4), flags);
 8006908:	b2a8      	uxth	r0, r5
 800690a:	f8d4 800c 	ldr.w	r8, [r4, #12]
 800690e:	f7fc ff8d 	bl	800382c <lwip_htons>
  seg->tcphdr->urgp = 0;
 8006912:	68e3      	ldr	r3, [r4, #12]
  TCPH_HDRLEN_FLAGS_SET(seg->tcphdr, (5 + optlen / 4), flags);
 8006914:	f8a8 000c 	strh.w	r0, [r8, #12]
  seg->tcphdr->urgp = 0;
 8006918:	749f      	strb	r7, [r3, #18]
 800691a:	74df      	strb	r7, [r3, #19]
  return seg;
 800691c:	e7b7      	b.n	800688e <tcp_create_segment+0x36>
 800691e:	bf00      	nop
 8006920:	2000aaca 	.word	0x2000aaca

08006924 <tcp_output_alloc_header.constprop.0>:
  struct pbuf *p = pbuf_alloc(PBUF_IP, TCP_HLEN + optlen + datalen, PBUF_RAM);
 8006924:	3114      	adds	r1, #20
tcp_output_alloc_header(struct tcp_pcb *pcb, u16_t optlen, u16_t datalen,
 8006926:	b5f8      	push	{r3, r4, r5, r6, r7, lr}
  struct pbuf *p = pbuf_alloc(PBUF_IP, TCP_HLEN + optlen + datalen, PBUF_RAM);
 8006928:	b289      	uxth	r1, r1
tcp_output_alloc_header(struct tcp_pcb *pcb, u16_t optlen, u16_t datalen,
 800692a:	4605      	mov	r5, r0
 800692c:	4617      	mov	r7, r2
  struct pbuf *p = pbuf_alloc(PBUF_IP, TCP_HLEN + optlen + datalen, PBUF_RAM);
 800692e:	2001      	movs	r0, #1
 8006930:	2200      	movs	r2, #0
 8006932:	f7fe f8ed 	bl	8004b10 <pbuf_alloc>
  if (p != NULL) {
 8006936:	4606      	mov	r6, r0
 8006938:	b1f8      	cbz	r0, 800697a <tcp_output_alloc_header.constprop.0+0x56>
    tcphdr = (struct tcp_hdr *)p->payload;
 800693a:	6844      	ldr	r4, [r0, #4]
    tcphdr->src = htons(pcb->local_port);
 800693c:	8b68      	ldrh	r0, [r5, #26]
 800693e:	f7fc ff75 	bl	800382c <lwip_htons>
 8006942:	8020      	strh	r0, [r4, #0]
    tcphdr->dest = htons(pcb->remote_port);
 8006944:	8ba8      	ldrh	r0, [r5, #28]
 8006946:	f7fc ff71 	bl	800382c <lwip_htons>
    tcphdr->seqno = seqno_be;
 800694a:	6067      	str	r7, [r4, #4]
    tcphdr->dest = htons(pcb->remote_port);
 800694c:	8060      	strh	r0, [r4, #2]
    tcphdr->ackno = htonl(pcb->rcv_nxt);
 800694e:	6aa8      	ldr	r0, [r5, #40]	; 0x28
 8006950:	f7fc ff72 	bl	8003838 <lwip_htonl>
 8006954:	60a0      	str	r0, [r4, #8]
    TCPH_HDRLEN_FLAGS_SET(tcphdr, (5 + optlen / 4), TCP_ACK);
 8006956:	f245 0010 	movw	r0, #20496	; 0x5010
 800695a:	f7fc ff67 	bl	800382c <lwip_htons>
 800695e:	81a0      	strh	r0, [r4, #12]
    tcphdr->wnd = htons(pcb->rcv_ann_wnd);
 8006960:	8de8      	ldrh	r0, [r5, #46]	; 0x2e
 8006962:	f7fc ff63 	bl	800382c <lwip_htons>
    tcphdr->chksum = 0;
 8006966:	2300      	movs	r3, #0
 8006968:	7423      	strb	r3, [r4, #16]
 800696a:	7463      	strb	r3, [r4, #17]
    tcphdr->urgp = 0;
 800696c:	74a3      	strb	r3, [r4, #18]
 800696e:	74e3      	strb	r3, [r4, #19]
    pcb->rcv_ann_right_edge = pcb->rcv_nxt + pcb->rcv_ann_wnd;
 8006970:	8dea      	ldrh	r2, [r5, #46]	; 0x2e
 8006972:	6aab      	ldr	r3, [r5, #40]	; 0x28
    tcphdr->wnd = htons(pcb->rcv_ann_wnd);
 8006974:	81e0      	strh	r0, [r4, #14]
    pcb->rcv_ann_right_edge = pcb->rcv_nxt + pcb->rcv_ann_wnd;
 8006976:	4413      	add	r3, r2
 8006978:	632b      	str	r3, [r5, #48]	; 0x30
}
 800697a:	4630      	mov	r0, r6
 800697c:	bdf8      	pop	{r3, r4, r5, r6, r7, pc}
	...

08006980 <tcp_enqueue_flags>:

  LWIP_ASSERT("tcp_enqueue_flags: need either TCP_SYN or TCP_FIN in flags (programmer violates API)",
              (flags & (TCP_SYN | TCP_FIN)) != 0);

  /* check for configured max queuelen and possible overflow */
  if ((pcb->snd_queuelen >= TCP_SND_QUEUELEN) || (pcb->snd_queuelen > TCP_SNDQUEUELEN_OVERFLOW)) {
 8006980:	f8b0 3068 	ldrh.w	r3, [r0, #104]	; 0x68
 8006984:	2b07      	cmp	r3, #7
{
 8006986:	b5f7      	push	{r0, r1, r2, r4, r5, r6, r7, lr}
 8006988:	4604      	mov	r4, r0
 800698a:	460d      	mov	r5, r1
 800698c:	f001 0603 	and.w	r6, r1, #3
  if ((pcb->snd_queuelen >= TCP_SND_QUEUELEN) || (pcb->snd_queuelen > TCP_SNDQUEUELEN_OVERFLOW)) {
 8006990:	d90d      	bls.n	80069ae <tcp_enqueue_flags+0x2e>
    LWIP_DEBUGF(TCP_OUTPUT_DEBUG | 3, ("tcp_enqueue_flags: too long queue %"U16_F" (max %"U16_F")\n",
                                       pcb->snd_queuelen, TCP_SND_QUEUELEN));
    TCP_STATS_INC(tcp.memerr);
 8006992:	4a2c      	ldr	r2, [pc, #176]	; (8006a44 <tcp_enqueue_flags+0xc4>)
 8006994:	f8b2 309c 	ldrh.w	r3, [r2, #156]	; 0x9c
 8006998:	3301      	adds	r3, #1
 800699a:	f8a2 309c 	strh.w	r3, [r2, #156]	; 0x9c
    pcb->flags |= TF_NAGLEMEMERR;
 800699e:	7f83      	ldrb	r3, [r0, #30]
 80069a0:	f063 037f 	orn	r3, r3, #127	; 0x7f
 80069a4:	7783      	strb	r3, [r0, #30]
   * This means we can't send FIN while snd_buf==0. A better fix would be to
   * not include SYN and FIN sequence numbers in the snd_buf count. */
  if (pcb->snd_buf == 0) {
    LWIP_DEBUGF(TCP_OUTPUT_DEBUG | 3, ("tcp_enqueue_flags: no send buffer available\n"));
    TCP_STATS_INC(tcp.memerr);
    return ERR_MEM;
 80069a6:	f04f 30ff 	mov.w	r0, #4294967295
    LWIP_ASSERT("tcp_enqueue_flags: invalid queue length",
      pcb->unacked != NULL || pcb->unsent != NULL);
  }

  return ERR_OK;
}
 80069aa:	b003      	add	sp, #12
 80069ac:	bdf0      	pop	{r4, r5, r6, r7, pc}
 80069ae:	f001 0302 	and.w	r3, r1, #2
  if (flags & TCP_SYN) {
 80069b2:	2b00      	cmp	r3, #0
  if (pcb->snd_buf == 0) {
 80069b4:	f8b0 3066 	ldrh.w	r3, [r0, #102]	; 0x66
  u8_t optflags = 0;
 80069b8:	bf15      	itete	ne
 80069ba:	2701      	movne	r7, #1
 80069bc:	2700      	moveq	r7, #0
  optlen = LWIP_TCP_OPT_LENGTH(optflags);
 80069be:	2104      	movne	r1, #4
 80069c0:	2100      	moveq	r1, #0
  if (pcb->snd_buf == 0) {
 80069c2:	b933      	cbnz	r3, 80069d2 <tcp_enqueue_flags+0x52>
    TCP_STATS_INC(tcp.memerr);
 80069c4:	4a1f      	ldr	r2, [pc, #124]	; (8006a44 <tcp_enqueue_flags+0xc4>)
 80069c6:	f8b2 309c 	ldrh.w	r3, [r2, #156]	; 0x9c
 80069ca:	3301      	adds	r3, #1
 80069cc:	f8a2 309c 	strh.w	r3, [r2, #156]	; 0x9c
 80069d0:	e7e9      	b.n	80069a6 <tcp_enqueue_flags+0x26>
  if ((p = pbuf_alloc(PBUF_TRANSPORT, optlen, PBUF_RAM)) == NULL) {
 80069d2:	2200      	movs	r2, #0
 80069d4:	4610      	mov	r0, r2
 80069d6:	f7fe f89b 	bl	8004b10 <pbuf_alloc>
 80069da:	4601      	mov	r1, r0
 80069dc:	b920      	cbnz	r0, 80069e8 <tcp_enqueue_flags+0x68>
    pcb->flags |= TF_NAGLEMEMERR;
 80069de:	7fa3      	ldrb	r3, [r4, #30]
 80069e0:	f063 037f 	orn	r3, r3, #127	; 0x7f
 80069e4:	77a3      	strb	r3, [r4, #30]
 80069e6:	e7ed      	b.n	80069c4 <tcp_enqueue_flags+0x44>
  if ((seg = tcp_create_segment(pcb, p, flags, pcb->snd_lbb, optflags)) == NULL) {
 80069e8:	9700      	str	r7, [sp, #0]
 80069ea:	6de3      	ldr	r3, [r4, #92]	; 0x5c
 80069ec:	462a      	mov	r2, r5
 80069ee:	4620      	mov	r0, r4
 80069f0:	f7ff ff32 	bl	8006858 <tcp_create_segment>
 80069f4:	2800      	cmp	r0, #0
 80069f6:	d0f2      	beq.n	80069de <tcp_enqueue_flags+0x5e>
  if (pcb->unsent == NULL) {
 80069f8:	6ee3      	ldr	r3, [r4, #108]	; 0x6c
 80069fa:	b9eb      	cbnz	r3, 8006a38 <tcp_enqueue_flags+0xb8>
    pcb->unsent = seg;
 80069fc:	66e0      	str	r0, [r4, #108]	; 0x6c
  pcb->unsent_oversize = 0;
 80069fe:	2300      	movs	r3, #0
 8006a00:	f8a4 306a 	strh.w	r3, [r4, #106]	; 0x6a
  if ((flags & TCP_SYN) || (flags & TCP_FIN)) {
 8006a04:	b13e      	cbz	r6, 8006a16 <tcp_enqueue_flags+0x96>
    pcb->snd_lbb++;
 8006a06:	6de3      	ldr	r3, [r4, #92]	; 0x5c
 8006a08:	3301      	adds	r3, #1
 8006a0a:	65e3      	str	r3, [r4, #92]	; 0x5c
    pcb->snd_buf--;
 8006a0c:	f8b4 3066 	ldrh.w	r3, [r4, #102]	; 0x66
 8006a10:	3b01      	subs	r3, #1
 8006a12:	f8a4 3066 	strh.w	r3, [r4, #102]	; 0x66
  if (flags & TCP_FIN) {
 8006a16:	07eb      	lsls	r3, r5, #31
    pcb->flags |= TF_FIN;
 8006a18:	bf42      	ittt	mi
 8006a1a:	7fa3      	ldrbmi	r3, [r4, #30]
 8006a1c:	f043 0320 	orrmi.w	r3, r3, #32
 8006a20:	77a3      	strbmi	r3, [r4, #30]
  pcb->snd_queuelen += pbuf_clen(seg->p);
 8006a22:	6840      	ldr	r0, [r0, #4]
 8006a24:	f7fe f926 	bl	8004c74 <pbuf_clen>
 8006a28:	f8b4 3068 	ldrh.w	r3, [r4, #104]	; 0x68
 8006a2c:	4418      	add	r0, r3
 8006a2e:	f8a4 0068 	strh.w	r0, [r4, #104]	; 0x68
  return ERR_OK;
 8006a32:	2000      	movs	r0, #0
 8006a34:	e7b9      	b.n	80069aa <tcp_enqueue_flags+0x2a>
 8006a36:	4613      	mov	r3, r2
    for (useg = pcb->unsent; useg->next != NULL; useg = useg->next);
 8006a38:	681a      	ldr	r2, [r3, #0]
 8006a3a:	2a00      	cmp	r2, #0
 8006a3c:	d1fb      	bne.n	8006a36 <tcp_enqueue_flags+0xb6>
    useg->next = seg;
 8006a3e:	6018      	str	r0, [r3, #0]
 8006a40:	e7dd      	b.n	80069fe <tcp_enqueue_flags+0x7e>
 8006a42:	bf00      	nop
 8006a44:	2000aaca 	.word	0x2000aaca

08006a48 <tcp_send_fin>:
{
 8006a48:	b5f8      	push	{r3, r4, r5, r6, r7, lr}
  if (pcb->unsent != NULL) {
 8006a4a:	6ec4      	ldr	r4, [r0, #108]	; 0x6c
{
 8006a4c:	4605      	mov	r5, r0
  if (pcb->unsent != NULL) {
 8006a4e:	b934      	cbnz	r4, 8006a5e <tcp_send_fin+0x16>
  return tcp_enqueue_flags(pcb, TCP_FIN);
 8006a50:	4628      	mov	r0, r5
 8006a52:	2101      	movs	r1, #1
}
 8006a54:	e8bd 40f8 	ldmia.w	sp!, {r3, r4, r5, r6, r7, lr}
  return tcp_enqueue_flags(pcb, TCP_FIN);
 8006a58:	f7ff bf92 	b.w	8006980 <tcp_enqueue_flags>
 8006a5c:	461c      	mov	r4, r3
    for (last_unsent = pcb->unsent; last_unsent->next != NULL;
 8006a5e:	6823      	ldr	r3, [r4, #0]
 8006a60:	2b00      	cmp	r3, #0
 8006a62:	d1fb      	bne.n	8006a5c <tcp_send_fin+0x14>
    if ((TCPH_FLAGS(last_unsent->tcphdr) & (TCP_SYN | TCP_FIN | TCP_RST)) == 0) {
 8006a64:	68e3      	ldr	r3, [r4, #12]
 8006a66:	8998      	ldrh	r0, [r3, #12]
 8006a68:	f7fc fee3 	bl	8003832 <lwip_ntohs>
 8006a6c:	f010 0707 	ands.w	r7, r0, #7
 8006a70:	d1ee      	bne.n	8006a50 <tcp_send_fin+0x8>
      TCPH_SET_FLAG(last_unsent->tcphdr, TCP_FIN);
 8006a72:	68e6      	ldr	r6, [r4, #12]
 8006a74:	2001      	movs	r0, #1
 8006a76:	89b4      	ldrh	r4, [r6, #12]
 8006a78:	f7fc fed8 	bl	800382c <lwip_htons>
 8006a7c:	4320      	orrs	r0, r4
 8006a7e:	81b0      	strh	r0, [r6, #12]
      pcb->flags |= TF_FIN;
 8006a80:	7fab      	ldrb	r3, [r5, #30]
 8006a82:	f043 0320 	orr.w	r3, r3, #32
 8006a86:	77ab      	strb	r3, [r5, #30]
}
 8006a88:	4638      	mov	r0, r7
 8006a8a:	bdf8      	pop	{r3, r4, r5, r6, r7, pc}

08006a8c <tcp_send_empty_ack>:
 *
 * @param pcb Protocol control block for the TCP connection to send the ACK
 */
err_t
tcp_send_empty_ack(struct tcp_pcb *pcb)
{
 8006a8c:	b5f7      	push	{r0, r1, r2, r4, r5, r6, r7, lr}
 8006a8e:	4604      	mov	r4, r0
  if (pcb->flags & TF_TIMESTAMP) {
    optlen = LWIP_TCP_OPT_LENGTH(TF_SEG_OPTS_TS);
  }
#endif

  p = tcp_output_alloc_header(pcb, optlen, 0, htonl(pcb->snd_nxt));
 8006a90:	6d00      	ldr	r0, [r0, #80]	; 0x50
 8006a92:	f7fc fed1 	bl	8003838 <lwip_htonl>
 8006a96:	2100      	movs	r1, #0
 8006a98:	4602      	mov	r2, r0
 8006a9a:	4620      	mov	r0, r4
 8006a9c:	f7ff ff42 	bl	8006924 <tcp_output_alloc_header.constprop.0>
  if (p == NULL) {
 8006aa0:	4605      	mov	r5, r0
 8006aa2:	b1e8      	cbz	r0, 8006ae0 <tcp_send_empty_ack+0x54>
  }
  tcphdr = (struct tcp_hdr *)p->payload;
  LWIP_DEBUGF(TCP_OUTPUT_DEBUG, 
              ("tcp_output: sending ACK for %"U32_F"\n", pcb->rcv_nxt));
  /* remove ACK flags from the PCB, as we send an empty ACK now */
  pcb->flags &= ~(TF_ACK_DELAY | TF_ACK_NOW);
 8006aa4:	7fa3      	ldrb	r3, [r4, #30]
  tcphdr = (struct tcp_hdr *)p->payload;
 8006aa6:	6847      	ldr	r7, [r0, #4]
  pcb->flags &= ~(TF_ACK_DELAY | TF_ACK_NOW);
 8006aa8:	f023 0303 	bic.w	r3, r3, #3
 8006aac:	77a3      	strb	r3, [r4, #30]
    tcp_build_timestamp_option(pcb, (u32_t *)(tcphdr + 1));
  }
#endif 

#if CHECKSUM_GEN_TCP
  tcphdr->chksum = inet_chksum_pseudo(p, &(pcb->local_ip), &(pcb->remote_ip),
 8006aae:	8903      	ldrh	r3, [r0, #8]
 8006ab0:	9300      	str	r3, [sp, #0]
 8006ab2:	1d26      	adds	r6, r4, #4
 8006ab4:	2306      	movs	r3, #6
 8006ab6:	4632      	mov	r2, r6
 8006ab8:	4621      	mov	r1, r4
 8006aba:	f7fd f829 	bl	8003b10 <inet_chksum_pseudo>
#endif
#if LWIP_NETIF_HWADDRHINT
  ip_output_hinted(p, &(pcb->local_ip), &(pcb->remote_ip), pcb->ttl, pcb->tos,
      IP_PROTO_TCP, &(pcb->addr_hint));
#else /* LWIP_NETIF_HWADDRHINT*/
  ip_output(p, &(pcb->local_ip), &(pcb->remote_ip), pcb->ttl, pcb->tos,
 8006abe:	2206      	movs	r2, #6
  tcphdr->chksum = inet_chksum_pseudo(p, &(pcb->local_ip), &(pcb->remote_ip),
 8006ac0:	8238      	strh	r0, [r7, #16]
  ip_output(p, &(pcb->local_ip), &(pcb->remote_ip), pcb->ttl, pcb->tos,
 8006ac2:	9201      	str	r2, [sp, #4]
 8006ac4:	7a62      	ldrb	r2, [r4, #9]
 8006ac6:	7aa3      	ldrb	r3, [r4, #10]
 8006ac8:	9200      	str	r2, [sp, #0]
 8006aca:	4621      	mov	r1, r4
 8006acc:	4632      	mov	r2, r6
 8006ace:	4628      	mov	r0, r5
 8006ad0:	f7fd fa34 	bl	8003f3c <ip_output>
      IP_PROTO_TCP);
#endif /* LWIP_NETIF_HWADDRHINT*/
  pbuf_free(p);
 8006ad4:	4628      	mov	r0, r5
 8006ad6:	f7fd fff4 	bl	8004ac2 <pbuf_free>

  return ERR_OK;
 8006ada:	2000      	movs	r0, #0
}
 8006adc:	b003      	add	sp, #12
 8006ade:	bdf0      	pop	{r4, r5, r6, r7, pc}
    return ERR_BUF;
 8006ae0:	f06f 0001 	mvn.w	r0, #1
 8006ae4:	e7fa      	b.n	8006adc <tcp_send_empty_ack+0x50>
	...

08006ae8 <tcp_output>:

  /* First, check if we are invoked by the TCP input processing
     code. If so, we do not output anything. Instead, we rely on the
     input processing code to call us when input processing is done
     with. */
  if (tcp_input_pcb == pcb) {
 8006ae8:	4b9f      	ldr	r3, [pc, #636]	; (8006d68 <tcp_output+0x280>)
 8006aea:	681b      	ldr	r3, [r3, #0]
 8006aec:	4298      	cmp	r0, r3
{
 8006aee:	e92d 4ff7 	stmdb	sp!, {r0, r1, r2, r4, r5, r6, r7, r8, r9, sl, fp, lr}
 8006af2:	4604      	mov	r4, r0
  if (tcp_input_pcb == pcb) {
 8006af4:	d02b      	beq.n	8006b4e <tcp_output+0x66>
    return ERR_OK;
  }

  wnd = LWIP_MIN(pcb->snd_wnd, pcb->cwnd);
 8006af6:	f8b0 304c 	ldrh.w	r3, [r0, #76]	; 0x4c
 8006afa:	f8b0 7060 	ldrh.w	r7, [r0, #96]	; 0x60

  seg = pcb->unsent;
 8006afe:	6ec5      	ldr	r5, [r0, #108]	; 0x6c
  wnd = LWIP_MIN(pcb->snd_wnd, pcb->cwnd);
 8006b00:	429f      	cmp	r7, r3
 8006b02:	bf28      	it	cs
 8006b04:	461f      	movcs	r7, r3
   * because the ->unsent queue is empty or because the window does
   * not allow it), construct an empty ACK segment and send it.
   *
   * If data is to be sent, we will just piggyback the ACK (see below).
   */
  if (pcb->flags & TF_ACK_NOW &&
 8006b06:	7f83      	ldrb	r3, [r0, #30]
 8006b08:	079b      	lsls	r3, r3, #30
 8006b0a:	d510      	bpl.n	8006b2e <tcp_output+0x46>
 8006b0c:	b92d      	cbnz	r5, 8006b1a <tcp_output+0x32>
     (seg == NULL ||
      ntohl(seg->tcphdr->seqno) - pcb->lastack + seg->len > wnd)) {
     return tcp_send_empty_ack(pcb);
 8006b0e:	4620      	mov	r0, r4
  }
#endif /* TCP_OVERSIZE */

  pcb->flags &= ~TF_NAGLEMEMERR;
  return ERR_OK;
}
 8006b10:	b003      	add	sp, #12
 8006b12:	e8bd 4ff0 	ldmia.w	sp!, {r4, r5, r6, r7, r8, r9, sl, fp, lr}
     return tcp_send_empty_ack(pcb);
 8006b16:	f7ff bfb9 	b.w	8006a8c <tcp_send_empty_ack>
      ntohl(seg->tcphdr->seqno) - pcb->lastack + seg->len > wnd)) {
 8006b1a:	68eb      	ldr	r3, [r5, #12]
 8006b1c:	6858      	ldr	r0, [r3, #4]
 8006b1e:	f7fc fe8d 	bl	800383c <lwip_ntohl>
 8006b22:	892b      	ldrh	r3, [r5, #8]
 8006b24:	6ca2      	ldr	r2, [r4, #72]	; 0x48
 8006b26:	1a9b      	subs	r3, r3, r2
 8006b28:	4418      	add	r0, r3
     (seg == NULL ||
 8006b2a:	4287      	cmp	r7, r0
 8006b2c:	d3ef      	bcc.n	8006b0e <tcp_output+0x26>
  useg = pcb->unacked;
 8006b2e:	6f26      	ldr	r6, [r4, #112]	; 0x70
  if (useg != NULL) {
 8006b30:	b996      	cbnz	r6, 8006b58 <tcp_output+0x70>
  seg->tcphdr->chksum = inet_chksum_pseudo(seg->p, &(pcb->local_ip),
         &(pcb->remote_ip),
         IP_PROTO_TCP, seg->p->tot_len);
#endif /* TCP_CHECKSUM_ON_COPY */
#endif /* CHECKSUM_GEN_TCP */
  TCP_STATS_INC(tcp.xmit);
 8006b32:	f8df 8238 	ldr.w	r8, [pc, #568]	; 8006d6c <tcp_output+0x284>
    pcb->rttest = tcp_ticks;
 8006b36:	f8df 9238 	ldr.w	r9, [pc, #568]	; 8006d70 <tcp_output+0x288>
  while (seg != NULL &&
 8006b3a:	2d00      	cmp	r5, #0
 8006b3c:	d13f      	bne.n	8006bbe <tcp_output+0xd6>
  if (pcb->unsent == NULL) {
 8006b3e:	6ee3      	ldr	r3, [r4, #108]	; 0x6c
 8006b40:	b90b      	cbnz	r3, 8006b46 <tcp_output+0x5e>
    pcb->unsent_oversize = 0;
 8006b42:	f8a4 306a 	strh.w	r3, [r4, #106]	; 0x6a
  pcb->flags &= ~TF_NAGLEMEMERR;
 8006b46:	7fa3      	ldrb	r3, [r4, #30]
 8006b48:	f003 037f 	and.w	r3, r3, #127	; 0x7f
 8006b4c:	77a3      	strb	r3, [r4, #30]
}
 8006b4e:	2000      	movs	r0, #0
 8006b50:	b003      	add	sp, #12
 8006b52:	e8bd 8ff0 	ldmia.w	sp!, {r4, r5, r6, r7, r8, r9, sl, fp, pc}
 8006b56:	461e      	mov	r6, r3
    for (; useg->next != NULL; useg = useg->next);
 8006b58:	6833      	ldr	r3, [r6, #0]
 8006b5a:	2b00      	cmp	r3, #0
 8006b5c:	d1fb      	bne.n	8006b56 <tcp_output+0x6e>
 8006b5e:	e7e8      	b.n	8006b32 <tcp_output+0x4a>
        if (TCP_SEQ_LT(ntohl(seg->tcphdr->seqno), ntohl(useg->tcphdr->seqno))) {
 8006b60:	68eb      	ldr	r3, [r5, #12]
 8006b62:	6858      	ldr	r0, [r3, #4]
 8006b64:	f7fc fe6a 	bl	800383c <lwip_ntohl>
 8006b68:	68f3      	ldr	r3, [r6, #12]
 8006b6a:	4682      	mov	sl, r0
 8006b6c:	6858      	ldr	r0, [r3, #4]
 8006b6e:	f7fc fe65 	bl	800383c <lwip_ntohl>
 8006b72:	ebaa 0000 	sub.w	r0, sl, r0
 8006b76:	2800      	cmp	r0, #0
 8006b78:	da1b      	bge.n	8006bb2 <tcp_output+0xca>
          struct tcp_seg **cur_seg = &(pcb->unacked);
 8006b7a:	f104 0a70 	add.w	sl, r4, #112	; 0x70
          while (*cur_seg &&
 8006b7e:	f8da 3000 	ldr.w	r3, [sl]
 8006b82:	b933      	cbnz	r3, 8006b92 <tcp_output+0xaa>
          seg->next = (*cur_seg);
 8006b84:	f8da 3000 	ldr.w	r3, [sl]
 8006b88:	602b      	str	r3, [r5, #0]
          (*cur_seg) = seg;
 8006b8a:	f8ca 5000 	str.w	r5, [sl]
    seg = pcb->unsent;
 8006b8e:	6ee5      	ldr	r5, [r4, #108]	; 0x6c
 8006b90:	e7d3      	b.n	8006b3a <tcp_output+0x52>
            TCP_SEQ_LT(ntohl((*cur_seg)->tcphdr->seqno), ntohl(seg->tcphdr->seqno))) {
 8006b92:	68db      	ldr	r3, [r3, #12]
 8006b94:	6858      	ldr	r0, [r3, #4]
 8006b96:	f7fc fe51 	bl	800383c <lwip_ntohl>
 8006b9a:	68eb      	ldr	r3, [r5, #12]
 8006b9c:	4683      	mov	fp, r0
 8006b9e:	6858      	ldr	r0, [r3, #4]
 8006ba0:	f7fc fe4c 	bl	800383c <lwip_ntohl>
 8006ba4:	ebab 0000 	sub.w	r0, fp, r0
          while (*cur_seg &&
 8006ba8:	2800      	cmp	r0, #0
 8006baa:	daeb      	bge.n	8006b84 <tcp_output+0x9c>
              cur_seg = &((*cur_seg)->next );
 8006bac:	f8da a000 	ldr.w	sl, [sl]
 8006bb0:	e7e5      	b.n	8006b7e <tcp_output+0x96>
          useg->next = seg;
 8006bb2:	6035      	str	r5, [r6, #0]
 8006bb4:	e0d0      	b.n	8006d58 <tcp_output+0x270>
      tcp_seg_free(seg);
 8006bb6:	4628      	mov	r0, r5
 8006bb8:	f7fe f972 	bl	8004ea0 <tcp_seg_free>
 8006bbc:	e7e7      	b.n	8006b8e <tcp_output+0xa6>
         ntohl(seg->tcphdr->seqno) - pcb->lastack + seg->len <= wnd) {
 8006bbe:	68eb      	ldr	r3, [r5, #12]
 8006bc0:	6858      	ldr	r0, [r3, #4]
 8006bc2:	f7fc fe3b 	bl	800383c <lwip_ntohl>
 8006bc6:	892b      	ldrh	r3, [r5, #8]
 8006bc8:	6ca2      	ldr	r2, [r4, #72]	; 0x48
 8006bca:	1a9b      	subs	r3, r3, r2
 8006bcc:	4418      	add	r0, r3
  while (seg != NULL &&
 8006bce:	4287      	cmp	r7, r0
 8006bd0:	d3b5      	bcc.n	8006b3e <tcp_output+0x56>
    LWIP_ASSERT("RST not expected here!", 
 8006bd2:	68eb      	ldr	r3, [r5, #12]
 8006bd4:	8998      	ldrh	r0, [r3, #12]
 8006bd6:	f7fc fe2c 	bl	8003832 <lwip_ntohs>
    if((tcp_do_output_nagle(pcb) == 0) &&
 8006bda:	6f23      	ldr	r3, [r4, #112]	; 0x70
 8006bdc:	b19b      	cbz	r3, 8006c06 <tcp_output+0x11e>
 8006bde:	7fa2      	ldrb	r2, [r4, #30]
 8006be0:	f012 0f44 	tst.w	r2, #68	; 0x44
 8006be4:	d10f      	bne.n	8006c06 <tcp_output+0x11e>
 8006be6:	6ee3      	ldr	r3, [r4, #108]	; 0x6c
 8006be8:	b12b      	cbz	r3, 8006bf6 <tcp_output+0x10e>
 8006bea:	6819      	ldr	r1, [r3, #0]
 8006bec:	b959      	cbnz	r1, 8006c06 <tcp_output+0x11e>
 8006bee:	8919      	ldrh	r1, [r3, #8]
 8006bf0:	8ee3      	ldrh	r3, [r4, #54]	; 0x36
 8006bf2:	4299      	cmp	r1, r3
 8006bf4:	d207      	bcs.n	8006c06 <tcp_output+0x11e>
 8006bf6:	f8b4 3066 	ldrh.w	r3, [r4, #102]	; 0x66
 8006bfa:	b123      	cbz	r3, 8006c06 <tcp_output+0x11e>
 8006bfc:	f8b4 3068 	ldrh.w	r3, [r4, #104]	; 0x68
 8006c00:	2b07      	cmp	r3, #7
 8006c02:	f240 80ab 	bls.w	8006d5c <tcp_output+0x274>
    pcb->unsent = seg->next;
 8006c06:	682b      	ldr	r3, [r5, #0]
 8006c08:	66e3      	str	r3, [r4, #108]	; 0x6c
    if (pcb->state != SYN_SENT) {
 8006c0a:	7e23      	ldrb	r3, [r4, #24]
 8006c0c:	2b02      	cmp	r3, #2
 8006c0e:	d00e      	beq.n	8006c2e <tcp_output+0x146>
      TCPH_SET_FLAG(seg->tcphdr, TCP_ACK);
 8006c10:	f8d5 b00c 	ldr.w	fp, [r5, #12]
 8006c14:	2010      	movs	r0, #16
 8006c16:	f8bb a00c 	ldrh.w	sl, [fp, #12]
 8006c1a:	f7fc fe07 	bl	800382c <lwip_htons>
 8006c1e:	ea4a 0000 	orr.w	r0, sl, r0
 8006c22:	f8ab 000c 	strh.w	r0, [fp, #12]
      pcb->flags &= ~(TF_ACK_DELAY | TF_ACK_NOW);
 8006c26:	7fa3      	ldrb	r3, [r4, #30]
 8006c28:	f023 0303 	bic.w	r3, r3, #3
 8006c2c:	77a3      	strb	r3, [r4, #30]
  seg->tcphdr->ackno = htonl(pcb->rcv_nxt);
 8006c2e:	6aa0      	ldr	r0, [r4, #40]	; 0x28
 8006c30:	f8d5 a00c 	ldr.w	sl, [r5, #12]
 8006c34:	f7fc fe00 	bl	8003838 <lwip_htonl>
 8006c38:	f8ca 0008 	str.w	r0, [sl, #8]
  seg->tcphdr->wnd = htons(pcb->rcv_ann_wnd);
 8006c3c:	8de0      	ldrh	r0, [r4, #46]	; 0x2e
 8006c3e:	f8d5 a00c 	ldr.w	sl, [r5, #12]
 8006c42:	f7fc fdf3 	bl	800382c <lwip_htons>
  pcb->rcv_ann_right_edge = pcb->rcv_nxt + pcb->rcv_ann_wnd;
 8006c46:	8de2      	ldrh	r2, [r4, #46]	; 0x2e
 8006c48:	6aa3      	ldr	r3, [r4, #40]	; 0x28
  seg->tcphdr->wnd = htons(pcb->rcv_ann_wnd);
 8006c4a:	f8aa 000e 	strh.w	r0, [sl, #14]
  pcb->rcv_ann_right_edge = pcb->rcv_nxt + pcb->rcv_ann_wnd;
 8006c4e:	4413      	add	r3, r2
 8006c50:	6323      	str	r3, [r4, #48]	; 0x30
  if (seg->flags & TF_SEG_OPTS_MSS) {
 8006c52:	7aab      	ldrb	r3, [r5, #10]
 8006c54:	f013 0f01 	tst.w	r3, #1
 8006c58:	f104 0b04 	add.w	fp, r4, #4
 8006c5c:	d00c      	beq.n	8006c78 <tcp_output+0x190>
    mss = tcp_eff_send_mss(TCP_MSS, &pcb->remote_ip);
 8006c5e:	4659      	mov	r1, fp
 8006c60:	f240 50b4 	movw	r0, #1460	; 0x5b4
  opts = (u32_t *)(void *)(seg->tcphdr + 1);
 8006c64:	f8d5 a00c 	ldr.w	sl, [r5, #12]
    mss = tcp_eff_send_mss(TCP_MSS, &pcb->remote_ip);
 8006c68:	f7fe fd3c 	bl	80056e4 <tcp_eff_send_mss>
    *opts = TCP_BUILD_MSS_OPTION(mss);
 8006c6c:	f040 7001 	orr.w	r0, r0, #33816576	; 0x2040000
 8006c70:	f7fc fde2 	bl	8003838 <lwip_htonl>
 8006c74:	f8ca 0014 	str.w	r0, [sl, #20]
  if (pcb->rtime == -1) {
 8006c78:	f9b4 3034 	ldrsh.w	r3, [r4, #52]	; 0x34
 8006c7c:	3301      	adds	r3, #1
    pcb->rtime = 0;
 8006c7e:	bf04      	itt	eq
 8006c80:	2300      	moveq	r3, #0
 8006c82:	86a3      	strheq	r3, [r4, #52]	; 0x34
  if (ip_addr_isany(&(pcb->local_ip))) {
 8006c84:	6823      	ldr	r3, [r4, #0]
 8006c86:	b933      	cbnz	r3, 8006c96 <tcp_output+0x1ae>
    netif = ip_route(&(pcb->remote_ip));
 8006c88:	4658      	mov	r0, fp
 8006c8a:	f7fc ffad 	bl	8003be8 <ip_route>
    if (netif == NULL) {
 8006c8e:	2800      	cmp	r0, #0
 8006c90:	d037      	beq.n	8006d02 <tcp_output+0x21a>
    ip_addr_copy(pcb->local_ip, netif->ip_addr);
 8006c92:	6843      	ldr	r3, [r0, #4]
 8006c94:	6023      	str	r3, [r4, #0]
  if (pcb->rttest == 0) {
 8006c96:	6ba3      	ldr	r3, [r4, #56]	; 0x38
 8006c98:	b93b      	cbnz	r3, 8006caa <tcp_output+0x1c2>
    pcb->rttest = tcp_ticks;
 8006c9a:	f8d9 3000 	ldr.w	r3, [r9]
 8006c9e:	63a3      	str	r3, [r4, #56]	; 0x38
    pcb->rtseq = ntohl(seg->tcphdr->seqno);
 8006ca0:	68eb      	ldr	r3, [r5, #12]
 8006ca2:	6858      	ldr	r0, [r3, #4]
 8006ca4:	f7fc fdca 	bl	800383c <lwip_ntohl>
 8006ca8:	63e0      	str	r0, [r4, #60]	; 0x3c
  len = (u16_t)((u8_t *)seg->tcphdr - (u8_t *)seg->p->payload);
 8006caa:	6868      	ldr	r0, [r5, #4]
 8006cac:	f8d5 a00c 	ldr.w	sl, [r5, #12]
 8006cb0:	6843      	ldr	r3, [r0, #4]
  seg->p->payload = seg->tcphdr;
 8006cb2:	f8c0 a004 	str.w	sl, [r0, #4]
  len = (u16_t)((u8_t *)seg->tcphdr - (u8_t *)seg->p->payload);
 8006cb6:	ebaa 0303 	sub.w	r3, sl, r3
 8006cba:	b29a      	uxth	r2, r3
  seg->p->len -= len;
 8006cbc:	8943      	ldrh	r3, [r0, #10]
 8006cbe:	1a9b      	subs	r3, r3, r2
 8006cc0:	8143      	strh	r3, [r0, #10]
  seg->p->tot_len -= len;
 8006cc2:	8903      	ldrh	r3, [r0, #8]
 8006cc4:	1a9b      	subs	r3, r3, r2
 8006cc6:	b29b      	uxth	r3, r3
  seg->tcphdr->chksum = 0;
 8006cc8:	2200      	movs	r2, #0
  seg->p->tot_len -= len;
 8006cca:	8103      	strh	r3, [r0, #8]
  seg->tcphdr->chksum = inet_chksum_pseudo(seg->p, &(pcb->local_ip),
 8006ccc:	4621      	mov	r1, r4
  seg->tcphdr->chksum = 0;
 8006cce:	f88a 2010 	strb.w	r2, [sl, #16]
 8006cd2:	f88a 2011 	strb.w	r2, [sl, #17]
  seg->tcphdr->chksum = inet_chksum_pseudo(seg->p, &(pcb->local_ip),
 8006cd6:	9300      	str	r3, [sp, #0]
 8006cd8:	465a      	mov	r2, fp
 8006cda:	2306      	movs	r3, #6
 8006cdc:	f7fc ff18 	bl	8003b10 <inet_chksum_pseudo>
  TCP_STATS_INC(tcp.xmit);
 8006ce0:	f8b8 3090 	ldrh.w	r3, [r8, #144]	; 0x90
  seg->tcphdr->chksum = inet_chksum_pseudo(seg->p, &(pcb->local_ip),
 8006ce4:	f8aa 0010 	strh.w	r0, [sl, #16]
  TCP_STATS_INC(tcp.xmit);
 8006ce8:	3301      	adds	r3, #1
 8006cea:	f8a8 3090 	strh.w	r3, [r8, #144]	; 0x90

#if LWIP_NETIF_HWADDRHINT
  ip_output_hinted(seg->p, &(pcb->local_ip), &(pcb->remote_ip), pcb->ttl, pcb->tos,
      IP_PROTO_TCP, &(pcb->addr_hint));
#else /* LWIP_NETIF_HWADDRHINT*/
  ip_output(seg->p, &(pcb->local_ip), &(pcb->remote_ip), pcb->ttl, pcb->tos,
 8006cee:	2206      	movs	r2, #6
 8006cf0:	9201      	str	r2, [sp, #4]
 8006cf2:	7a62      	ldrb	r2, [r4, #9]
 8006cf4:	9200      	str	r2, [sp, #0]
 8006cf6:	7aa3      	ldrb	r3, [r4, #10]
 8006cf8:	6868      	ldr	r0, [r5, #4]
 8006cfa:	465a      	mov	r2, fp
 8006cfc:	4621      	mov	r1, r4
 8006cfe:	f7fd f91d 	bl	8003f3c <ip_output>
    snd_nxt = ntohl(seg->tcphdr->seqno) + TCP_TCPLEN(seg);
 8006d02:	68eb      	ldr	r3, [r5, #12]
 8006d04:	6858      	ldr	r0, [r3, #4]
 8006d06:	f7fc fd99 	bl	800383c <lwip_ntohl>
 8006d0a:	68eb      	ldr	r3, [r5, #12]
 8006d0c:	f8b5 b008 	ldrh.w	fp, [r5, #8]
 8006d10:	4682      	mov	sl, r0
 8006d12:	8998      	ldrh	r0, [r3, #12]
 8006d14:	f7fc fd8d 	bl	8003832 <lwip_ntohs>
 8006d18:	f010 0003 	ands.w	r0, r0, #3
 8006d1c:	bf18      	it	ne
 8006d1e:	2001      	movne	r0, #1
    if (TCP_SEQ_LT(pcb->snd_nxt, snd_nxt)) {
 8006d20:	6d23      	ldr	r3, [r4, #80]	; 0x50
    snd_nxt = ntohl(seg->tcphdr->seqno) + TCP_TCPLEN(seg);
 8006d22:	4458      	add	r0, fp
 8006d24:	4450      	add	r0, sl
    if (TCP_SEQ_LT(pcb->snd_nxt, snd_nxt)) {
 8006d26:	1a1b      	subs	r3, r3, r0
 8006d28:	2b00      	cmp	r3, #0
    if (TCP_TCPLEN(seg) > 0) {
 8006d2a:	68eb      	ldr	r3, [r5, #12]
      pcb->snd_nxt = snd_nxt;
 8006d2c:	bfb8      	it	lt
 8006d2e:	6520      	strlt	r0, [r4, #80]	; 0x50
    if (TCP_TCPLEN(seg) > 0) {
 8006d30:	8998      	ldrh	r0, [r3, #12]
 8006d32:	f8b5 a008 	ldrh.w	sl, [r5, #8]
 8006d36:	f7fc fd7c 	bl	8003832 <lwip_ntohs>
 8006d3a:	f010 0003 	ands.w	r0, r0, #3
 8006d3e:	bf18      	it	ne
 8006d40:	2001      	movne	r0, #1
 8006d42:	eb10 0f0a 	cmn.w	r0, sl
 8006d46:	f43f af36 	beq.w	8006bb6 <tcp_output+0xce>
      seg->next = NULL;
 8006d4a:	2300      	movs	r3, #0
 8006d4c:	602b      	str	r3, [r5, #0]
      if (pcb->unacked == NULL) {
 8006d4e:	6f23      	ldr	r3, [r4, #112]	; 0x70
 8006d50:	2b00      	cmp	r3, #0
 8006d52:	f47f af05 	bne.w	8006b60 <tcp_output+0x78>
        pcb->unacked = seg;
 8006d56:	6725      	str	r5, [r4, #112]	; 0x70
          useg->next = seg;
 8006d58:	462e      	mov	r6, r5
 8006d5a:	e718      	b.n	8006b8e <tcp_output+0xa6>
    if((tcp_do_output_nagle(pcb) == 0) &&
 8006d5c:	f012 0fa0 	tst.w	r2, #160	; 0xa0
 8006d60:	f47f af51 	bne.w	8006c06 <tcp_output+0x11e>
 8006d64:	e6eb      	b.n	8006b3e <tcp_output+0x56>
 8006d66:	bf00      	nop
 8006d68:	2000abfc 	.word	0x2000abfc
 8006d6c:	2000aaca 	.word	0x2000aaca
 8006d70:	2000abe8 	.word	0x2000abe8

08006d74 <tcp_rst>:
 */
void
tcp_rst(u32_t seqno, u32_t ackno,
  ip_addr_t *local_ip, ip_addr_t *remote_ip,
  u16_t local_port, u16_t remote_port)
{
 8006d74:	e92d 4ff7 	stmdb	sp!, {r0, r1, r2, r4, r5, r6, r7, r8, r9, sl, fp, lr}
 8006d78:	4681      	mov	r9, r0
 8006d7a:	460e      	mov	r6, r1
 8006d7c:	4617      	mov	r7, r2
  struct pbuf *p;
  struct tcp_hdr *tcphdr;
  p = pbuf_alloc(PBUF_IP, TCP_HLEN, PBUF_RAM);
 8006d7e:	2114      	movs	r1, #20
 8006d80:	2200      	movs	r2, #0
 8006d82:	2001      	movs	r0, #1
{
 8006d84:	4698      	mov	r8, r3
 8006d86:	f8bd b030 	ldrh.w	fp, [sp, #48]	; 0x30
 8006d8a:	f8bd a034 	ldrh.w	sl, [sp, #52]	; 0x34
  p = pbuf_alloc(PBUF_IP, TCP_HLEN, PBUF_RAM);
 8006d8e:	f7fd febf 	bl	8004b10 <pbuf_alloc>
  if (p == NULL) {
 8006d92:	4605      	mov	r5, r0
 8006d94:	2800      	cmp	r0, #0
 8006d96:	d03d      	beq.n	8006e14 <tcp_rst+0xa0>
      return;
  }
  LWIP_ASSERT("check that first pbuf can hold struct tcp_hdr",
              (p->len >= sizeof(struct tcp_hdr)));

  tcphdr = (struct tcp_hdr *)p->payload;
 8006d98:	6844      	ldr	r4, [r0, #4]
  tcphdr->src = htons(local_port);
 8006d9a:	4658      	mov	r0, fp
 8006d9c:	f7fc fd46 	bl	800382c <lwip_htons>
 8006da0:	8020      	strh	r0, [r4, #0]
  tcphdr->dest = htons(remote_port);
 8006da2:	4650      	mov	r0, sl
 8006da4:	f7fc fd42 	bl	800382c <lwip_htons>
 8006da8:	8060      	strh	r0, [r4, #2]
  tcphdr->seqno = htonl(seqno);
 8006daa:	4648      	mov	r0, r9
 8006dac:	f7fc fd44 	bl	8003838 <lwip_htonl>
 8006db0:	6060      	str	r0, [r4, #4]
  tcphdr->ackno = htonl(ackno);
 8006db2:	4630      	mov	r0, r6
 8006db4:	f7fc fd40 	bl	8003838 <lwip_htonl>
 8006db8:	60a0      	str	r0, [r4, #8]
  TCPH_HDRLEN_FLAGS_SET(tcphdr, TCP_HLEN/4, TCP_RST | TCP_ACK);
 8006dba:	f245 0014 	movw	r0, #20500	; 0x5014
 8006dbe:	f7fc fd35 	bl	800382c <lwip_htons>
  tcphdr->wnd = PP_HTONS(TCP_WND);
 8006dc2:	2316      	movs	r3, #22
 8006dc4:	73a3      	strb	r3, [r4, #14]
 8006dc6:	f06f 032f 	mvn.w	r3, #47	; 0x2f
 8006dca:	2600      	movs	r6, #0
 8006dcc:	73e3      	strb	r3, [r4, #15]
  tcphdr->chksum = 0;
  tcphdr->urgp = 0;

#if CHECKSUM_GEN_TCP
  tcphdr->chksum = inet_chksum_pseudo(p, local_ip, remote_ip,
 8006dce:	892b      	ldrh	r3, [r5, #8]
  TCPH_HDRLEN_FLAGS_SET(tcphdr, TCP_HLEN/4, TCP_RST | TCP_ACK);
 8006dd0:	81a0      	strh	r0, [r4, #12]
  tcphdr->chksum = 0;
 8006dd2:	7426      	strb	r6, [r4, #16]
 8006dd4:	7466      	strb	r6, [r4, #17]
  tcphdr->urgp = 0;
 8006dd6:	74a6      	strb	r6, [r4, #18]
 8006dd8:	74e6      	strb	r6, [r4, #19]
  tcphdr->chksum = inet_chksum_pseudo(p, local_ip, remote_ip,
 8006dda:	4642      	mov	r2, r8
 8006ddc:	9300      	str	r3, [sp, #0]
 8006dde:	4639      	mov	r1, r7
 8006de0:	2306      	movs	r3, #6
 8006de2:	4628      	mov	r0, r5
 8006de4:	f7fc fe94 	bl	8003b10 <inet_chksum_pseudo>
              IP_PROTO_TCP, p->tot_len);
#endif
  TCP_STATS_INC(tcp.xmit);
 8006de8:	4a0c      	ldr	r2, [pc, #48]	; (8006e1c <tcp_rst+0xa8>)
  tcphdr->chksum = inet_chksum_pseudo(p, local_ip, remote_ip,
 8006dea:	8220      	strh	r0, [r4, #16]
  TCP_STATS_INC(tcp.xmit);
 8006dec:	f8b2 3090 	ldrh.w	r3, [r2, #144]	; 0x90
 8006df0:	3301      	adds	r3, #1
 8006df2:	f8a2 3090 	strh.w	r3, [r2, #144]	; 0x90
  snmp_inc_tcpoutrsts();
   /* Send output with hardcoded TTL since we have no access to the pcb */
  ip_output(p, local_ip, remote_ip, TCP_TTL, 0, IP_PROTO_TCP);
 8006df6:	2306      	movs	r3, #6
 8006df8:	9301      	str	r3, [sp, #4]
 8006dfa:	9600      	str	r6, [sp, #0]
 8006dfc:	23ff      	movs	r3, #255	; 0xff
 8006dfe:	4642      	mov	r2, r8
 8006e00:	4639      	mov	r1, r7
 8006e02:	4628      	mov	r0, r5
 8006e04:	f7fd f89a 	bl	8003f3c <ip_output>
  pbuf_free(p);
 8006e08:	4628      	mov	r0, r5
  LWIP_DEBUGF(TCP_RST_DEBUG, ("tcp_rst: seqno %"U32_F" ackno %"U32_F".\n", seqno, ackno));
}
 8006e0a:	b003      	add	sp, #12
 8006e0c:	e8bd 4ff0 	ldmia.w	sp!, {r4, r5, r6, r7, r8, r9, sl, fp, lr}
  pbuf_free(p);
 8006e10:	f7fd be57 	b.w	8004ac2 <pbuf_free>
}
 8006e14:	b003      	add	sp, #12
 8006e16:	e8bd 8ff0 	ldmia.w	sp!, {r4, r5, r6, r7, r8, r9, sl, fp, pc}
 8006e1a:	bf00      	nop
 8006e1c:	2000aaca 	.word	0x2000aaca

08006e20 <tcp_rexmit_rto>:
void
tcp_rexmit_rto(struct tcp_pcb *pcb)
{
  struct tcp_seg *seg;

  if (pcb->unacked == NULL) {
 8006e20:	6f02      	ldr	r2, [r0, #112]	; 0x70
{
 8006e22:	b410      	push	{r4}
  if (pcb->unacked == NULL) {
 8006e24:	b192      	cbz	r2, 8006e4c <tcp_rexmit_rto+0x2c>
 8006e26:	4611      	mov	r1, r2
    return;
  }

  /* Move all unacked segments to the head of the unsent queue */
  for (seg = pcb->unacked; seg->next != NULL; seg = seg->next);
 8006e28:	680b      	ldr	r3, [r1, #0]
 8006e2a:	b96b      	cbnz	r3, 8006e48 <tcp_rexmit_rto+0x28>
  /* concatenate unsent queue after unacked queue */
  seg->next = pcb->unsent;
 8006e2c:	6ec4      	ldr	r4, [r0, #108]	; 0x6c
 8006e2e:	600c      	str	r4, [r1, #0]
  /* unsent queue is the concatenated queue (of unacked, unsent) */
  pcb->unsent = pcb->unacked;
 8006e30:	66c2      	str	r2, [r0, #108]	; 0x6c
  /* unacked queue is now empty */
  pcb->unacked = NULL;
  /* last unsent hasn't changed, no need to reset unsent_oversize */

  /* increment number of retransmissions */
  ++pcb->nrtx;
 8006e32:	f890 2046 	ldrb.w	r2, [r0, #70]	; 0x46
  pcb->unacked = NULL;
 8006e36:	6703      	str	r3, [r0, #112]	; 0x70
  ++pcb->nrtx;
 8006e38:	3201      	adds	r2, #1
 8006e3a:	f880 2046 	strb.w	r2, [r0, #70]	; 0x46

  /* Don't take any RTT measurements after retransmitting. */
  pcb->rttest = 0;
 8006e3e:	6383      	str	r3, [r0, #56]	; 0x38

  /* Do the actual retransmission */
  tcp_output(pcb);
}
 8006e40:	f85d 4b04 	ldr.w	r4, [sp], #4
  tcp_output(pcb);
 8006e44:	f7ff be50 	b.w	8006ae8 <tcp_output>
 8006e48:	4619      	mov	r1, r3
 8006e4a:	e7ed      	b.n	8006e28 <tcp_rexmit_rto+0x8>
}
 8006e4c:	f85d 4b04 	ldr.w	r4, [sp], #4
 8006e50:	4770      	bx	lr

08006e52 <tcp_rexmit>:
 *
 * @param pcb the tcp_pcb for which to retransmit the first unacked segment
 */
void
tcp_rexmit(struct tcp_pcb *pcb)
{
 8006e52:	b5f8      	push	{r3, r4, r5, r6, r7, lr}
  struct tcp_seg *seg;
  struct tcp_seg **cur_seg;

  if (pcb->unacked == NULL) {
 8006e54:	6f05      	ldr	r5, [r0, #112]	; 0x70
{
 8006e56:	4604      	mov	r4, r0
  if (pcb->unacked == NULL) {
 8006e58:	b19d      	cbz	r5, 8006e82 <tcp_rexmit+0x30>
  }

  /* Move the first unacked segment to the unsent queue */
  /* Keep the unsent queue sorted. */
  seg = pcb->unacked;
  pcb->unacked = seg->next;
 8006e5a:	682b      	ldr	r3, [r5, #0]
 8006e5c:	6703      	str	r3, [r0, #112]	; 0x70

  cur_seg = &(pcb->unsent);
 8006e5e:	f100 066c 	add.w	r6, r0, #108	; 0x6c
  while (*cur_seg &&
 8006e62:	6833      	ldr	r3, [r6, #0]
 8006e64:	b973      	cbnz	r3, 8006e84 <tcp_rexmit+0x32>
    TCP_SEQ_LT(ntohl((*cur_seg)->tcphdr->seqno), ntohl(seg->tcphdr->seqno))) {
      cur_seg = &((*cur_seg)->next );
  }
  seg->next = *cur_seg;
 8006e66:	6833      	ldr	r3, [r6, #0]
 8006e68:	602b      	str	r3, [r5, #0]
  *cur_seg = seg;
 8006e6a:	6035      	str	r5, [r6, #0]
#if TCP_OVERSIZE
  if (seg->next == NULL) {
 8006e6c:	682b      	ldr	r3, [r5, #0]
 8006e6e:	b90b      	cbnz	r3, 8006e74 <tcp_rexmit+0x22>
    /* the retransmitted segment is last in unsent, so reset unsent_oversize */
    pcb->unsent_oversize = 0;
 8006e70:	f8a4 306a 	strh.w	r3, [r4, #106]	; 0x6a
  }
#endif /* TCP_OVERSIZE */

  ++pcb->nrtx;
 8006e74:	f894 3046 	ldrb.w	r3, [r4, #70]	; 0x46
 8006e78:	3301      	adds	r3, #1
 8006e7a:	f884 3046 	strb.w	r3, [r4, #70]	; 0x46

  /* Don't take any rtt measurements after retransmitting. */
  pcb->rttest = 0;
 8006e7e:	2300      	movs	r3, #0
 8006e80:	63a3      	str	r3, [r4, #56]	; 0x38
 8006e82:	bdf8      	pop	{r3, r4, r5, r6, r7, pc}
    TCP_SEQ_LT(ntohl((*cur_seg)->tcphdr->seqno), ntohl(seg->tcphdr->seqno))) {
 8006e84:	68db      	ldr	r3, [r3, #12]
 8006e86:	6858      	ldr	r0, [r3, #4]
 8006e88:	f7fc fcd8 	bl	800383c <lwip_ntohl>
 8006e8c:	68eb      	ldr	r3, [r5, #12]
 8006e8e:	4607      	mov	r7, r0
 8006e90:	6858      	ldr	r0, [r3, #4]
 8006e92:	f7fc fcd3 	bl	800383c <lwip_ntohl>
 8006e96:	1a38      	subs	r0, r7, r0
  while (*cur_seg &&
 8006e98:	2800      	cmp	r0, #0
 8006e9a:	dae4      	bge.n	8006e66 <tcp_rexmit+0x14>
      cur_seg = &((*cur_seg)->next );
 8006e9c:	6836      	ldr	r6, [r6, #0]
 8006e9e:	e7e0      	b.n	8006e62 <tcp_rexmit+0x10>

08006ea0 <tcp_rexmit_fast>:
 * @param pcb the tcp_pcb for which to retransmit the first unacked segment
 */
void 
tcp_rexmit_fast(struct tcp_pcb *pcb)
{
  if (pcb->unacked != NULL && !(pcb->flags & TF_INFR)) {
 8006ea0:	6f03      	ldr	r3, [r0, #112]	; 0x70
{
 8006ea2:	b510      	push	{r4, lr}
 8006ea4:	4604      	mov	r4, r0
  if (pcb->unacked != NULL && !(pcb->flags & TF_INFR)) {
 8006ea6:	b313      	cbz	r3, 8006eee <tcp_rexmit_fast+0x4e>
 8006ea8:	7f83      	ldrb	r3, [r0, #30]
 8006eaa:	075b      	lsls	r3, r3, #29
 8006eac:	d41f      	bmi.n	8006eee <tcp_rexmit_fast+0x4e>
    LWIP_DEBUGF(TCP_FR_DEBUG, 
                ("tcp_receive: dupacks %"U16_F" (%"U32_F
                 "), fast retransmit %"U32_F"\n",
                 (u16_t)pcb->dupacks, pcb->lastack,
                 ntohl(pcb->unacked->tcphdr->seqno)));
    tcp_rexmit(pcb);
 8006eae:	f7ff ffd0 	bl	8006e52 <tcp_rexmit>

    /* Set ssthresh to half of the minimum of the current
     * cwnd and the advertised window */
    if (pcb->cwnd > pcb->snd_wnd) {
 8006eb2:	f8b4 304c 	ldrh.w	r3, [r4, #76]	; 0x4c
 8006eb6:	f8b4 2060 	ldrh.w	r2, [r4, #96]	; 0x60
 8006eba:	4293      	cmp	r3, r2
      pcb->ssthresh = pcb->snd_wnd / 2;
 8006ebc:	bf8b      	itete	hi
 8006ebe:	0852      	lsrhi	r2, r2, #1
    } else {
      pcb->ssthresh = pcb->cwnd / 2;
 8006ec0:	085b      	lsrls	r3, r3, #1
      pcb->ssthresh = pcb->snd_wnd / 2;
 8006ec2:	f8a4 204e 	strhhi.w	r2, [r4, #78]	; 0x4e
      pcb->ssthresh = pcb->cwnd / 2;
 8006ec6:	f8a4 304e 	strhls.w	r3, [r4, #78]	; 0x4e
    }
    
    /* The minimum value for ssthresh should be 2 MSS */
    if (pcb->ssthresh < 2*pcb->mss) {
 8006eca:	8ee3      	ldrh	r3, [r4, #54]	; 0x36
 8006ecc:	f8b4 104e 	ldrh.w	r1, [r4, #78]	; 0x4e
 8006ed0:	005a      	lsls	r2, r3, #1
 8006ed2:	4291      	cmp	r1, r2
      LWIP_DEBUGF(TCP_FR_DEBUG, 
                  ("tcp_receive: The minimum value for ssthresh %"U16_F
                   " should be min 2 mss %"U16_F"...\n",
                   pcb->ssthresh, 2*pcb->mss));
      pcb->ssthresh = 2*pcb->mss;
 8006ed4:	bfb8      	it	lt
 8006ed6:	f8a4 204e 	strhlt.w	r2, [r4, #78]	; 0x4e
    }
    
    pcb->cwnd = pcb->ssthresh + 3 * pcb->mss;
 8006eda:	4413      	add	r3, r2
 8006edc:	f8b4 204e 	ldrh.w	r2, [r4, #78]	; 0x4e
 8006ee0:	4413      	add	r3, r2
 8006ee2:	f8a4 304c 	strh.w	r3, [r4, #76]	; 0x4c
    pcb->flags |= TF_INFR;
 8006ee6:	7fa3      	ldrb	r3, [r4, #30]
 8006ee8:	f043 0304 	orr.w	r3, r3, #4
 8006eec:	77a3      	strb	r3, [r4, #30]
 8006eee:	bd10      	pop	{r4, pc}

08006ef0 <tcp_keepalive>:
 *
 * @param pcb the tcp_pcb for which to send a keepalive packet
 */
void
tcp_keepalive(struct tcp_pcb *pcb)
{
 8006ef0:	b5f7      	push	{r0, r1, r2, r4, r5, r6, r7, lr}
 8006ef2:	4604      	mov	r4, r0
                          ip4_addr3_16(&pcb->remote_ip), ip4_addr4_16(&pcb->remote_ip)));

  LWIP_DEBUGF(TCP_DEBUG, ("tcp_keepalive: tcp_ticks %"U32_F"   pcb->tmr %"U32_F" pcb->keep_cnt_sent %"U16_F"\n", 
                          tcp_ticks, pcb->tmr, pcb->keep_cnt_sent));
   
  p = tcp_output_alloc_header(pcb, 0, 0, htonl(pcb->snd_nxt - 1));
 8006ef4:	6d00      	ldr	r0, [r0, #80]	; 0x50
 8006ef6:	3801      	subs	r0, #1
 8006ef8:	f7fc fc9e 	bl	8003838 <lwip_htonl>
 8006efc:	2100      	movs	r1, #0
 8006efe:	4602      	mov	r2, r0
 8006f00:	4620      	mov	r0, r4
 8006f02:	f7ff fd0f 	bl	8006924 <tcp_output_alloc_header.constprop.0>
  if(p == NULL) {
 8006f06:	4605      	mov	r5, r0
 8006f08:	b1f8      	cbz	r0, 8006f4a <tcp_keepalive+0x5a>
    return;
  }
  tcphdr = (struct tcp_hdr *)p->payload;

#if CHECKSUM_GEN_TCP
  tcphdr->chksum = inet_chksum_pseudo(p, &pcb->local_ip, &pcb->remote_ip,
 8006f0a:	1d26      	adds	r6, r4, #4
 8006f0c:	8903      	ldrh	r3, [r0, #8]
  tcphdr = (struct tcp_hdr *)p->payload;
 8006f0e:	6847      	ldr	r7, [r0, #4]
  tcphdr->chksum = inet_chksum_pseudo(p, &pcb->local_ip, &pcb->remote_ip,
 8006f10:	9300      	str	r3, [sp, #0]
 8006f12:	4632      	mov	r2, r6
 8006f14:	4621      	mov	r1, r4
 8006f16:	2306      	movs	r3, #6
 8006f18:	f7fc fdfa 	bl	8003b10 <inet_chksum_pseudo>
                                      IP_PROTO_TCP, p->tot_len);
#endif
  TCP_STATS_INC(tcp.xmit);
 8006f1c:	4a0c      	ldr	r2, [pc, #48]	; (8006f50 <tcp_keepalive+0x60>)
  tcphdr->chksum = inet_chksum_pseudo(p, &pcb->local_ip, &pcb->remote_ip,
 8006f1e:	8238      	strh	r0, [r7, #16]
  TCP_STATS_INC(tcp.xmit);
 8006f20:	f8b2 3090 	ldrh.w	r3, [r2, #144]	; 0x90
 8006f24:	3301      	adds	r3, #1
 8006f26:	f8a2 3090 	strh.w	r3, [r2, #144]	; 0x90
  /* Send output to IP */
#if LWIP_NETIF_HWADDRHINT
  ip_output_hinted(p, &pcb->local_ip, &pcb->remote_ip, pcb->ttl, 0, IP_PROTO_TCP,
    &(pcb->addr_hint));
#else /* LWIP_NETIF_HWADDRHINT*/
  ip_output(p, &pcb->local_ip, &pcb->remote_ip, pcb->ttl, 0, IP_PROTO_TCP);
 8006f2a:	2100      	movs	r1, #0
 8006f2c:	2206      	movs	r2, #6
 8006f2e:	e88d 0006 	stmia.w	sp, {r1, r2}
 8006f32:	7aa3      	ldrb	r3, [r4, #10]
 8006f34:	4632      	mov	r2, r6
 8006f36:	4621      	mov	r1, r4
 8006f38:	4628      	mov	r0, r5
 8006f3a:	f7fc ffff 	bl	8003f3c <ip_output>
#endif /* LWIP_NETIF_HWADDRHINT*/

  pbuf_free(p);
 8006f3e:	4628      	mov	r0, r5

  LWIP_DEBUGF(TCP_DEBUG, ("tcp_keepalive: seqno %"U32_F" ackno %"U32_F".\n",
                          pcb->snd_nxt - 1, pcb->rcv_nxt));
}
 8006f40:	b003      	add	sp, #12
 8006f42:	e8bd 40f0 	ldmia.w	sp!, {r4, r5, r6, r7, lr}
  pbuf_free(p);
 8006f46:	f7fd bdbc 	b.w	8004ac2 <pbuf_free>
}
 8006f4a:	b003      	add	sp, #12
 8006f4c:	bdf0      	pop	{r4, r5, r6, r7, pc}
 8006f4e:	bf00      	nop
 8006f50:	2000aaca 	.word	0x2000aaca

08006f54 <tcp_zero_window_probe>:
 *
 * @param pcb the tcp_pcb for which to send a zero-window probe packet
 */
void
tcp_zero_window_probe(struct tcp_pcb *pcb)
{
 8006f54:	e92d 41f3 	stmdb	sp!, {r0, r1, r4, r5, r6, r7, r8, lr}
  LWIP_DEBUGF(TCP_DEBUG, 
              ("tcp_zero_window_probe: tcp_ticks %"U32_F
               "   pcb->tmr %"U32_F" pcb->keep_cnt_sent %"U16_F"\n", 
               tcp_ticks, pcb->tmr, pcb->keep_cnt_sent));

  seg = pcb->unacked;
 8006f58:	6f05      	ldr	r5, [r0, #112]	; 0x70
{
 8006f5a:	4606      	mov	r6, r0

  if(seg == NULL) {
 8006f5c:	b915      	cbnz	r5, 8006f64 <tcp_zero_window_probe+0x10>
    seg = pcb->unsent;
 8006f5e:	6ec5      	ldr	r5, [r0, #108]	; 0x6c
  }
  if(seg == NULL) {
 8006f60:	2d00      	cmp	r5, #0
 8006f62:	d04e      	beq.n	8007002 <tcp_zero_window_probe+0xae>
    return;
  }

  is_fin = ((TCPH_FLAGS(seg->tcphdr) & TCP_FIN) != 0) && (seg->len == 0);
 8006f64:	68eb      	ldr	r3, [r5, #12]
 8006f66:	8998      	ldrh	r0, [r3, #12]
 8006f68:	f7fc fc63 	bl	8003832 <lwip_ntohs>
 8006f6c:	f010 0401 	ands.w	r4, r0, #1
 8006f70:	bf18      	it	ne
 8006f72:	892c      	ldrhne	r4, [r5, #8]
  /* we want to send one seqno: either FIN or data (no options) */
  len = is_fin ? 0 : 1;

  p = tcp_output_alloc_header(pcb, 0, len, seg->tcphdr->seqno);
 8006f74:	68eb      	ldr	r3, [r5, #12]
  is_fin = ((TCPH_FLAGS(seg->tcphdr) & TCP_FIN) != 0) && (seg->len == 0);
 8006f76:	bf1c      	itt	ne
 8006f78:	fab4 f484 	clzne	r4, r4
 8006f7c:	0964      	lsrne	r4, r4, #5
  p = tcp_output_alloc_header(pcb, 0, len, seg->tcphdr->seqno);
 8006f7e:	685a      	ldr	r2, [r3, #4]
 8006f80:	f084 0101 	eor.w	r1, r4, #1
 8006f84:	4630      	mov	r0, r6
 8006f86:	f7ff fccd 	bl	8006924 <tcp_output_alloc_header.constprop.0>
  if(p == NULL) {
 8006f8a:	4607      	mov	r7, r0
 8006f8c:	2800      	cmp	r0, #0
 8006f8e:	d038      	beq.n	8007002 <tcp_zero_window_probe+0xae>
    LWIP_DEBUGF(TCP_DEBUG, ("tcp_zero_window_probe: no memory for pbuf\n"));
    return;
  }
  tcphdr = (struct tcp_hdr *)p->payload;
 8006f90:	f8d0 8004 	ldr.w	r8, [r0, #4]

  if (is_fin) {
 8006f94:	b354      	cbz	r4, 8006fec <tcp_zero_window_probe+0x98>
    /* FIN segment, no data */
    TCPH_FLAGS_SET(tcphdr, TCP_ACK | TCP_FIN);
 8006f96:	2011      	movs	r0, #17
 8006f98:	f9b8 400c 	ldrsh.w	r4, [r8, #12]
 8006f9c:	f7fc fc46 	bl	800382c <lwip_htons>
 8006fa0:	f424 547c 	bic.w	r4, r4, #16128	; 0x3f00
 8006fa4:	4320      	orrs	r0, r4
 8006fa6:	f8a8 000c 	strh.w	r0, [r8, #12]
       Ensure we copy the first TCP data byte: */
    pbuf_copy_partial(seg->p, d, 1, seg->p->tot_len - seg->len);
  }

#if CHECKSUM_GEN_TCP
  tcphdr->chksum = inet_chksum_pseudo(p, &pcb->local_ip, &pcb->remote_ip,
 8006faa:	893b      	ldrh	r3, [r7, #8]
 8006fac:	9300      	str	r3, [sp, #0]
 8006fae:	1d34      	adds	r4, r6, #4
 8006fb0:	4622      	mov	r2, r4
 8006fb2:	4631      	mov	r1, r6
 8006fb4:	2306      	movs	r3, #6
 8006fb6:	4638      	mov	r0, r7
 8006fb8:	f7fc fdaa 	bl	8003b10 <inet_chksum_pseudo>
                                      IP_PROTO_TCP, p->tot_len);
#endif
  TCP_STATS_INC(tcp.xmit);
 8006fbc:	4a12      	ldr	r2, [pc, #72]	; (8007008 <tcp_zero_window_probe+0xb4>)
  tcphdr->chksum = inet_chksum_pseudo(p, &pcb->local_ip, &pcb->remote_ip,
 8006fbe:	f8a8 0010 	strh.w	r0, [r8, #16]
  TCP_STATS_INC(tcp.xmit);
 8006fc2:	f8b2 3090 	ldrh.w	r3, [r2, #144]	; 0x90
 8006fc6:	3301      	adds	r3, #1
 8006fc8:	f8a2 3090 	strh.w	r3, [r2, #144]	; 0x90
  /* Send output to IP */
#if LWIP_NETIF_HWADDRHINT
  ip_output_hinted(p, &pcb->local_ip, &pcb->remote_ip, pcb->ttl, 0, IP_PROTO_TCP,
    &(pcb->addr_hint));
#else /* LWIP_NETIF_HWADDRHINT*/
  ip_output(p, &pcb->local_ip, &pcb->remote_ip, pcb->ttl, 0, IP_PROTO_TCP);
 8006fcc:	2100      	movs	r1, #0
 8006fce:	2206      	movs	r2, #6
 8006fd0:	e88d 0006 	stmia.w	sp, {r1, r2}
 8006fd4:	7ab3      	ldrb	r3, [r6, #10]
 8006fd6:	4622      	mov	r2, r4
 8006fd8:	4631      	mov	r1, r6
 8006fda:	4638      	mov	r0, r7
 8006fdc:	f7fc ffae 	bl	8003f3c <ip_output>
#endif /* LWIP_NETIF_HWADDRHINT*/

  pbuf_free(p);
 8006fe0:	4638      	mov	r0, r7

  LWIP_DEBUGF(TCP_DEBUG, ("tcp_zero_window_probe: seqno %"U32_F
                          " ackno %"U32_F".\n",
                          pcb->snd_nxt - 1, pcb->rcv_nxt));
}
 8006fe2:	b002      	add	sp, #8
 8006fe4:	e8bd 41f0 	ldmia.w	sp!, {r4, r5, r6, r7, r8, lr}
  pbuf_free(p);
 8006fe8:	f7fd bd6b 	b.w	8004ac2 <pbuf_free>
    pbuf_copy_partial(seg->p, d, 1, seg->p->tot_len - seg->len);
 8006fec:	6868      	ldr	r0, [r5, #4]
 8006fee:	892a      	ldrh	r2, [r5, #8]
 8006ff0:	8903      	ldrh	r3, [r0, #8]
 8006ff2:	1a9b      	subs	r3, r3, r2
 8006ff4:	b29b      	uxth	r3, r3
 8006ff6:	2201      	movs	r2, #1
 8006ff8:	f108 0114 	add.w	r1, r8, #20
 8006ffc:	f7fd feab 	bl	8004d56 <pbuf_copy_partial>
 8007000:	e7d3      	b.n	8006faa <tcp_zero_window_probe+0x56>
}
 8007002:	b002      	add	sp, #8
 8007004:	e8bd 81f0 	ldmia.w	sp!, {r4, r5, r6, r7, r8, pc}
 8007008:	2000aaca 	.word	0x2000aaca

0800700c <sys_timeout>:
sys_timeout_debug(u32_t msecs, sys_timeout_handler handler, void *arg, const char* handler_name)
#else /* LWIP_DEBUG_TIMERNAMES */
void
sys_timeout(u32_t msecs, sys_timeout_handler handler, void *arg)
#endif /* LWIP_DEBUG_TIMERNAMES */
{
 800700c:	b570      	push	{r4, r5, r6, lr}
 800700e:	4604      	mov	r4, r0
  struct sys_timeo *timeout, *t;

  timeout = (struct sys_timeo *)memp_malloc(MEMP_SYS_TIMEOUT);
 8007010:	2007      	movs	r0, #7
{
 8007012:	460e      	mov	r6, r1
 8007014:	4615      	mov	r5, r2
  timeout = (struct sys_timeo *)memp_malloc(MEMP_SYS_TIMEOUT);
 8007016:	f7fd fc5b 	bl	80048d0 <memp_malloc>
  if (timeout == NULL) {
 800701a:	b308      	cbz	r0, 8007060 <sys_timeout+0x54>
  timeout->handler_name = handler_name;
  LWIP_DEBUGF(TIMERS_DEBUG, ("sys_timeout: %p msecs=%"U32_F" handler=%s arg=%p\n",
    (void *)timeout, msecs, handler_name, (void *)arg));
#endif /* LWIP_DEBUG_TIMERNAMES */

  if (next_timeout == NULL) {
 800701c:	4911      	ldr	r1, [pc, #68]	; (8007064 <sys_timeout+0x58>)
  timeout->h = handler;
 800701e:	6086      	str	r6, [r0, #8]
  timeout->next = NULL;
 8007020:	2300      	movs	r3, #0
 8007022:	6003      	str	r3, [r0, #0]
  if (next_timeout == NULL) {
 8007024:	680b      	ldr	r3, [r1, #0]
  timeout->arg = arg;
 8007026:	60c5      	str	r5, [r0, #12]
  timeout->time = msecs;
 8007028:	6044      	str	r4, [r0, #4]
  if (next_timeout == NULL) {
 800702a:	b90b      	cbnz	r3, 8007030 <sys_timeout+0x24>
  }

  if (next_timeout->time > msecs) {
    next_timeout->time -= msecs;
    timeout->next = next_timeout;
    next_timeout = timeout;
 800702c:	6008      	str	r0, [r1, #0]
 800702e:	bd70      	pop	{r4, r5, r6, pc}
  if (next_timeout->time > msecs) {
 8007030:	685a      	ldr	r2, [r3, #4]
 8007032:	4294      	cmp	r4, r2
 8007034:	d207      	bcs.n	8007046 <sys_timeout+0x3a>
    next_timeout->time -= msecs;
 8007036:	1b12      	subs	r2, r2, r4
 8007038:	605a      	str	r2, [r3, #4]
    timeout->next = next_timeout;
 800703a:	6003      	str	r3, [r0, #0]
 800703c:	e7f6      	b.n	800702c <sys_timeout+0x20>
  } else {
    for(t = next_timeout; t != NULL; t = t->next) {
      timeout->time -= t->time;
      if (t->next == NULL || t->next->time > timeout->time) {
 800703e:	6854      	ldr	r4, [r2, #4]
 8007040:	42a1      	cmp	r1, r4
 8007042:	d30a      	bcc.n	800705a <sys_timeout+0x4e>
 8007044:	4613      	mov	r3, r2
      timeout->time -= t->time;
 8007046:	685a      	ldr	r2, [r3, #4]
 8007048:	6841      	ldr	r1, [r0, #4]
 800704a:	1a89      	subs	r1, r1, r2
      if (t->next == NULL || t->next->time > timeout->time) {
 800704c:	681a      	ldr	r2, [r3, #0]
      timeout->time -= t->time;
 800704e:	6041      	str	r1, [r0, #4]
      if (t->next == NULL || t->next->time > timeout->time) {
 8007050:	2a00      	cmp	r2, #0
 8007052:	d1f4      	bne.n	800703e <sys_timeout+0x32>
        if (t->next != NULL) {
          t->next->time -= timeout->time;
        }
        timeout->next = t->next;
 8007054:	6002      	str	r2, [r0, #0]
        t->next = timeout;
 8007056:	6018      	str	r0, [r3, #0]
        break;
 8007058:	bd70      	pop	{r4, r5, r6, pc}
          t->next->time -= timeout->time;
 800705a:	1a61      	subs	r1, r4, r1
 800705c:	6051      	str	r1, [r2, #4]
 800705e:	e7f9      	b.n	8007054 <sys_timeout+0x48>
 8007060:	bd70      	pop	{r4, r5, r6, pc}
 8007062:	bf00      	nop
 8007064:	200071c4 	.word	0x200071c4

08007068 <tcp_timer_needed>:
  if (!tcpip_tcp_timer_active && (tcp_active_pcbs || tcp_tw_pcbs)) {
 8007068:	4b08      	ldr	r3, [pc, #32]	; (800708c <tcp_timer_needed+0x24>)
 800706a:	681a      	ldr	r2, [r3, #0]
 800706c:	b962      	cbnz	r2, 8007088 <tcp_timer_needed+0x20>
 800706e:	4a08      	ldr	r2, [pc, #32]	; (8007090 <tcp_timer_needed+0x28>)
 8007070:	6812      	ldr	r2, [r2, #0]
 8007072:	b912      	cbnz	r2, 800707a <tcp_timer_needed+0x12>
 8007074:	4a07      	ldr	r2, [pc, #28]	; (8007094 <tcp_timer_needed+0x2c>)
 8007076:	6812      	ldr	r2, [r2, #0]
 8007078:	b132      	cbz	r2, 8007088 <tcp_timer_needed+0x20>
    tcpip_tcp_timer_active = 1;
 800707a:	2201      	movs	r2, #1
 800707c:	601a      	str	r2, [r3, #0]
    sys_timeout(TCP_TMR_INTERVAL, tcpip_tcp_timer, NULL);
 800707e:	4906      	ldr	r1, [pc, #24]	; (8007098 <tcp_timer_needed+0x30>)
 8007080:	2200      	movs	r2, #0
 8007082:	20fa      	movs	r0, #250	; 0xfa
 8007084:	f7ff bfc2 	b.w	800700c <sys_timeout>
 8007088:	4770      	bx	lr
 800708a:	bf00      	nop
 800708c:	200071c8 	.word	0x200071c8
 8007090:	2000abe4 	.word	0x2000abe4
 8007094:	2000abf8 	.word	0x2000abf8
 8007098:	0800709d 	.word	0x0800709d

0800709c <tcpip_tcp_timer>:
{
 800709c:	b508      	push	{r3, lr}
  tcp_tmr();
 800709e:	f7fe fa1b 	bl	80054d8 <tcp_tmr>
  if (tcp_active_pcbs || tcp_tw_pcbs) {
 80070a2:	4b08      	ldr	r3, [pc, #32]	; (80070c4 <tcpip_tcp_timer+0x28>)
 80070a4:	681b      	ldr	r3, [r3, #0]
 80070a6:	b913      	cbnz	r3, 80070ae <tcpip_tcp_timer+0x12>
 80070a8:	4b07      	ldr	r3, [pc, #28]	; (80070c8 <tcpip_tcp_timer+0x2c>)
 80070aa:	681b      	ldr	r3, [r3, #0]
 80070ac:	b133      	cbz	r3, 80070bc <tcpip_tcp_timer+0x20>
    sys_timeout(TCP_TMR_INTERVAL, tcpip_tcp_timer, NULL);
 80070ae:	2200      	movs	r2, #0
 80070b0:	4906      	ldr	r1, [pc, #24]	; (80070cc <tcpip_tcp_timer+0x30>)
 80070b2:	20fa      	movs	r0, #250	; 0xfa
}
 80070b4:	e8bd 4008 	ldmia.w	sp!, {r3, lr}
    sys_timeout(TCP_TMR_INTERVAL, tcpip_tcp_timer, NULL);
 80070b8:	f7ff bfa8 	b.w	800700c <sys_timeout>
    tcpip_tcp_timer_active = 0;
 80070bc:	4a04      	ldr	r2, [pc, #16]	; (80070d0 <tcpip_tcp_timer+0x34>)
 80070be:	6013      	str	r3, [r2, #0]
 80070c0:	bd08      	pop	{r3, pc}
 80070c2:	bf00      	nop
 80070c4:	2000abe4 	.word	0x2000abe4
 80070c8:	2000abf8 	.word	0x2000abf8
 80070cc:	0800709d 	.word	0x0800709d
 80070d0:	200071c8 	.word	0x200071c8

080070d4 <sys_timeouts_init>:
{
 80070d4:	b508      	push	{r3, lr}
  sys_timeout(IP_TMR_INTERVAL, ip_reass_timer, NULL);
 80070d6:	2200      	movs	r2, #0
 80070d8:	4907      	ldr	r1, [pc, #28]	; (80070f8 <sys_timeouts_init+0x24>)
 80070da:	f44f 707a 	mov.w	r0, #1000	; 0x3e8
 80070de:	f7ff ff95 	bl	800700c <sys_timeout>
  sys_timeout(ARP_TMR_INTERVAL, arp_timer, NULL);
 80070e2:	2200      	movs	r2, #0
 80070e4:	4905      	ldr	r1, [pc, #20]	; (80070fc <sys_timeouts_init+0x28>)
 80070e6:	f241 3088 	movw	r0, #5000	; 0x1388
 80070ea:	f7ff ff8f 	bl	800700c <sys_timeout>
  timeouts_last_time = sys_now();
 80070ee:	f7fb fffa 	bl	80030e6 <sys_now>
 80070f2:	4b03      	ldr	r3, [pc, #12]	; (8007100 <sys_timeouts_init+0x2c>)
 80070f4:	6018      	str	r0, [r3, #0]
 80070f6:	bd08      	pop	{r3, pc}
 80070f8:	08007121 	.word	0x08007121
 80070fc:	08007105 	.word	0x08007105
 8007100:	200071cc 	.word	0x200071cc

08007104 <arp_timer>:
{
 8007104:	b508      	push	{r3, lr}
  etharp_tmr();
 8007106:	f000 fadb 	bl	80076c0 <etharp_tmr>
  sys_timeout(ARP_TMR_INTERVAL, arp_timer, NULL);
 800710a:	2200      	movs	r2, #0
 800710c:	4903      	ldr	r1, [pc, #12]	; (800711c <arp_timer+0x18>)
 800710e:	f241 3088 	movw	r0, #5000	; 0x1388
}
 8007112:	e8bd 4008 	ldmia.w	sp!, {r3, lr}
  sys_timeout(ARP_TMR_INTERVAL, arp_timer, NULL);
 8007116:	f7ff bf79 	b.w	800700c <sys_timeout>
 800711a:	bf00      	nop
 800711c:	08007105 	.word	0x08007105

08007120 <ip_reass_timer>:
{
 8007120:	b508      	push	{r3, lr}
  ip_reass_tmr();
 8007122:	f7fc ffd7 	bl	80040d4 <ip_reass_tmr>
  sys_timeout(IP_TMR_INTERVAL, ip_reass_timer, NULL);
 8007126:	2200      	movs	r2, #0
 8007128:	4903      	ldr	r1, [pc, #12]	; (8007138 <ip_reass_timer+0x18>)
 800712a:	f44f 707a 	mov.w	r0, #1000	; 0x3e8
}
 800712e:	e8bd 4008 	ldmia.w	sp!, {r3, lr}
  sys_timeout(IP_TMR_INTERVAL, ip_reass_timer, NULL);
 8007132:	f7ff bf6b 	b.w	800700c <sys_timeout>
 8007136:	bf00      	nop
 8007138:	08007121 	.word	0x08007121

0800713c <udp_init>:
/**
 * Initialize this module.
 */
void
udp_init(void)
{
 800713c:	4770      	bx	lr
	...

08007140 <udp_input>:
 * @param inp network interface on which the datagram was received.
 *
 */
void
udp_input(struct pbuf *p, struct netif *inp)
{
 8007140:	e92d 4ff0 	stmdb	sp!, {r4, r5, r6, r7, r8, r9, sl, fp, lr}
  u8_t local_match;
  u8_t broadcast;

  PERF_START;

  UDP_STATS_INC(udp.recv);
 8007144:	4e66      	ldr	r6, [pc, #408]	; (80072e0 <udp_input+0x1a0>)

  iphdr = (struct ip_hdr *)p->payload;
 8007146:	f8d0 8004 	ldr.w	r8, [r0, #4]
  UDP_STATS_INC(udp.recv);
 800714a:	f8b6 307a 	ldrh.w	r3, [r6, #122]	; 0x7a
 800714e:	3301      	adds	r3, #1
 8007150:	f8a6 307a 	strh.w	r3, [r6, #122]	; 0x7a
{
 8007154:	468a      	mov	sl, r1
 8007156:	f898 1000 	ldrb.w	r1, [r8]

  /* Check minimum length (IP header + UDP header)
   * and move payload pointer to UDP header */
  if (p->tot_len < (IPH_HL(iphdr) * 4 + UDP_HLEN) || pbuf_header(p, -(s16_t)(IPH_HL(iphdr) * 4))) {
 800715a:	8903      	ldrh	r3, [r0, #8]
 800715c:	f001 010f 	and.w	r1, r1, #15
 8007160:	1c8a      	adds	r2, r1, #2
 8007162:	ebb3 0f82 	cmp.w	r3, r2, lsl #2
{
 8007166:	b085      	sub	sp, #20
 8007168:	4604      	mov	r4, r0
  if (p->tot_len < (IPH_HL(iphdr) * 4 + UDP_HLEN) || pbuf_header(p, -(s16_t)(IPH_HL(iphdr) * 4))) {
 800716a:	da0f      	bge.n	800718c <udp_input+0x4c>
    /* drop short packets */
    LWIP_DEBUGF(UDP_DEBUG,
                ("udp_input: short UDP datagram (%"U16_F" bytes) discarded\n", p->tot_len));
    UDP_STATS_INC(udp.lenerr);
 800716c:	f8b6 3082 	ldrh.w	r3, [r6, #130]	; 0x82
 8007170:	3301      	adds	r3, #1
 8007172:	f8a6 3082 	strh.w	r3, [r6, #130]	; 0x82
    UDP_STATS_INC(udp.drop);
 8007176:	f8b6 307e 	ldrh.w	r3, [r6, #126]	; 0x7e
 800717a:	3301      	adds	r3, #1
 800717c:	f8a6 307e 	strh.w	r3, [r6, #126]	; 0x7e
      }
#endif /* LWIP_ICMP */
      UDP_STATS_INC(udp.proterr);
      UDP_STATS_INC(udp.drop);
      snmp_inc_udpnoports();
      pbuf_free(p);
 8007180:	4620      	mov	r0, r4
  } else {
    pbuf_free(p);
  }
end:
  PERF_STOP("udp_input");
}
 8007182:	b005      	add	sp, #20
 8007184:	e8bd 4ff0 	ldmia.w	sp!, {r4, r5, r6, r7, r8, r9, sl, fp, lr}
      pbuf_free(p);
 8007188:	f7fd bc9b 	b.w	8004ac2 <pbuf_free>
  if (p->tot_len < (IPH_HL(iphdr) * 4 + UDP_HLEN) || pbuf_header(p, -(s16_t)(IPH_HL(iphdr) * 4))) {
 800718c:	0089      	lsls	r1, r1, #2
 800718e:	4249      	negs	r1, r1
 8007190:	f7fd fc6c 	bl	8004a6c <pbuf_header>
 8007194:	4605      	mov	r5, r0
 8007196:	2800      	cmp	r0, #0
 8007198:	d1e8      	bne.n	800716c <udp_input+0x2c>
  broadcast = ip_addr_isbroadcast(&current_iphdr_dest, inp);
 800719a:	f8df b150 	ldr.w	fp, [pc, #336]	; 80072ec <udp_input+0x1ac>
  udphdr = (struct udp_hdr *)p->payload;
 800719e:	6866      	ldr	r6, [r4, #4]
  broadcast = ip_addr_isbroadcast(&current_iphdr_dest, inp);
 80071a0:	f8db 0000 	ldr.w	r0, [fp]
 80071a4:	4651      	mov	r1, sl
 80071a6:	f7fc feed 	bl	8003f84 <ip4_addr_isbroadcast>
 80071aa:	4607      	mov	r7, r0
  src = ntohs(udphdr->src);
 80071ac:	8830      	ldrh	r0, [r6, #0]
 80071ae:	f7fc fb40 	bl	8003832 <lwip_ntohs>
 80071b2:	4681      	mov	r9, r0
  dest = ntohs(udphdr->dest);
 80071b4:	8870      	ldrh	r0, [r6, #2]
 80071b6:	f7fc fb3c 	bl	8003832 <lwip_ntohs>
    for (pcb = udp_pcbs; pcb != NULL; pcb = pcb->next) {
 80071ba:	4b4a      	ldr	r3, [pc, #296]	; (80072e4 <udp_input+0x1a4>)
           ip_addr_cmp(&(pcb->local_ip), &current_iphdr_dest) ||
 80071bc:	f8db 1000 	ldr.w	r1, [fp]
    for (pcb = udp_pcbs; pcb != NULL; pcb = pcb->next) {
 80071c0:	681b      	ldr	r3, [r3, #0]
 80071c2:	9303      	str	r3, [sp, #12]
           ip_addr_cmp(&(pcb->remote_ip), &current_iphdr_src))) {
 80071c4:	4b48      	ldr	r3, [pc, #288]	; (80072e8 <udp_input+0x1a8>)
 80071c6:	f8d3 e000 	ldr.w	lr, [r3]
    for (pcb = udp_pcbs; pcb != NULL; pcb = pcb->next) {
 80071ca:	9b03      	ldr	r3, [sp, #12]
  dest = ntohs(udphdr->dest);
 80071cc:	4684      	mov	ip, r0
    prev = NULL;
 80071ce:	46ab      	mov	fp, r5
    for (pcb = udp_pcbs; pcb != NULL; pcb = pcb->next) {
 80071d0:	b933      	cbnz	r3, 80071e0 <udp_input+0xa0>
  if (pcb != NULL || ip_addr_cmp(&inp->ip_addr, &current_iphdr_dest)) {
 80071d2:	2d00      	cmp	r5, #0
 80071d4:	d136      	bne.n	8007244 <udp_input+0x104>
 80071d6:	f8da 3004 	ldr.w	r3, [sl, #4]
 80071da:	4299      	cmp	r1, r3
 80071dc:	d1d0      	bne.n	8007180 <udp_input+0x40>
 80071de:	e031      	b.n	8007244 <udp_input+0x104>
      if (pcb->local_port == dest) {
 80071e0:	8a5a      	ldrh	r2, [r3, #18]
 80071e2:	4562      	cmp	r2, ip
 80071e4:	d123      	bne.n	800722e <udp_input+0xee>
 80071e6:	681a      	ldr	r2, [r3, #0]
        if (
 80071e8:	b907      	cbnz	r7, 80071ec <udp_input+0xac>
           (!broadcast && ip_addr_isany(&pcb->local_ip)) ||
 80071ea:	b14a      	cbz	r2, 8007200 <udp_input+0xc0>
 80071ec:	428a      	cmp	r2, r1
 80071ee:	d007      	beq.n	8007200 <udp_input+0xc0>
           ip_addr_cmp(&(pcb->local_ip), &current_iphdr_dest) ||
 80071f0:	b1ef      	cbz	r7, 800722e <udp_input+0xee>
             (ip_addr_isany(&pcb->local_ip) ||
 80071f2:	b12a      	cbz	r2, 8007200 <udp_input+0xc0>
              ip_addr_netcmp(&pcb->local_ip, ip_current_dest_addr(), &inp->netmask)))) {
 80071f4:	404a      	eors	r2, r1
 80071f6:	4610      	mov	r0, r2
             (ip_addr_isany(&pcb->local_ip) ||
 80071f8:	f8da 2008 	ldr.w	r2, [sl, #8]
 80071fc:	4210      	tst	r0, r2
 80071fe:	d116      	bne.n	800722e <udp_input+0xee>
          if ((uncon_pcb == NULL) && 
 8007200:	b925      	cbnz	r5, 800720c <udp_input+0xcc>
 8007202:	7c1a      	ldrb	r2, [r3, #16]
 8007204:	f012 0f04 	tst.w	r2, #4
 8007208:	bf08      	it	eq
 800720a:	461d      	moveq	r5, r3
      if ((local_match != 0) &&
 800720c:	8a9a      	ldrh	r2, [r3, #20]
 800720e:	454a      	cmp	r2, r9
 8007210:	d10d      	bne.n	800722e <udp_input+0xee>
          (ip_addr_isany(&pcb->remote_ip) ||
 8007212:	685a      	ldr	r2, [r3, #4]
 8007214:	b94a      	cbnz	r2, 800722a <udp_input+0xea>
        if (prev != NULL) {
 8007216:	f1bb 0f00 	cmp.w	fp, #0
 800721a:	d10b      	bne.n	8007234 <udp_input+0xf4>
          UDP_STATS_INC(udp.cachehit);
 800721c:	4930      	ldr	r1, [pc, #192]	; (80072e0 <udp_input+0x1a0>)
 800721e:	f8b1 208e 	ldrh.w	r2, [r1, #142]	; 0x8e
 8007222:	3201      	adds	r2, #1
 8007224:	f8a1 208e 	strh.w	r2, [r1, #142]	; 0x8e
 8007228:	e00b      	b.n	8007242 <udp_input+0x102>
          (ip_addr_isany(&pcb->remote_ip) ||
 800722a:	4572      	cmp	r2, lr
 800722c:	d0f3      	beq.n	8007216 <udp_input+0xd6>
    for (pcb = udp_pcbs; pcb != NULL; pcb = pcb->next) {
 800722e:	469b      	mov	fp, r3
 8007230:	68db      	ldr	r3, [r3, #12]
 8007232:	e7cd      	b.n	80071d0 <udp_input+0x90>
          prev->next = pcb->next;
 8007234:	68da      	ldr	r2, [r3, #12]
 8007236:	f8cb 200c 	str.w	r2, [fp, #12]
          pcb->next = udp_pcbs;
 800723a:	9a03      	ldr	r2, [sp, #12]
 800723c:	60da      	str	r2, [r3, #12]
          udp_pcbs = pcb;
 800723e:	4a29      	ldr	r2, [pc, #164]	; (80072e4 <udp_input+0x1a4>)
 8007240:	6013      	str	r3, [r2, #0]
          UDP_STATS_INC(udp.cachehit);
 8007242:	461d      	mov	r5, r3
      if (udphdr->chksum != 0) {
 8007244:	88f3      	ldrh	r3, [r6, #6]
 8007246:	b1a3      	cbz	r3, 8007272 <udp_input+0x132>
        if (inet_chksum_pseudo(p, ip_current_src_addr(), ip_current_dest_addr(),
 8007248:	8923      	ldrh	r3, [r4, #8]
 800724a:	9300      	str	r3, [sp, #0]
 800724c:	4a27      	ldr	r2, [pc, #156]	; (80072ec <udp_input+0x1ac>)
 800724e:	4926      	ldr	r1, [pc, #152]	; (80072e8 <udp_input+0x1a8>)
 8007250:	2311      	movs	r3, #17
 8007252:	4620      	mov	r0, r4
 8007254:	f7fc fc5c 	bl	8003b10 <inet_chksum_pseudo>
 8007258:	b158      	cbz	r0, 8007272 <udp_input+0x132>
          UDP_STATS_INC(udp.chkerr);
 800725a:	4b21      	ldr	r3, [pc, #132]	; (80072e0 <udp_input+0x1a0>)
 800725c:	f8b3 2080 	ldrh.w	r2, [r3, #128]	; 0x80
 8007260:	3201      	adds	r2, #1
 8007262:	f8a3 2080 	strh.w	r2, [r3, #128]	; 0x80
      UDP_STATS_INC(udp.drop);
 8007266:	f8b3 207e 	ldrh.w	r2, [r3, #126]	; 0x7e
 800726a:	3201      	adds	r2, #1
 800726c:	f8a3 207e 	strh.w	r2, [r3, #126]	; 0x7e
 8007270:	e786      	b.n	8007180 <udp_input+0x40>
    if(pbuf_header(p, -UDP_HLEN)) {
 8007272:	f06f 0107 	mvn.w	r1, #7
 8007276:	4620      	mov	r0, r4
 8007278:	f7fd fbf8 	bl	8004a6c <pbuf_header>
 800727c:	b130      	cbz	r0, 800728c <udp_input+0x14c>
      UDP_STATS_INC(udp.drop);
 800727e:	4a18      	ldr	r2, [pc, #96]	; (80072e0 <udp_input+0x1a0>)
 8007280:	f8b2 307e 	ldrh.w	r3, [r2, #126]	; 0x7e
 8007284:	3301      	adds	r3, #1
 8007286:	f8a2 307e 	strh.w	r3, [r2, #126]	; 0x7e
 800728a:	e779      	b.n	8007180 <udp_input+0x40>
    if (pcb != NULL) {
 800728c:	b16d      	cbz	r5, 80072aa <udp_input+0x16a>
      if (pcb->recv != NULL) {
 800728e:	69ae      	ldr	r6, [r5, #24]
 8007290:	2e00      	cmp	r6, #0
 8007292:	f43f af75 	beq.w	8007180 <udp_input+0x40>
        pcb->recv(pcb->recv_arg, pcb, p, ip_current_src_addr(), src);
 8007296:	f8cd 9000 	str.w	r9, [sp]
 800729a:	4b13      	ldr	r3, [pc, #76]	; (80072e8 <udp_input+0x1a8>)
 800729c:	69e8      	ldr	r0, [r5, #28]
 800729e:	4622      	mov	r2, r4
 80072a0:	4629      	mov	r1, r5
 80072a2:	47b0      	blx	r6
}
 80072a4:	b005      	add	sp, #20
 80072a6:	e8bd 8ff0 	ldmia.w	sp!, {r4, r5, r6, r7, r8, r9, sl, fp, pc}
      if (!broadcast &&
 80072aa:	b997      	cbnz	r7, 80072d2 <udp_input+0x192>
          !ip_addr_ismulticast(&current_iphdr_dest)) {
 80072ac:	4b0f      	ldr	r3, [pc, #60]	; (80072ec <udp_input+0x1ac>)
 80072ae:	681b      	ldr	r3, [r3, #0]
 80072b0:	f003 03f0 	and.w	r3, r3, #240	; 0xf0
      if (!broadcast &&
 80072b4:	2be0      	cmp	r3, #224	; 0xe0
 80072b6:	d00c      	beq.n	80072d2 <udp_input+0x192>
        pbuf_header(p, (IPH_HL(iphdr) * 4) + UDP_HLEN);
 80072b8:	f898 1000 	ldrb.w	r1, [r8]
 80072bc:	f001 010f 	and.w	r1, r1, #15
 80072c0:	3102      	adds	r1, #2
 80072c2:	0089      	lsls	r1, r1, #2
 80072c4:	4620      	mov	r0, r4
 80072c6:	f7fd fbd1 	bl	8004a6c <pbuf_header>
        icmp_dest_unreach(p, ICMP_DUR_PORT);
 80072ca:	2103      	movs	r1, #3
 80072cc:	4620      	mov	r0, r4
 80072ce:	f7fc fbe5 	bl	8003a9c <icmp_dest_unreach>
      UDP_STATS_INC(udp.proterr);
 80072d2:	4b03      	ldr	r3, [pc, #12]	; (80072e0 <udp_input+0x1a0>)
 80072d4:	f8b3 2088 	ldrh.w	r2, [r3, #136]	; 0x88
 80072d8:	3201      	adds	r2, #1
 80072da:	f8a3 2088 	strh.w	r2, [r3, #136]	; 0x88
 80072de:	e7c2      	b.n	8007266 <udp_input+0x126>
 80072e0:	2000aaca 	.word	0x2000aaca
 80072e4:	2000ac00 	.word	0x2000ac00
 80072e8:	2000838c 	.word	0x2000838c
 80072ec:	20008394 	.word	0x20008394

080072f0 <udp_bind>:
 *
 * @see udp_disconnect()
 */
err_t
udp_bind(struct udp_pcb *pcb, ip_addr_t *ipaddr, u16_t port)
{
 80072f0:	b5f0      	push	{r4, r5, r6, r7, lr}
  ip_addr_debug_print(UDP_DEBUG, ipaddr);
  LWIP_DEBUGF(UDP_DEBUG | LWIP_DBG_TRACE, (", port = %"U16_F")\n", port));

  rebind = 0;
  /* Check for double bind and rebind of the same pcb */
  for (ipcb = udp_pcbs; ipcb != NULL; ipcb = ipcb->next) {
 80072f2:	4e23      	ldr	r6, [pc, #140]	; (8007380 <udp_bind+0x90>)
 80072f4:	6837      	ldr	r7, [r6, #0]
  rebind = 0;
 80072f6:	2300      	movs	r3, #0
  for (ipcb = udp_pcbs; ipcb != NULL; ipcb = ipcb->next) {
 80072f8:	463c      	mov	r4, r7
 80072fa:	b9d4      	cbnz	r4, 8007332 <udp_bind+0x42>
        return ERR_USE;
      }
    }
  }

  ip_addr_set(&pcb->local_ip, ipaddr);
 80072fc:	b101      	cbz	r1, 8007300 <udp_bind+0x10>
 80072fe:	6809      	ldr	r1, [r1, #0]
 8007300:	6001      	str	r1, [r0, #0]

  /* no port specified? */
  if (port == 0) {
 8007302:	b982      	cbnz	r2, 8007326 <udp_bind+0x36>
 8007304:	4c1f      	ldr	r4, [pc, #124]	; (8007384 <udp_bind+0x94>)
 8007306:	8821      	ldrh	r1, [r4, #0]
 8007308:	f44f 4580 	mov.w	r5, #16384	; 0x4000
  if (udp_port++ == UDP_LOCAL_PORT_RANGE_END) {
 800730c:	f64f 7cff 	movw	ip, #65535	; 0xffff
 8007310:	4561      	cmp	r1, ip
 8007312:	bf1a      	itte	ne
 8007314:	1c4a      	addne	r2, r1, #1
 8007316:	b292      	uxthne	r2, r2
    udp_port = UDP_LOCAL_PORT_RANGE_START;
 8007318:	f44f 4240 	moveq.w	r2, #49152	; 0xc000
  for(pcb = udp_pcbs; pcb != NULL; pcb = pcb->next) {
 800731c:	46be      	mov	lr, r7
 800731e:	f1be 0f00 	cmp.w	lr, #0
 8007322:	d11f      	bne.n	8007364 <udp_bind+0x74>
 8007324:	8022      	strh	r2, [r4, #0]
      /* no more ports available in local range */
      LWIP_DEBUGF(UDP_DEBUG, ("udp_bind: out of free UDP ports\n"));
      return ERR_USE;
    }
  }
  pcb->local_port = port;
 8007326:	8242      	strh	r2, [r0, #18]
  snmp_insert_udpidx_tree(pcb);
  /* pcb not active yet? */
  if (rebind == 0) {
 8007328:	b90b      	cbnz	r3, 800732e <udp_bind+0x3e>
    /* place the PCB on the active list if not already there */
    pcb->next = udp_pcbs;
 800732a:	60c7      	str	r7, [r0, #12]
    udp_pcbs = pcb;
 800732c:	6030      	str	r0, [r6, #0]
  LWIP_DEBUGF(UDP_DEBUG | LWIP_DBG_TRACE | LWIP_DBG_STATE,
              ("udp_bind: bound to %"U16_F".%"U16_F".%"U16_F".%"U16_F", port %"U16_F"\n",
               ip4_addr1_16(&pcb->local_ip), ip4_addr2_16(&pcb->local_ip),
               ip4_addr3_16(&pcb->local_ip), ip4_addr4_16(&pcb->local_ip),
               pcb->local_port));
  return ERR_OK;
 800732e:	2000      	movs	r0, #0
}
 8007330:	bdf0      	pop	{r4, r5, r6, r7, pc}
    if (pcb == ipcb) {
 8007332:	4284      	cmp	r4, r0
 8007334:	d014      	beq.n	8007360 <udp_bind+0x70>
      if ((ipcb->local_port == port) &&
 8007336:	8a65      	ldrh	r5, [r4, #18]
 8007338:	4295      	cmp	r5, r2
 800733a:	d10f      	bne.n	800735c <udp_bind+0x6c>
 800733c:	b914      	cbnz	r4, 8007344 <udp_bind+0x54>
        return ERR_USE;
 800733e:	f06f 0007 	mvn.w	r0, #7
 8007342:	bdf0      	pop	{r4, r5, r6, r7, pc}
          (ip_addr_isany(&(ipcb->local_ip)) ||
 8007344:	f8d4 e000 	ldr.w	lr, [r4]
 8007348:	f1be 0f00 	cmp.w	lr, #0
 800734c:	d0f7      	beq.n	800733e <udp_bind+0x4e>
 800734e:	2900      	cmp	r1, #0
 8007350:	d0f5      	beq.n	800733e <udp_bind+0x4e>
           ip_addr_isany(ipaddr) ||
 8007352:	680d      	ldr	r5, [r1, #0]
 8007354:	2d00      	cmp	r5, #0
 8007356:	d0f2      	beq.n	800733e <udp_bind+0x4e>
 8007358:	45ae      	cmp	lr, r5
 800735a:	d0f0      	beq.n	800733e <udp_bind+0x4e>
  for (ipcb = udp_pcbs; ipcb != NULL; ipcb = ipcb->next) {
 800735c:	68e4      	ldr	r4, [r4, #12]
 800735e:	e7cc      	b.n	80072fa <udp_bind+0xa>
      rebind = 1;
 8007360:	2301      	movs	r3, #1
 8007362:	e7fb      	b.n	800735c <udp_bind+0x6c>
    if (pcb->local_port == udp_port) {
 8007364:	f8be 1012 	ldrh.w	r1, [lr, #18]
 8007368:	4291      	cmp	r1, r2
 800736a:	d105      	bne.n	8007378 <udp_bind+0x88>
 800736c:	3d01      	subs	r5, #1
 800736e:	b2ad      	uxth	r5, r5
      if (++n > (UDP_LOCAL_PORT_RANGE_END - UDP_LOCAL_PORT_RANGE_START)) {
 8007370:	2d00      	cmp	r5, #0
 8007372:	d1cd      	bne.n	8007310 <udp_bind+0x20>
 8007374:	8022      	strh	r2, [r4, #0]
 8007376:	e7e2      	b.n	800733e <udp_bind+0x4e>
  for(pcb = udp_pcbs; pcb != NULL; pcb = pcb->next) {
 8007378:	f8de e00c 	ldr.w	lr, [lr, #12]
 800737c:	e7cf      	b.n	800731e <udp_bind+0x2e>
 800737e:	bf00      	nop
 8007380:	2000ac00 	.word	0x2000ac00
 8007384:	20000148 	.word	0x20000148

08007388 <udp_sendto_if>:
{
 8007388:	e92d 47ff 	stmdb	sp!, {r0, r1, r2, r3, r4, r5, r6, r7, r8, r9, sl, lr}
 800738c:	4692      	mov	sl, r2
  if (pcb->local_port == 0) {
 800738e:	8a42      	ldrh	r2, [r0, #18]
{
 8007390:	f8dd 9030 	ldr.w	r9, [sp, #48]	; 0x30
 8007394:	4605      	mov	r5, r0
 8007396:	460f      	mov	r7, r1
 8007398:	4698      	mov	r8, r3
  if (pcb->local_port == 0) {
 800739a:	2a00      	cmp	r2, #0
 800739c:	d045      	beq.n	800742a <udp_sendto_if+0xa2>
  if (pbuf_header(p, UDP_HLEN)) {
 800739e:	2108      	movs	r1, #8
 80073a0:	4638      	mov	r0, r7
 80073a2:	f7fd fb63 	bl	8004a6c <pbuf_header>
 80073a6:	2800      	cmp	r0, #0
 80073a8:	d149      	bne.n	800743e <udp_sendto_if+0xb6>
 80073aa:	463c      	mov	r4, r7
  udphdr->src = htons(pcb->local_port);
 80073ac:	8a68      	ldrh	r0, [r5, #18]
  udphdr = (struct udp_hdr *)q->payload;
 80073ae:	6866      	ldr	r6, [r4, #4]
  udphdr->src = htons(pcb->local_port);
 80073b0:	f7fc fa3c 	bl	800382c <lwip_htons>
 80073b4:	8030      	strh	r0, [r6, #0]
  udphdr->dest = htons(dst_port);
 80073b6:	4640      	mov	r0, r8
 80073b8:	f7fc fa38 	bl	800382c <lwip_htons>
  udphdr->chksum = 0x0000; 
 80073bc:	2300      	movs	r3, #0
 80073be:	71b3      	strb	r3, [r6, #6]
 80073c0:	71f3      	strb	r3, [r6, #7]
  if (ip_addr_isany(&pcb->local_ip)) {
 80073c2:	682b      	ldr	r3, [r5, #0]
  udphdr->dest = htons(dst_port);
 80073c4:	8070      	strh	r0, [r6, #2]
  if (ip_addr_isany(&pcb->local_ip)) {
 80073c6:	2b00      	cmp	r3, #0
 80073c8:	d147      	bne.n	800745a <udp_sendto_if+0xd2>
    src_ip = &(netif->ip_addr);
 80073ca:	f109 0804 	add.w	r8, r9, #4
    udphdr->len = htons(q->tot_len);
 80073ce:	8920      	ldrh	r0, [r4, #8]
 80073d0:	f7fc fa2c 	bl	800382c <lwip_htons>
 80073d4:	80b0      	strh	r0, [r6, #4]
    if ((pcb->flags & UDP_FLAGS_NOCHKSUM) == 0) {
 80073d6:	7c2b      	ldrb	r3, [r5, #16]
 80073d8:	07db      	lsls	r3, r3, #31
 80073da:	d40d      	bmi.n	80073f8 <udp_sendto_if+0x70>
        udpchksum = inet_chksum_pseudo(q, src_ip, dst_ip, IP_PROTO_UDP, q->tot_len);
 80073dc:	8923      	ldrh	r3, [r4, #8]
 80073de:	9300      	str	r3, [sp, #0]
 80073e0:	4652      	mov	r2, sl
 80073e2:	2311      	movs	r3, #17
 80073e4:	4641      	mov	r1, r8
 80073e6:	4620      	mov	r0, r4
 80073e8:	f7fc fb92 	bl	8003b10 <inet_chksum_pseudo>
      udphdr->chksum = udpchksum;
 80073ec:	f64f 73ff 	movw	r3, #65535	; 0xffff
 80073f0:	2800      	cmp	r0, #0
 80073f2:	bf08      	it	eq
 80073f4:	4618      	moveq	r0, r3
 80073f6:	80f0      	strh	r0, [r6, #6]
    err = ip_output_if(q, src_ip, dst_ip, pcb->ttl, pcb->tos, IP_PROTO_UDP, netif);
 80073f8:	2211      	movs	r2, #17
 80073fa:	9201      	str	r2, [sp, #4]
 80073fc:	7a6a      	ldrb	r2, [r5, #9]
 80073fe:	9200      	str	r2, [sp, #0]
 8007400:	7aab      	ldrb	r3, [r5, #10]
 8007402:	f8cd 9008 	str.w	r9, [sp, #8]
 8007406:	4652      	mov	r2, sl
 8007408:	4641      	mov	r1, r8
 800740a:	4620      	mov	r0, r4
 800740c:	f7fc fd0c 	bl	8003e28 <ip_output_if>
  if (q != p) {
 8007410:	42bc      	cmp	r4, r7
    err = ip_output_if(q, src_ip, dst_ip, pcb->ttl, pcb->tos, IP_PROTO_UDP, netif);
 8007412:	4606      	mov	r6, r0
  if (q != p) {
 8007414:	d002      	beq.n	800741c <udp_sendto_if+0x94>
    pbuf_free(q);
 8007416:	4620      	mov	r0, r4
 8007418:	f7fd fb53 	bl	8004ac2 <pbuf_free>
  UDP_STATS_INC(udp.xmit);
 800741c:	4a17      	ldr	r2, [pc, #92]	; (800747c <udp_sendto_if+0xf4>)
 800741e:	f8b2 3078 	ldrh.w	r3, [r2, #120]	; 0x78
 8007422:	3301      	adds	r3, #1
 8007424:	f8a2 3078 	strh.w	r3, [r2, #120]	; 0x78
  return err;
 8007428:	e005      	b.n	8007436 <udp_sendto_if+0xae>
    err = udp_bind(pcb, &pcb->local_ip, pcb->local_port);
 800742a:	4601      	mov	r1, r0
 800742c:	f7ff ff60 	bl	80072f0 <udp_bind>
    if (err != ERR_OK) {
 8007430:	4606      	mov	r6, r0
 8007432:	2800      	cmp	r0, #0
 8007434:	d0b3      	beq.n	800739e <udp_sendto_if+0x16>
}
 8007436:	4630      	mov	r0, r6
 8007438:	b004      	add	sp, #16
 800743a:	e8bd 87f0 	ldmia.w	sp!, {r4, r5, r6, r7, r8, r9, sl, pc}
    q = pbuf_alloc(PBUF_IP, UDP_HLEN, PBUF_RAM);
 800743e:	2200      	movs	r2, #0
 8007440:	2108      	movs	r1, #8
 8007442:	2001      	movs	r0, #1
 8007444:	f7fd fb64 	bl	8004b10 <pbuf_alloc>
    if (q == NULL) {
 8007448:	4604      	mov	r4, r0
 800744a:	b1a0      	cbz	r0, 8007476 <udp_sendto_if+0xee>
    if (p->tot_len != 0) {
 800744c:	893b      	ldrh	r3, [r7, #8]
 800744e:	2b00      	cmp	r3, #0
 8007450:	d0ac      	beq.n	80073ac <udp_sendto_if+0x24>
      pbuf_chain(q, p);
 8007452:	4639      	mov	r1, r7
 8007454:	f7fd fc29 	bl	8004caa <pbuf_chain>
 8007458:	e7a8      	b.n	80073ac <udp_sendto_if+0x24>
    if (!ip_addr_cmp(&(pcb->local_ip), &(netif->ip_addr))) {
 800745a:	f8d9 2004 	ldr.w	r2, [r9, #4]
 800745e:	4293      	cmp	r3, r2
 8007460:	d007      	beq.n	8007472 <udp_sendto_if+0xea>
      if (q != p) {
 8007462:	42bc      	cmp	r4, r7
 8007464:	d002      	beq.n	800746c <udp_sendto_if+0xe4>
        pbuf_free(q);
 8007466:	4620      	mov	r0, r4
 8007468:	f7fd fb2b 	bl	8004ac2 <pbuf_free>
      return ERR_VAL;
 800746c:	f06f 0605 	mvn.w	r6, #5
 8007470:	e7e1      	b.n	8007436 <udp_sendto_if+0xae>
  if (ip_addr_isany(&pcb->local_ip)) {
 8007472:	46a8      	mov	r8, r5
 8007474:	e7ab      	b.n	80073ce <udp_sendto_if+0x46>
      return ERR_MEM;
 8007476:	f04f 36ff 	mov.w	r6, #4294967295
 800747a:	e7dc      	b.n	8007436 <udp_sendto_if+0xae>
 800747c:	2000aaca 	.word	0x2000aaca

08007480 <udp_sendto>:
{
 8007480:	b5f7      	push	{r0, r1, r2, r4, r5, r6, r7, lr}
 8007482:	4605      	mov	r5, r0
  netif = ip_route(dst_ip);
 8007484:	4610      	mov	r0, r2
{
 8007486:	460e      	mov	r6, r1
 8007488:	4614      	mov	r4, r2
 800748a:	461f      	mov	r7, r3
  netif = ip_route(dst_ip);
 800748c:	f7fc fbac 	bl	8003be8 <ip_route>
  if (netif == NULL) {
 8007490:	b948      	cbnz	r0, 80074a6 <udp_sendto+0x26>
    UDP_STATS_INC(udp.rterr);
 8007492:	4a09      	ldr	r2, [pc, #36]	; (80074b8 <udp_sendto+0x38>)
 8007494:	f8b2 3086 	ldrh.w	r3, [r2, #134]	; 0x86
 8007498:	3301      	adds	r3, #1
 800749a:	f8a2 3086 	strh.w	r3, [r2, #134]	; 0x86
 800749e:	f06f 0003 	mvn.w	r0, #3
}
 80074a2:	b003      	add	sp, #12
 80074a4:	bdf0      	pop	{r4, r5, r6, r7, pc}
  return udp_sendto_if(pcb, p, dst_ip, dst_port, netif);
 80074a6:	9000      	str	r0, [sp, #0]
 80074a8:	463b      	mov	r3, r7
 80074aa:	4622      	mov	r2, r4
 80074ac:	4631      	mov	r1, r6
 80074ae:	4628      	mov	r0, r5
 80074b0:	f7ff ff6a 	bl	8007388 <udp_sendto_if>
 80074b4:	e7f5      	b.n	80074a2 <udp_sendto+0x22>
 80074b6:	bf00      	nop
 80074b8:	2000aaca 	.word	0x2000aaca

080074bc <udp_recv>:
 */
void
udp_recv(struct udp_pcb *pcb, udp_recv_fn recv, void *recv_arg)
{
  /* remember recv() callback and user data */
  pcb->recv = recv;
 80074bc:	6181      	str	r1, [r0, #24]
  pcb->recv_arg = recv_arg;
 80074be:	61c2      	str	r2, [r0, #28]
 80074c0:	4770      	bx	lr
	...

080074c4 <udp_remove>:
{
  struct udp_pcb *pcb2;

  snmp_delete_udpidx_tree(pcb);
  /* pcb to be removed is first in list? */
  if (udp_pcbs == pcb) {
 80074c4:	4a09      	ldr	r2, [pc, #36]	; (80074ec <udp_remove+0x28>)
 80074c6:	6813      	ldr	r3, [r2, #0]
 80074c8:	4283      	cmp	r3, r0
{
 80074ca:	4601      	mov	r1, r0
  if (udp_pcbs == pcb) {
 80074cc:	d10b      	bne.n	80074e6 <udp_remove+0x22>
    /* make list start at 2nd pcb */
    udp_pcbs = udp_pcbs->next;
 80074ce:	68c3      	ldr	r3, [r0, #12]
 80074d0:	6013      	str	r3, [r2, #0]
        /* remove pcb from list */
        pcb2->next = pcb->next;
      }
    }
  }
  memp_free(MEMP_UDP_PCB, pcb);
 80074d2:	2001      	movs	r0, #1
 80074d4:	f7fd ba26 	b.w	8004924 <memp_free>
      if (pcb2->next != NULL && pcb2->next == pcb) {
 80074d8:	68da      	ldr	r2, [r3, #12]
 80074da:	b11a      	cbz	r2, 80074e4 <udp_remove+0x20>
 80074dc:	4291      	cmp	r1, r2
        pcb2->next = pcb->next;
 80074de:	bf04      	itt	eq
 80074e0:	68ca      	ldreq	r2, [r1, #12]
 80074e2:	60da      	streq	r2, [r3, #12]
    for (pcb2 = udp_pcbs; pcb2 != NULL; pcb2 = pcb2->next) {
 80074e4:	68db      	ldr	r3, [r3, #12]
 80074e6:	2b00      	cmp	r3, #0
 80074e8:	d1f6      	bne.n	80074d8 <udp_remove+0x14>
 80074ea:	e7f2      	b.n	80074d2 <udp_remove+0xe>
 80074ec:	2000ac00 	.word	0x2000ac00

080074f0 <udp_new>:
 *
 * @see udp_remove()
 */
struct udp_pcb *
udp_new(void)
{
 80074f0:	b510      	push	{r4, lr}
  struct udp_pcb *pcb;
  pcb = (struct udp_pcb *)memp_malloc(MEMP_UDP_PCB);
 80074f2:	2001      	movs	r0, #1
 80074f4:	f7fd f9ec 	bl	80048d0 <memp_malloc>
  /* could allocate UDP PCB? */
  if (pcb != NULL) {
 80074f8:	4604      	mov	r4, r0
 80074fa:	b128      	cbz	r0, 8007508 <udp_new+0x18>
    /* UDP Lite: by initializing to all zeroes, chksum_len is set to 0
     * which means checksum is generated over the whole datagram per default
     * (recommended as default by RFC 3828). */
    /* initialize PCB to all zeroes */
    memset(pcb, 0, sizeof(struct udp_pcb));
 80074fc:	2220      	movs	r2, #32
 80074fe:	2100      	movs	r1, #0
 8007500:	f000 fbae 	bl	8007c60 <memset>
    pcb->ttl = UDP_TTL;
 8007504:	23ff      	movs	r3, #255	; 0xff
 8007506:	72a3      	strb	r3, [r4, #10]
  }
  return pcb;
}
 8007508:	4620      	mov	r0, r4
 800750a:	bd10      	pop	{r4, pc}

0800750c <etharp_free_entry>:
#endif /* ARP_QUEUEING */

/** Clean up ARP table entries */
static void
etharp_free_entry(int i)
{
 800750c:	b570      	push	{r4, r5, r6, lr}
  /* remove from SNMP ARP index tree */
  snmp_delete_arpidx_tree(arp_table[i].netif, &arp_table[i].ipaddr);
  /* and empty packet queue */
  if (arp_table[i].q != NULL) {
 800750e:	2614      	movs	r6, #20
 8007510:	4c07      	ldr	r4, [pc, #28]	; (8007530 <etharp_free_entry+0x24>)
 8007512:	4346      	muls	r6, r0
{
 8007514:	4605      	mov	r5, r0
  if (arp_table[i].q != NULL) {
 8007516:	59a0      	ldr	r0, [r4, r6]
 8007518:	b118      	cbz	r0, 8007522 <etharp_free_entry+0x16>
    /* remove all queued packets */
    LWIP_DEBUGF(ETHARP_DEBUG, ("etharp_free_entry: freeing entry %"U16_F", packet queue %p.\n", (u16_t)i, (void *)(arp_table[i].q)));
    free_etharp_q(arp_table[i].q);
 800751a:	f7fd fad2 	bl	8004ac2 <pbuf_free>
    arp_table[i].q = NULL;
 800751e:	2300      	movs	r3, #0
 8007520:	51a3      	str	r3, [r4, r6]
  }
  /* recycle entry for re-use */
  arp_table[i].state = ETHARP_STATE_EMPTY;
 8007522:	2314      	movs	r3, #20
 8007524:	fb03 4405 	mla	r4, r3, r5, r4
 8007528:	2300      	movs	r3, #0
 800752a:	74a3      	strb	r3, [r4, #18]
 800752c:	bd70      	pop	{r4, r5, r6, pc}
 800752e:	bf00      	nop
 8007530:	200071d0 	.word	0x200071d0

08007534 <etharp_find_entry>:
 * @return The ARP entry index that matched or is created, ERR_MEM if no
 * entry is found or could be recycled.
 */
static s8_t
etharp_find_entry(ip_addr_t *ipaddr, u8_t flags)
{
 8007534:	e92d 4ff7 	stmdb	sp!, {r0, r1, r2, r4, r5, r6, r7, r8, r9, sl, fp, lr}
 8007538:	4b33      	ldr	r3, [pc, #204]	; (8007608 <etharp_find_entry+0xd4>)
 800753a:	9101      	str	r1, [sp, #4]
  s8_t old_pending = ARP_TABLE_SIZE, old_stable = ARP_TABLE_SIZE;
  s8_t empty = ARP_TABLE_SIZE;
  u8_t i = 0, age_pending = 0, age_stable = 0;
  /* oldest entry with packets on queue */
  s8_t old_queue = ARP_TABLE_SIZE;
 800753c:	220a      	movs	r2, #10
{
 800753e:	4605      	mov	r5, r0
 8007540:	2000      	movs	r0, #0
  /* its age */
  u8_t age_queue = 0;
 8007542:	4681      	mov	r9, r0
  u8_t i = 0, age_pending = 0, age_stable = 0;
 8007544:	4684      	mov	ip, r0
 8007546:	4683      	mov	fp, r0
  s8_t empty = ARP_TABLE_SIZE;
 8007548:	4614      	mov	r4, r2
  s8_t old_pending = ARP_TABLE_SIZE, old_stable = ARP_TABLE_SIZE;
 800754a:	4696      	mov	lr, r2
 800754c:	4616      	mov	r6, r2
 800754e:	4698      	mov	r8, r3
   */

  for (i = 0; i < ARP_TABLE_SIZE; ++i) {
    u8_t state = arp_table[i].state;
    /* no empty entry found yet and now we do find one? */
    if ((empty == ARP_TABLE_SIZE) && (state == ETHARP_STATE_EMPTY)) {
 8007550:	2c0a      	cmp	r4, #10
    u8_t state = arp_table[i].state;
 8007552:	7c9f      	ldrb	r7, [r3, #18]
    if ((empty == ARP_TABLE_SIZE) && (state == ETHARP_STATE_EMPTY)) {
 8007554:	d110      	bne.n	8007578 <etharp_find_entry+0x44>
 8007556:	b98f      	cbnz	r7, 800757c <etharp_find_entry+0x48>
      LWIP_DEBUGF(ETHARP_DEBUG, ("etharp_find_entry: found empty entry %"U16_F"\n", (u16_t)i));
      /* remember first empty entry */
      empty = i;
 8007558:	b244      	sxtb	r4, r0
 800755a:	3001      	adds	r0, #1
  for (i = 0; i < ARP_TABLE_SIZE; ++i) {
 800755c:	280a      	cmp	r0, #10
 800755e:	f103 0314 	add.w	r3, r3, #20
 8007562:	d1f5      	bne.n	8007550 <etharp_find_entry+0x1c>
    }
  }
  /* { we have no match } => try to create a new entry */
   
  /* don't create new entry, only search? */
  if (((flags & ETHARP_FLAG_FIND_ONLY) != 0) ||
 8007564:	9b01      	ldr	r3, [sp, #4]
 8007566:	0799      	lsls	r1, r3, #30
 8007568:	d403      	bmi.n	8007572 <etharp_find_entry+0x3e>
 800756a:	2c0a      	cmp	r4, #10
 800756c:	d11f      	bne.n	80075ae <etharp_find_entry+0x7a>
      /* or no empty entry found and not allowed to recycle? */
      ((empty == ARP_TABLE_SIZE) && ((flags & ETHARP_FLAG_TRY_HARD) == 0))) {
 800756e:	07db      	lsls	r3, r3, #31
 8007570:	d42c      	bmi.n	80075cc <etharp_find_entry+0x98>
    LWIP_DEBUGF(ETHARP_DEBUG | LWIP_DBG_TRACE, ("etharp_find_entry: no empty entry found and not allowed to recycle\n"));
    return (s8_t)ERR_MEM;
 8007572:	f04f 30ff 	mov.w	r0, #4294967295
 8007576:	e009      	b.n	800758c <etharp_find_entry+0x58>
    } else if (state != ETHARP_STATE_EMPTY) {
 8007578:	2f00      	cmp	r7, #0
 800757a:	d0ee      	beq.n	800755a <etharp_find_entry+0x26>
      if (ipaddr && ip_addr_cmp(ipaddr, &arp_table[i].ipaddr)) {
 800757c:	2d00      	cmp	r5, #0
 800757e:	d036      	beq.n	80075ee <etharp_find_entry+0xba>
 8007580:	6829      	ldr	r1, [r5, #0]
 8007582:	468a      	mov	sl, r1
 8007584:	6859      	ldr	r1, [r3, #4]
 8007586:	458a      	cmp	sl, r1
 8007588:	d131      	bne.n	80075ee <etharp_find_entry+0xba>
        return i;
 800758a:	b240      	sxtb	r0, r0
    /* set IP address */
    ip_addr_copy(arp_table[i].ipaddr, *ipaddr);
  }
  arp_table[i].ctime = 0;
  return (err_t)i;
}
 800758c:	b003      	add	sp, #12
 800758e:	e8bd 8ff0 	ldmia.w	sp!, {r4, r5, r6, r7, r8, r9, sl, fp, pc}
          if (arp_table[i].ctime >= age_pending) {
 8007592:	45da      	cmp	sl, fp
 8007594:	d3e1      	bcc.n	800755a <etharp_find_entry+0x26>
            old_pending = i;
 8007596:	b246      	sxtb	r6, r0
 8007598:	46d3      	mov	fp, sl
 800759a:	e7de      	b.n	800755a <etharp_find_entry+0x26>
        if (state < ETHARP_STATE_STATIC)
 800759c:	2f03      	cmp	r7, #3
 800759e:	d8dc      	bhi.n	800755a <etharp_find_entry+0x26>
          if (arp_table[i].ctime >= age_stable) {
 80075a0:	7cdf      	ldrb	r7, [r3, #19]
 80075a2:	4567      	cmp	r7, ip
            old_stable = i;
 80075a4:	bf24      	itt	cs
 80075a6:	fa4f fe80 	sxtbcs.w	lr, r0
 80075aa:	46bc      	movcs	ip, r7
 80075ac:	e7d5      	b.n	800755a <etharp_find_entry+0x26>
    i = empty;
 80075ae:	b2e4      	uxtb	r4, r4
  if (ipaddr != NULL) {
 80075b0:	b125      	cbz	r5, 80075bc <etharp_find_entry+0x88>
    ip_addr_copy(arp_table[i].ipaddr, *ipaddr);
 80075b2:	2314      	movs	r3, #20
 80075b4:	fb03 8304 	mla	r3, r3, r4, r8
 80075b8:	682a      	ldr	r2, [r5, #0]
 80075ba:	605a      	str	r2, [r3, #4]
  arp_table[i].ctime = 0;
 80075bc:	2314      	movs	r3, #20
 80075be:	fb03 8804 	mla	r8, r3, r4, r8
 80075c2:	2300      	movs	r3, #0
 80075c4:	f888 3013 	strb.w	r3, [r8, #19]
  return (err_t)i;
 80075c8:	b260      	sxtb	r0, r4
 80075ca:	e7df      	b.n	800758c <etharp_find_entry+0x58>
    if (old_stable < ARP_TABLE_SIZE) {
 80075cc:	f1be 0f0a 	cmp.w	lr, #10
 80075d0:	d005      	beq.n	80075de <etharp_find_entry+0xaa>
      i = old_stable;
 80075d2:	fa5f f48e 	uxtb.w	r4, lr
    etharp_free_entry(i);
 80075d6:	4620      	mov	r0, r4
 80075d8:	f7ff ff98 	bl	800750c <etharp_free_entry>
 80075dc:	e7e8      	b.n	80075b0 <etharp_find_entry+0x7c>
    } else if (old_pending < ARP_TABLE_SIZE) {
 80075de:	2e0a      	cmp	r6, #10
 80075e0:	d001      	beq.n	80075e6 <etharp_find_entry+0xb2>
      i = old_pending;
 80075e2:	b2f4      	uxtb	r4, r6
 80075e4:	e7f7      	b.n	80075d6 <etharp_find_entry+0xa2>
    } else if (old_queue < ARP_TABLE_SIZE) {
 80075e6:	2a0a      	cmp	r2, #10
 80075e8:	d0c3      	beq.n	8007572 <etharp_find_entry+0x3e>
      i = old_queue;
 80075ea:	b2d4      	uxtb	r4, r2
 80075ec:	e7f3      	b.n	80075d6 <etharp_find_entry+0xa2>
      if (state == ETHARP_STATE_PENDING) {
 80075ee:	2f01      	cmp	r7, #1
 80075f0:	d1d4      	bne.n	800759c <etharp_find_entry+0x68>
        if (arp_table[i].q != NULL) {
 80075f2:	681f      	ldr	r7, [r3, #0]
 80075f4:	f893 a013 	ldrb.w	sl, [r3, #19]
 80075f8:	2f00      	cmp	r7, #0
 80075fa:	d0ca      	beq.n	8007592 <etharp_find_entry+0x5e>
          if (arp_table[i].ctime >= age_queue) {
 80075fc:	45ca      	cmp	sl, r9
 80075fe:	d3ac      	bcc.n	800755a <etharp_find_entry+0x26>
            old_queue = i;
 8007600:	b242      	sxtb	r2, r0
 8007602:	46d1      	mov	r9, sl
 8007604:	e7a9      	b.n	800755a <etharp_find_entry+0x26>
 8007606:	bf00      	nop
 8007608:	200071d0 	.word	0x200071d0

0800760c <etharp_send_ip>:
 * @params dst the destination MAC address to be copied into the ethernet header
 * @return ERR_OK if the packet was sent, any other err_t on failure
 */
static err_t
etharp_send_ip(struct netif *netif, struct pbuf *p, struct eth_addr *src, struct eth_addr *dst)
{
 800760c:	b430      	push	{r4, r5}
  struct eth_hdr *ethhdr = (struct eth_hdr *)p->payload;
 800760e:	684c      	ldr	r4, [r1, #4]

  LWIP_ASSERT("netif->hwaddr_len must be the same as ETHARP_HWADDR_LEN for etharp!",
              (netif->hwaddr_len == ETHARP_HWADDR_LEN));
  ETHADDR32_COPY(&ethhdr->dest, dst);
 8007610:	681d      	ldr	r5, [r3, #0]
 8007612:	6025      	str	r5, [r4, #0]
 8007614:	889b      	ldrh	r3, [r3, #4]
 8007616:	80a3      	strh	r3, [r4, #4]
  ETHADDR16_COPY(&ethhdr->src, src);
 8007618:	6813      	ldr	r3, [r2, #0]
 800761a:	f8c4 3006 	str.w	r3, [r4, #6]
 800761e:	8893      	ldrh	r3, [r2, #4]
 8007620:	8163      	strh	r3, [r4, #10]
  ethhdr->type = PP_HTONS(ETHTYPE_IP);
 8007622:	2308      	movs	r3, #8
 8007624:	7323      	strb	r3, [r4, #12]
 8007626:	2300      	movs	r3, #0
 8007628:	7363      	strb	r3, [r4, #13]
  LWIP_DEBUGF(ETHARP_DEBUG | LWIP_DBG_TRACE, ("etharp_send_ip: sending packet %p\n", (void *)p));
  /* send the packet */
  return netif->linkoutput(netif, p);
 800762a:	6983      	ldr	r3, [r0, #24]
}
 800762c:	bc30      	pop	{r4, r5}
  return netif->linkoutput(netif, p);
 800762e:	4718      	bx	r3

08007630 <etharp_update_arp_entry>:
 *
 * @see pbuf_free()
 */
static err_t
etharp_update_arp_entry(struct netif *netif, ip_addr_t *ipaddr, struct eth_addr *ethaddr, u8_t flags)
{
 8007630:	b5f8      	push	{r3, r4, r5, r6, r7, lr}
 8007632:	4605      	mov	r5, r0
 8007634:	4616      	mov	r6, r2
 8007636:	461f      	mov	r7, r3
  LWIP_DEBUGF(ETHARP_DEBUG | LWIP_DBG_TRACE, ("etharp_update_arp_entry: %"U16_F".%"U16_F".%"U16_F".%"U16_F" - %02"X16_F":%02"X16_F":%02"X16_F":%02"X16_F":%02"X16_F":%02"X16_F"\n",
    ip4_addr1_16(ipaddr), ip4_addr2_16(ipaddr), ip4_addr3_16(ipaddr), ip4_addr4_16(ipaddr),
    ethaddr->addr[0], ethaddr->addr[1], ethaddr->addr[2],
    ethaddr->addr[3], ethaddr->addr[4], ethaddr->addr[5]));
  /* non-unicast address? */
  if (ip_addr_isany(ipaddr) ||
 8007638:	460c      	mov	r4, r1
 800763a:	b911      	cbnz	r1, 8007642 <etharp_update_arp_entry+0x12>
      ip_addr_isbroadcast(ipaddr, netif) ||
      ip_addr_ismulticast(ipaddr)) {
    LWIP_DEBUGF(ETHARP_DEBUG | LWIP_DBG_TRACE, ("etharp_update_arp_entry: will not add non-unicast IP address to ARP cache\n"));
    return ERR_ARG;
 800763c:	f06f 000d 	mvn.w	r0, #13
 8007640:	bdf8      	pop	{r3, r4, r5, r6, r7, pc}
  if (ip_addr_isany(ipaddr) ||
 8007642:	6808      	ldr	r0, [r1, #0]
 8007644:	2800      	cmp	r0, #0
 8007646:	d0f9      	beq.n	800763c <etharp_update_arp_entry+0xc>
      ip_addr_isbroadcast(ipaddr, netif) ||
 8007648:	4629      	mov	r1, r5
 800764a:	f7fc fc9b 	bl	8003f84 <ip4_addr_isbroadcast>
  if (ip_addr_isany(ipaddr) ||
 800764e:	2800      	cmp	r0, #0
 8007650:	d1f4      	bne.n	800763c <etharp_update_arp_entry+0xc>
      ip_addr_ismulticast(ipaddr)) {
 8007652:	6823      	ldr	r3, [r4, #0]
 8007654:	f003 03f0 	and.w	r3, r3, #240	; 0xf0
      ip_addr_isbroadcast(ipaddr, netif) ||
 8007658:	2be0      	cmp	r3, #224	; 0xe0
 800765a:	d0ef      	beq.n	800763c <etharp_update_arp_entry+0xc>
  }
  /* find or create ARP entry */
  i = etharp_find_entry(ipaddr, flags);
 800765c:	4639      	mov	r1, r7
 800765e:	4620      	mov	r0, r4
 8007660:	f7ff ff68 	bl	8007534 <etharp_find_entry>
  /* bail out if no entry could be found */
  if (i < 0) {
 8007664:	2800      	cmp	r0, #0
 8007666:	db28      	blt.n	80076ba <etharp_update_arp_entry+0x8a>
 8007668:	4b14      	ldr	r3, [pc, #80]	; (80076bc <etharp_update_arp_entry+0x8c>)
 800766a:	2114      	movs	r1, #20
    return (err_t)i;
  }

#if ETHARP_SUPPORT_STATIC_ENTRIES
  if (flags & ETHARP_FLAG_STATIC_ENTRY) {
 800766c:	f017 0f04 	tst.w	r7, #4
    /* record static type */
    arp_table[i].state = ETHARP_STATE_STATIC;
 8007670:	fb01 3100 	mla	r1, r1, r0, r3
 8007674:	bf14      	ite	ne
 8007676:	2204      	movne	r2, #4
  } else
#endif /* ETHARP_SUPPORT_STATIC_ENTRIES */
  {
    /* mark it stable */
    arp_table[i].state = ETHARP_STATE_STABLE;
 8007678:	2202      	moveq	r2, #2
 800767a:	748a      	strb	r2, [r1, #18]
  }

  /* record network interface */
  arp_table[i].netif = netif;
 800767c:	2114      	movs	r1, #20
 800767e:	fb01 f200 	mul.w	r2, r1, r0
 8007682:	189c      	adds	r4, r3, r2
  /* insert in SNMP ARP index tree */
  snmp_insert_arpidx_tree(netif, &arp_table[i].ipaddr);

  LWIP_DEBUGF(ETHARP_DEBUG | LWIP_DBG_TRACE, ("etharp_update_arp_entry: updating stable entry %"S16_F"\n", (s16_t)i));
  /* update address */
  ETHADDR32_COPY(&arp_table[i].ethaddr, ethaddr);
 8007684:	270c      	movs	r7, #12
  arp_table[i].netif = netif;
 8007686:	60a5      	str	r5, [r4, #8]
  ETHADDR32_COPY(&arp_table[i].ethaddr, ethaddr);
 8007688:	fb11 7100 	smlabb	r1, r1, r0, r7
 800768c:	6830      	ldr	r0, [r6, #0]
 800768e:	5058      	str	r0, [r3, r1]
 8007690:	185f      	adds	r7, r3, r1
 8007692:	88b1      	ldrh	r1, [r6, #4]
 8007694:	80b9      	strh	r1, [r7, #4]
  /* reset time stamp */
  arp_table[i].ctime = 0;
 8007696:	2700      	movs	r7, #0
 8007698:	74e7      	strb	r7, [r4, #19]
    /* get the packet pointer */
    p = q->p;
    /* now queue entry can be freed */
    memp_free(MEMP_ARP_QUEUE, q);
#else /* ARP_QUEUEING */
  if (arp_table[i].q != NULL) {
 800769a:	589c      	ldr	r4, [r3, r2]
 800769c:	b164      	cbz	r4, 80076b8 <etharp_update_arp_entry+0x88>
    struct pbuf *p = arp_table[i].q;
    arp_table[i].q = NULL;
 800769e:	509f      	str	r7, [r3, r2]
#endif /* ARP_QUEUEING */
    /* send the queued IP packet */
    etharp_send_ip(netif, p, (struct eth_addr*)(netif->hwaddr), ethaddr);
 80076a0:	4621      	mov	r1, r4
 80076a2:	4633      	mov	r3, r6
 80076a4:	f105 0223 	add.w	r2, r5, #35	; 0x23
 80076a8:	4628      	mov	r0, r5
 80076aa:	f7ff ffaf 	bl	800760c <etharp_send_ip>
    /* free the queued IP packet */
    pbuf_free(p);
 80076ae:	4620      	mov	r0, r4
 80076b0:	f7fd fa07 	bl	8004ac2 <pbuf_free>
  }
  return ERR_OK;
 80076b4:	4638      	mov	r0, r7
 80076b6:	bdf8      	pop	{r3, r4, r5, r6, r7, pc}
 80076b8:	4620      	mov	r0, r4
}
 80076ba:	bdf8      	pop	{r3, r4, r5, r6, r7, pc}
 80076bc:	200071d0 	.word	0x200071d0

080076c0 <etharp_tmr>:
{
 80076c0:	b570      	push	{r4, r5, r6, lr}
 80076c2:	4c0f      	ldr	r4, [pc, #60]	; (8007700 <etharp_tmr+0x40>)
 80076c4:	2500      	movs	r5, #0
        arp_table[i].state = ETHARP_STATE_STABLE;
 80076c6:	2602      	movs	r6, #2
    u8_t state = arp_table[i].state;
 80076c8:	7ca2      	ldrb	r2, [r4, #18]
    if (state != ETHARP_STATE_EMPTY
 80076ca:	f012 0ffb 	tst.w	r2, #251	; 0xfb
 80076ce:	d00c      	beq.n	80076ea <etharp_tmr+0x2a>
      arp_table[i].ctime++;
 80076d0:	7ce3      	ldrb	r3, [r4, #19]
 80076d2:	3301      	adds	r3, #1
 80076d4:	b2db      	uxtb	r3, r3
      if ((arp_table[i].ctime >= ARP_MAXAGE) ||
 80076d6:	2bef      	cmp	r3, #239	; 0xef
      arp_table[i].ctime++;
 80076d8:	74e3      	strb	r3, [r4, #19]
      if ((arp_table[i].ctime >= ARP_MAXAGE) ||
 80076da:	d803      	bhi.n	80076e4 <etharp_tmr+0x24>
 80076dc:	2a01      	cmp	r2, #1
 80076de:	d10a      	bne.n	80076f6 <etharp_tmr+0x36>
          ((arp_table[i].state == ETHARP_STATE_PENDING)  &&
 80076e0:	2b01      	cmp	r3, #1
 80076e2:	d902      	bls.n	80076ea <etharp_tmr+0x2a>
        etharp_free_entry(i);
 80076e4:	4628      	mov	r0, r5
 80076e6:	f7ff ff11 	bl	800750c <etharp_free_entry>
 80076ea:	3501      	adds	r5, #1
  for (i = 0; i < ARP_TABLE_SIZE; ++i) {
 80076ec:	2d0a      	cmp	r5, #10
 80076ee:	f104 0414 	add.w	r4, r4, #20
 80076f2:	d1e9      	bne.n	80076c8 <etharp_tmr+0x8>
}
 80076f4:	bd70      	pop	{r4, r5, r6, pc}
      else if (arp_table[i].state == ETHARP_STATE_STABLE_REREQUESTING) {
 80076f6:	2a03      	cmp	r2, #3
        arp_table[i].state = ETHARP_STATE_STABLE;
 80076f8:	bf08      	it	eq
 80076fa:	74a6      	strbeq	r6, [r4, #18]
 80076fc:	e7f5      	b.n	80076ea <etharp_tmr+0x2a>
 80076fe:	bf00      	nop
 8007700:	200071d0 	.word	0x200071d0

08007704 <etharp_request>:
 *         ERR_MEM if the ARP packet couldn't be allocated
 *         any other err_t on failure
 */
err_t
etharp_request(struct netif *netif, ip_addr_t *ipaddr)
{
 8007704:	e92d 43f8 	stmdb	sp!, {r3, r4, r5, r6, r7, r8, r9, lr}
  p = pbuf_alloc(PBUF_RAW, SIZEOF_ETHARP_PACKET, PBUF_RAM);
 8007708:	2200      	movs	r2, #0
{
 800770a:	4607      	mov	r7, r0
 800770c:	4689      	mov	r9, r1
  LWIP_DEBUGF(ETHARP_DEBUG | LWIP_DBG_TRACE, ("etharp_request: sending ARP request.\n"));
  return etharp_raw(netif, (struct eth_addr *)netif->hwaddr, &ethbroadcast,
 800770e:	f100 0823 	add.w	r8, r0, #35	; 0x23
  p = pbuf_alloc(PBUF_RAW, SIZEOF_ETHARP_PACKET, PBUF_RAM);
 8007712:	212a      	movs	r1, #42	; 0x2a
 8007714:	2003      	movs	r0, #3
 8007716:	f7fd f9fb 	bl	8004b10 <pbuf_alloc>
 800771a:	4e23      	ldr	r6, [pc, #140]	; (80077a8 <etharp_request+0xa4>)
  if (p == NULL) {
 800771c:	4605      	mov	r5, r0
 800771e:	b938      	cbnz	r0, 8007730 <etharp_request+0x2c>
    ETHARP_STATS_INC(etharp.memerr);
 8007720:	8cb3      	ldrh	r3, [r6, #36]	; 0x24
 8007722:	3301      	adds	r3, #1
 8007724:	84b3      	strh	r3, [r6, #36]	; 0x24
    return ERR_MEM;
 8007726:	f04f 34ff 	mov.w	r4, #4294967295
                    (struct eth_addr *)netif->hwaddr, &netif->ip_addr, &ethzero,
                    ipaddr, ARP_REQUEST);
}
 800772a:	4620      	mov	r0, r4
 800772c:	e8bd 83f8 	ldmia.w	sp!, {r3, r4, r5, r6, r7, r8, r9, pc}
  ethhdr = (struct eth_hdr *)p->payload;
 8007730:	6844      	ldr	r4, [r0, #4]
  hdr->opcode = htons(opcode);
 8007732:	2001      	movs	r0, #1
 8007734:	f7fc f87a 	bl	800382c <lwip_htons>
 8007738:	82a0      	strh	r0, [r4, #20]
  ETHADDR16_COPY(&hdr->shwaddr, hwsrc_addr);
 800773a:	f8d8 3000 	ldr.w	r3, [r8]
 800773e:	f8c4 3016 	str.w	r3, [r4, #22]
 8007742:	f8b8 3004 	ldrh.w	r3, [r8, #4]
 8007746:	8363      	strh	r3, [r4, #26]
  ETHADDR16_COPY(&hdr->dhwaddr, hwdst_addr);
 8007748:	4b18      	ldr	r3, [pc, #96]	; (80077ac <etharp_request+0xa8>)
 800774a:	681a      	ldr	r2, [r3, #0]
 800774c:	889b      	ldrh	r3, [r3, #4]
 800774e:	84a3      	strh	r3, [r4, #36]	; 0x24
  ETHADDR16_COPY(&ethhdr->dest, ethdst_addr);
 8007750:	4b17      	ldr	r3, [pc, #92]	; (80077b0 <etharp_request+0xac>)
  ETHADDR16_COPY(&hdr->dhwaddr, hwdst_addr);
 8007752:	6222      	str	r2, [r4, #32]
  ETHADDR16_COPY(&ethhdr->dest, ethdst_addr);
 8007754:	681a      	ldr	r2, [r3, #0]
 8007756:	889b      	ldrh	r3, [r3, #4]
 8007758:	6022      	str	r2, [r4, #0]
 800775a:	80a3      	strh	r3, [r4, #4]
  ETHADDR16_COPY(&ethhdr->src, ethsrc_addr);
 800775c:	f8d8 3000 	ldr.w	r3, [r8]
 8007760:	f8c4 3006 	str.w	r3, [r4, #6]
 8007764:	f8b8 3004 	ldrh.w	r3, [r8, #4]
 8007768:	8163      	strh	r3, [r4, #10]
  IPADDR2_COPY(&hdr->sipaddr, ipsrc_addr);
 800776a:	687b      	ldr	r3, [r7, #4]
 800776c:	61e3      	str	r3, [r4, #28]
  IPADDR2_COPY(&hdr->dipaddr, ipdst_addr);
 800776e:	f8d9 3000 	ldr.w	r3, [r9]
 8007772:	f8c4 3026 	str.w	r3, [r4, #38]	; 0x26
  hdr->hwtype = PP_HTONS(HWTYPE_ETHERNET);
 8007776:	2300      	movs	r3, #0
 8007778:	73a3      	strb	r3, [r4, #14]
  hdr->proto = PP_HTONS(ETHTYPE_IP);
 800777a:	7463      	strb	r3, [r4, #17]
  hdr->hwtype = PP_HTONS(HWTYPE_ETHERNET);
 800777c:	2201      	movs	r2, #1
  hdr->hwlen = ETHARP_HWADDR_LEN;
 800777e:	2306      	movs	r3, #6
  hdr->protolen = sizeof(ip_addr_t);
 8007780:	2104      	movs	r1, #4
 8007782:	74e1      	strb	r1, [r4, #19]
  hdr->hwtype = PP_HTONS(HWTYPE_ETHERNET);
 8007784:	73e2      	strb	r2, [r4, #15]
  hdr->hwlen = ETHARP_HWADDR_LEN;
 8007786:	74a3      	strb	r3, [r4, #18]
  hdr->proto = PP_HTONS(ETHTYPE_IP);
 8007788:	2208      	movs	r2, #8
 800778a:	7422      	strb	r2, [r4, #16]
  ethhdr->type = PP_HTONS(ETHTYPE_ARP);
 800778c:	7322      	strb	r2, [r4, #12]
 800778e:	7363      	strb	r3, [r4, #13]
  result = netif->linkoutput(netif, p);
 8007790:	4629      	mov	r1, r5
 8007792:	69bb      	ldr	r3, [r7, #24]
 8007794:	4638      	mov	r0, r7
 8007796:	4798      	blx	r3
  ETHARP_STATS_INC(etharp.xmit);
 8007798:	8b33      	ldrh	r3, [r6, #24]
  result = netif->linkoutput(netif, p);
 800779a:	4604      	mov	r4, r0
  ETHARP_STATS_INC(etharp.xmit);
 800779c:	3301      	adds	r3, #1
  pbuf_free(p);
 800779e:	4628      	mov	r0, r5
  ETHARP_STATS_INC(etharp.xmit);
 80077a0:	8333      	strh	r3, [r6, #24]
  pbuf_free(p);
 80077a2:	f7fd f98e 	bl	8004ac2 <pbuf_free>
 80077a6:	e7c0      	b.n	800772a <etharp_request+0x26>
 80077a8:	2000aaca 	.word	0x2000aaca
 80077ac:	08007dae 	.word	0x08007dae
 80077b0:	08007da8 	.word	0x08007da8

080077b4 <etharp_output_to_arp_index>:
{
 80077b4:	e92d 41f0 	stmdb	sp!, {r4, r5, r6, r7, r8, lr}
  LWIP_ASSERT("arp_table[arp_idx].state >= ETHARP_STATE_STABLE",
 80077b8:	4d11      	ldr	r5, [pc, #68]	; (8007800 <etharp_output_to_arp_index+0x4c>)
{
 80077ba:	460f      	mov	r7, r1
  LWIP_ASSERT("arp_table[arp_idx].state >= ETHARP_STATE_STABLE",
 80077bc:	2114      	movs	r1, #20
 80077be:	fb01 5802 	mla	r8, r1, r2, r5
{
 80077c2:	4614      	mov	r4, r2
  if ((arp_table[arp_idx].state == ETHARP_STATE_STABLE) && 
 80077c4:	f898 2012 	ldrb.w	r2, [r8, #18]
 80077c8:	2a02      	cmp	r2, #2
{
 80077ca:	4606      	mov	r6, r0
  if ((arp_table[arp_idx].state == ETHARP_STATE_STABLE) && 
 80077cc:	d10b      	bne.n	80077e6 <etharp_output_to_arp_index+0x32>
 80077ce:	f898 3013 	ldrb.w	r3, [r8, #19]
 80077d2:	2be3      	cmp	r3, #227	; 0xe3
 80077d4:	d907      	bls.n	80077e6 <etharp_output_to_arp_index+0x32>
    if (etharp_request(netif, &arp_table[arp_idx].ipaddr) == ERR_OK) {
 80077d6:	4641      	mov	r1, r8
 80077d8:	3104      	adds	r1, #4
 80077da:	f7ff ff93 	bl	8007704 <etharp_request>
 80077de:	b910      	cbnz	r0, 80077e6 <etharp_output_to_arp_index+0x32>
      arp_table[arp_idx].state = ETHARP_STATE_STABLE_REREQUESTING;
 80077e0:	2303      	movs	r3, #3
 80077e2:	f888 3012 	strb.w	r3, [r8, #18]
  return etharp_send_ip(netif, q, (struct eth_addr*)(netif->hwaddr),
 80077e6:	2314      	movs	r3, #20
 80077e8:	fb03 5304 	mla	r3, r3, r4, r5
 80077ec:	f106 0223 	add.w	r2, r6, #35	; 0x23
 80077f0:	4639      	mov	r1, r7
 80077f2:	4630      	mov	r0, r6
 80077f4:	330c      	adds	r3, #12
}
 80077f6:	e8bd 41f0 	ldmia.w	sp!, {r4, r5, r6, r7, r8, lr}
  return etharp_send_ip(netif, q, (struct eth_addr*)(netif->hwaddr),
 80077fa:	f7ff bf07 	b.w	800760c <etharp_send_ip>
 80077fe:	bf00      	nop
 8007800:	200071d0 	.word	0x200071d0

08007804 <etharp_query>:
{
 8007804:	e92d 41f0 	stmdb	sp!, {r4, r5, r6, r7, r8, lr}
 8007808:	4688      	mov	r8, r1
 800780a:	4607      	mov	r7, r0
  if (ip_addr_isbroadcast(ipaddr, netif) ||
 800780c:	4601      	mov	r1, r0
 800780e:	f8d8 0000 	ldr.w	r0, [r8]
{
 8007812:	4615      	mov	r5, r2
  if (ip_addr_isbroadcast(ipaddr, netif) ||
 8007814:	f7fc fbb6 	bl	8003f84 <ip4_addr_isbroadcast>
 8007818:	2800      	cmp	r0, #0
 800781a:	d15b      	bne.n	80078d4 <etharp_query+0xd0>
      ip_addr_ismulticast(ipaddr) ||
 800781c:	f8d8 3000 	ldr.w	r3, [r8]
 8007820:	f003 02f0 	and.w	r2, r3, #240	; 0xf0
  if (ip_addr_isbroadcast(ipaddr, netif) ||
 8007824:	2ae0      	cmp	r2, #224	; 0xe0
 8007826:	d055      	beq.n	80078d4 <etharp_query+0xd0>
      ip_addr_isany(ipaddr)) {
 8007828:	2b00      	cmp	r3, #0
 800782a:	d053      	beq.n	80078d4 <etharp_query+0xd0>
  i = etharp_find_entry(ipaddr, ETHARP_FLAG_TRY_HARD);
 800782c:	2101      	movs	r1, #1
 800782e:	4640      	mov	r0, r8
 8007830:	f7ff fe80 	bl	8007534 <etharp_find_entry>
  if (i < 0) {
 8007834:	1e04      	subs	r4, r0, #0
 8007836:	da07      	bge.n	8007848 <etharp_query+0x44>
    if (q) {
 8007838:	b11d      	cbz	r5, 8007842 <etharp_query+0x3e>
      ETHARP_STATS_INC(etharp.memerr);
 800783a:	4a34      	ldr	r2, [pc, #208]	; (800790c <etharp_query+0x108>)
 800783c:	8c93      	ldrh	r3, [r2, #36]	; 0x24
 800783e:	3301      	adds	r3, #1
 8007840:	8493      	strh	r3, [r2, #36]	; 0x24
}
 8007842:	4620      	mov	r0, r4
 8007844:	e8bd 81f0 	ldmia.w	sp!, {r4, r5, r6, r7, r8, pc}
  if (arp_table[i].state == ETHARP_STATE_EMPTY) {
 8007848:	4e31      	ldr	r6, [pc, #196]	; (8007910 <etharp_query+0x10c>)
 800784a:	2314      	movs	r3, #20
 800784c:	fb03 6204 	mla	r2, r3, r4, r6
 8007850:	7c91      	ldrb	r1, [r2, #18]
 8007852:	b909      	cbnz	r1, 8007858 <etharp_query+0x54>
    arp_table[i].state = ETHARP_STATE_PENDING;
 8007854:	2101      	movs	r1, #1
 8007856:	7491      	strb	r1, [r2, #18]
  LWIP_ASSERT("arp_table[i].state == PENDING or STABLE",
 8007858:	fb03 6304 	mla	r3, r3, r4, r6
  if ((arp_table[i].state == ETHARP_STATE_PENDING) || (q == NULL)) {
 800785c:	7c9b      	ldrb	r3, [r3, #18]
 800785e:	2b01      	cmp	r3, #1
 8007860:	d000      	beq.n	8007864 <etharp_query+0x60>
 8007862:	b93d      	cbnz	r5, 8007874 <etharp_query+0x70>
    result = etharp_request(netif, ipaddr);
 8007864:	4641      	mov	r1, r8
 8007866:	4638      	mov	r0, r7
 8007868:	f7ff ff4c 	bl	8007704 <etharp_request>
 800786c:	4602      	mov	r2, r0
    if (q == NULL) {
 800786e:	b91d      	cbnz	r5, 8007878 <etharp_query+0x74>
      return result;
 8007870:	4604      	mov	r4, r0
 8007872:	e7e6      	b.n	8007842 <etharp_query+0x3e>
  err_t result = ERR_MEM;
 8007874:	f04f 32ff 	mov.w	r2, #4294967295
  if (arp_table[i].state >= ETHARP_STATE_STABLE) {
 8007878:	2314      	movs	r3, #20
 800787a:	fb03 6104 	mla	r1, r3, r4, r6
 800787e:	7c89      	ldrb	r1, [r1, #18]
 8007880:	2901      	cmp	r1, #1
 8007882:	d90d      	bls.n	80078a0 <etharp_query+0x9c>
    ETHARP_SET_HINT(netif, i);
 8007884:	4a23      	ldr	r2, [pc, #140]	; (8007914 <etharp_query+0x110>)
 8007886:	7014      	strb	r4, [r2, #0]
    result = etharp_send_ip(netif, q, srcaddr, &(arp_table[i].ethaddr));
 8007888:	220c      	movs	r2, #12
 800788a:	fb13 2304 	smlabb	r3, r3, r4, r2
 800788e:	4433      	add	r3, r6
 8007890:	f107 0223 	add.w	r2, r7, #35	; 0x23
 8007894:	4629      	mov	r1, r5
 8007896:	4638      	mov	r0, r7
}
 8007898:	e8bd 41f0 	ldmia.w	sp!, {r4, r5, r6, r7, r8, lr}
    result = etharp_send_ip(netif, q, srcaddr, &(arp_table[i].ethaddr));
 800789c:	f7ff beb6 	b.w	800760c <etharp_send_ip>
  } else if (arp_table[i].state == ETHARP_STATE_PENDING) {
 80078a0:	d11b      	bne.n	80078da <etharp_query+0xd6>
 80078a2:	462b      	mov	r3, r5
    while (p) {
 80078a4:	b98b      	cbnz	r3, 80078ca <etharp_query+0xc6>
      pbuf_ref(p);
 80078a6:	4628      	mov	r0, r5
 80078a8:	f7fd f9ec 	bl	8004c84 <pbuf_ref>
    if (p != NULL) {
 80078ac:	b335      	cbz	r5, 80078fc <etharp_query+0xf8>
 80078ae:	462f      	mov	r7, r5
      if (arp_table[i].q != NULL) {
 80078b0:	2314      	movs	r3, #20
 80078b2:	fb03 f204 	mul.w	r2, r3, r4
 80078b6:	461d      	mov	r5, r3
 80078b8:	58b0      	ldr	r0, [r6, r2]
 80078ba:	b108      	cbz	r0, 80078c0 <etharp_query+0xbc>
        pbuf_free(arp_table[i].q);
 80078bc:	f7fd f901 	bl	8004ac2 <pbuf_free>
      arp_table[i].q = p;
 80078c0:	fb05 f304 	mul.w	r3, r5, r4
      result = ERR_OK;
 80078c4:	2400      	movs	r4, #0
      arp_table[i].q = p;
 80078c6:	50f7      	str	r7, [r6, r3]
 80078c8:	e7bb      	b.n	8007842 <etharp_query+0x3e>
      if(p->type != PBUF_ROM) {
 80078ca:	7b1a      	ldrb	r2, [r3, #12]
 80078cc:	2a01      	cmp	r2, #1
 80078ce:	d106      	bne.n	80078de <etharp_query+0xda>
      p = p->next;
 80078d0:	681b      	ldr	r3, [r3, #0]
 80078d2:	e7e7      	b.n	80078a4 <etharp_query+0xa0>
    return ERR_ARG;
 80078d4:	f06f 040d 	mvn.w	r4, #13
 80078d8:	e7b3      	b.n	8007842 <etharp_query+0x3e>
 80078da:	4614      	mov	r4, r2
 80078dc:	e7b1      	b.n	8007842 <etharp_query+0x3e>
      p = pbuf_alloc(PBUF_RAW, p->tot_len, PBUF_RAM);
 80078de:	2200      	movs	r2, #0
 80078e0:	8919      	ldrh	r1, [r3, #8]
 80078e2:	2003      	movs	r0, #3
 80078e4:	f7fd f914 	bl	8004b10 <pbuf_alloc>
      if(p != NULL) {
 80078e8:	4607      	mov	r7, r0
 80078ea:	b138      	cbz	r0, 80078fc <etharp_query+0xf8>
        if (pbuf_copy(p, q) != ERR_OK) {
 80078ec:	4629      	mov	r1, r5
 80078ee:	f7fd f9e4 	bl	8004cba <pbuf_copy>
 80078f2:	2800      	cmp	r0, #0
 80078f4:	d0dc      	beq.n	80078b0 <etharp_query+0xac>
          pbuf_free(p);
 80078f6:	4638      	mov	r0, r7
 80078f8:	f7fd f8e3 	bl	8004ac2 <pbuf_free>
      ETHARP_STATS_INC(etharp.memerr);
 80078fc:	4a03      	ldr	r2, [pc, #12]	; (800790c <etharp_query+0x108>)
 80078fe:	8c93      	ldrh	r3, [r2, #36]	; 0x24
 8007900:	3301      	adds	r3, #1
 8007902:	8493      	strh	r3, [r2, #36]	; 0x24
      result = ERR_MEM;
 8007904:	f04f 34ff 	mov.w	r4, #4294967295
 8007908:	e79b      	b.n	8007842 <etharp_query+0x3e>
 800790a:	bf00      	nop
 800790c:	2000aaca 	.word	0x2000aaca
 8007910:	200071d0 	.word	0x200071d0
 8007914:	20007298 	.word	0x20007298

08007918 <etharp_output>:
{
 8007918:	b5f7      	push	{r0, r1, r2, r4, r5, r6, r7, lr}
 800791a:	460e      	mov	r6, r1
 800791c:	4604      	mov	r4, r0
  if (pbuf_header(q, sizeof(struct eth_hdr)) != 0) {
 800791e:	210e      	movs	r1, #14
 8007920:	4630      	mov	r0, r6
{
 8007922:	4615      	mov	r5, r2
  if (pbuf_header(q, sizeof(struct eth_hdr)) != 0) {
 8007924:	f7fd f8a2 	bl	8004a6c <pbuf_header>
 8007928:	b138      	cbz	r0, 800793a <etharp_output+0x22>
    LINK_STATS_INC(link.lenerr);
 800792a:	4a37      	ldr	r2, [pc, #220]	; (8007a08 <etharp_output+0xf0>)
 800792c:	8953      	ldrh	r3, [r2, #10]
 800792e:	3301      	adds	r3, #1
 8007930:	8153      	strh	r3, [r2, #10]
    return ERR_BUF;
 8007932:	f06f 0001 	mvn.w	r0, #1
}
 8007936:	b003      	add	sp, #12
 8007938:	bdf0      	pop	{r4, r5, r6, r7, pc}
  if (ip_addr_isbroadcast(ipaddr, netif)) {
 800793a:	4621      	mov	r1, r4
 800793c:	6828      	ldr	r0, [r5, #0]
 800793e:	f7fc fb21 	bl	8003f84 <ip4_addr_isbroadcast>
 8007942:	2800      	cmp	r0, #0
 8007944:	d15b      	bne.n	80079fe <etharp_output+0xe6>
  } else if (ip_addr_ismulticast(ipaddr)) {
 8007946:	682b      	ldr	r3, [r5, #0]
 8007948:	f003 02f0 	and.w	r2, r3, #240	; 0xf0
 800794c:	2ae0      	cmp	r2, #224	; 0xe0
 800794e:	d11a      	bne.n	8007986 <etharp_output+0x6e>
    mcastaddr.addr[0] = LL_MULTICAST_ADDR_0;
 8007950:	2301      	movs	r3, #1
 8007952:	f88d 3000 	strb.w	r3, [sp]
    mcastaddr.addr[2] = LL_MULTICAST_ADDR_2;
 8007956:	235e      	movs	r3, #94	; 0x5e
 8007958:	f88d 3002 	strb.w	r3, [sp, #2]
    mcastaddr.addr[3] = ip4_addr2(ipaddr) & 0x7f;
 800795c:	786b      	ldrb	r3, [r5, #1]
    mcastaddr.addr[1] = LL_MULTICAST_ADDR_1;
 800795e:	f88d 0001 	strb.w	r0, [sp, #1]
    mcastaddr.addr[3] = ip4_addr2(ipaddr) & 0x7f;
 8007962:	f003 037f 	and.w	r3, r3, #127	; 0x7f
 8007966:	f88d 3003 	strb.w	r3, [sp, #3]
    mcastaddr.addr[4] = ip4_addr3(ipaddr);
 800796a:	78ab      	ldrb	r3, [r5, #2]
 800796c:	f88d 3004 	strb.w	r3, [sp, #4]
    mcastaddr.addr[5] = ip4_addr4(ipaddr);
 8007970:	78eb      	ldrb	r3, [r5, #3]
 8007972:	f88d 3005 	strb.w	r3, [sp, #5]
    dest = &mcastaddr;
 8007976:	466b      	mov	r3, sp
  return etharp_send_ip(netif, q, (struct eth_addr*)(netif->hwaddr), dest);
 8007978:	f104 0223 	add.w	r2, r4, #35	; 0x23
 800797c:	4631      	mov	r1, r6
 800797e:	4620      	mov	r0, r4
 8007980:	f7ff fe44 	bl	800760c <etharp_send_ip>
 8007984:	e7d7      	b.n	8007936 <etharp_output+0x1e>
    if (!ip_addr_netcmp(ipaddr, &(netif->ip_addr), &(netif->netmask)) &&
 8007986:	6862      	ldr	r2, [r4, #4]
 8007988:	68a1      	ldr	r1, [r4, #8]
 800798a:	405a      	eors	r2, r3
 800798c:	420a      	tst	r2, r1
 800798e:	d008      	beq.n	80079a2 <etharp_output+0x8a>
        !ip_addr_islinklocal(ipaddr)) {
 8007990:	b29b      	uxth	r3, r3
    if (!ip_addr_netcmp(ipaddr, &(netif->ip_addr), &(netif->netmask)) &&
 8007992:	f64f 62a9 	movw	r2, #65193	; 0xfea9
 8007996:	4293      	cmp	r3, r2
 8007998:	d003      	beq.n	80079a2 <etharp_output+0x8a>
        if (!ip_addr_isany(&netif->gw)) {
 800799a:	68e3      	ldr	r3, [r4, #12]
 800799c:	f104 050c 	add.w	r5, r4, #12
 80079a0:	b37b      	cbz	r3, 8007a02 <etharp_output+0xea>
        if ((arp_table[etharp_cached_entry].state >= ETHARP_STATE_STABLE) &&
 80079a2:	4b1a      	ldr	r3, [pc, #104]	; (8007a0c <etharp_output+0xf4>)
 80079a4:	491a      	ldr	r1, [pc, #104]	; (8007a10 <etharp_output+0xf8>)
 80079a6:	781a      	ldrb	r2, [r3, #0]
 80079a8:	2014      	movs	r0, #20
 80079aa:	fb00 1002 	mla	r0, r0, r2, r1
 80079ae:	7c81      	ldrb	r1, [r0, #18]
 80079b0:	2901      	cmp	r1, #1
 80079b2:	4619      	mov	r1, r3
 80079b4:	d90c      	bls.n	80079d0 <etharp_output+0xb8>
 80079b6:	682f      	ldr	r7, [r5, #0]
 80079b8:	6843      	ldr	r3, [r0, #4]
 80079ba:	429f      	cmp	r7, r3
 80079bc:	d108      	bne.n	80079d0 <etharp_output+0xb8>
          ETHARP_STATS_INC(etharp.cachehit);
 80079be:	4912      	ldr	r1, [pc, #72]	; (8007a08 <etharp_output+0xf0>)
 80079c0:	8dcb      	ldrh	r3, [r1, #46]	; 0x2e
 80079c2:	3301      	adds	r3, #1
 80079c4:	85cb      	strh	r3, [r1, #46]	; 0x2e
        return etharp_output_to_arp_index(netif, q, i);
 80079c6:	4631      	mov	r1, r6
 80079c8:	4620      	mov	r0, r4
 80079ca:	f7ff fef3 	bl	80077b4 <etharp_output_to_arp_index>
 80079ce:	e7b2      	b.n	8007936 <etharp_output+0x1e>
 80079d0:	4b0f      	ldr	r3, [pc, #60]	; (8007a10 <etharp_output+0xf8>)
{
 80079d2:	2200      	movs	r2, #0
      if ((arp_table[i].state >= ETHARP_STATE_STABLE) &&
 80079d4:	7c98      	ldrb	r0, [r3, #18]
 80079d6:	2801      	cmp	r0, #1
 80079d8:	d906      	bls.n	80079e8 <etharp_output+0xd0>
 80079da:	682f      	ldr	r7, [r5, #0]
 80079dc:	6858      	ldr	r0, [r3, #4]
 80079de:	4287      	cmp	r7, r0
 80079e0:	d102      	bne.n	80079e8 <etharp_output+0xd0>
        ETHARP_SET_HINT(netif, i);
 80079e2:	b2d2      	uxtb	r2, r2
 80079e4:	700a      	strb	r2, [r1, #0]
 80079e6:	e7ee      	b.n	80079c6 <etharp_output+0xae>
 80079e8:	3201      	adds	r2, #1
    for (i = 0; i < ARP_TABLE_SIZE; i++) {
 80079ea:	2a0a      	cmp	r2, #10
 80079ec:	f103 0314 	add.w	r3, r3, #20
 80079f0:	d1f0      	bne.n	80079d4 <etharp_output+0xbc>
    return etharp_query(netif, dst_addr, q);
 80079f2:	4632      	mov	r2, r6
 80079f4:	4629      	mov	r1, r5
 80079f6:	4620      	mov	r0, r4
 80079f8:	f7ff ff04 	bl	8007804 <etharp_query>
 80079fc:	e79b      	b.n	8007936 <etharp_output+0x1e>
    dest = (struct eth_addr *)&ethbroadcast;
 80079fe:	4b05      	ldr	r3, [pc, #20]	; (8007a14 <etharp_output+0xfc>)
 8007a00:	e7ba      	b.n	8007978 <etharp_output+0x60>
          return ERR_RTE;
 8007a02:	f06f 0003 	mvn.w	r0, #3
 8007a06:	e796      	b.n	8007936 <etharp_output+0x1e>
 8007a08:	2000aaca 	.word	0x2000aaca
 8007a0c:	20007298 	.word	0x20007298
 8007a10:	200071d0 	.word	0x200071d0
 8007a14:	08007da8 	.word	0x08007da8

08007a18 <ethernet_input>:
 * @param p the recevied packet, p->payload pointing to the ethernet header
 * @param netif the network interface on which the packet was received
 */
err_t
ethernet_input(struct pbuf *p, struct netif *netif)
{
 8007a18:	e92d 43f7 	stmdb	sp!, {r0, r1, r2, r4, r5, r6, r7, r8, r9, lr}
  u16_t type;
#if LWIP_ARP || ETHARP_SUPPORT_VLAN
  s16_t ip_hdr_offset = SIZEOF_ETH_HDR;
#endif /* LWIP_ARP || ETHARP_SUPPORT_VLAN */

  if (p->len <= SIZEOF_ETH_HDR) {
 8007a1c:	8946      	ldrh	r6, [r0, #10]
 8007a1e:	2e0e      	cmp	r6, #14
{
 8007a20:	4605      	mov	r5, r0
 8007a22:	460f      	mov	r7, r1
  if (p->len <= SIZEOF_ETH_HDR) {
 8007a24:	d807      	bhi.n	8007a36 <ethernet_input+0x1e>
      pppoe_data_input(netif, p);
      break;
#endif /* PPPOE_SUPPORT */

    default:
      ETHARP_STATS_INC(etharp.proterr);
 8007a26:	4b58      	ldr	r3, [pc, #352]	; (8007b88 <ethernet_input+0x170>)
 8007a28:	8d1a      	ldrh	r2, [r3, #40]	; 0x28
 8007a2a:	3201      	adds	r2, #1
 8007a2c:	851a      	strh	r2, [r3, #40]	; 0x28
      ETHARP_STATS_INC(etharp.drop);
 8007a2e:	8bda      	ldrh	r2, [r3, #30]
 8007a30:	3201      	adds	r2, #1
 8007a32:	83da      	strh	r2, [r3, #30]
      goto free_and_return;
 8007a34:	e023      	b.n	8007a7e <ethernet_input+0x66>
  ethhdr = (struct eth_hdr *)p->payload;
 8007a36:	6844      	ldr	r4, [r0, #4]
  if (ethhdr->dest.addr[0] & 1) {
 8007a38:	7823      	ldrb	r3, [r4, #0]
  type = ethhdr->type;
 8007a3a:	f8b4 800c 	ldrh.w	r8, [r4, #12]
  if (ethhdr->dest.addr[0] & 1) {
 8007a3e:	07da      	lsls	r2, r3, #31
 8007a40:	d50a      	bpl.n	8007a58 <ethernet_input+0x40>
    if (ethhdr->dest.addr[0] == LL_MULTICAST_ADDR_0) {
 8007a42:	2b01      	cmp	r3, #1
 8007a44:	d11f      	bne.n	8007a86 <ethernet_input+0x6e>
      if ((ethhdr->dest.addr[1] == LL_MULTICAST_ADDR_1) &&
 8007a46:	7863      	ldrb	r3, [r4, #1]
 8007a48:	b933      	cbnz	r3, 8007a58 <ethernet_input+0x40>
 8007a4a:	78a3      	ldrb	r3, [r4, #2]
 8007a4c:	2b5e      	cmp	r3, #94	; 0x5e
 8007a4e:	d103      	bne.n	8007a58 <ethernet_input+0x40>
        p->flags |= PBUF_FLAG_LLMCAST;
 8007a50:	7b43      	ldrb	r3, [r0, #13]
 8007a52:	f043 0310 	orr.w	r3, r3, #16
      p->flags |= PBUF_FLAG_LLBCAST;
 8007a56:	736b      	strb	r3, [r5, #13]
  switch (type) {
 8007a58:	f1b8 0f08 	cmp.w	r8, #8
 8007a5c:	d01e      	beq.n	8007a9c <ethernet_input+0x84>
 8007a5e:	f5b8 6fc1 	cmp.w	r8, #1544	; 0x608
 8007a62:	d1e0      	bne.n	8007a26 <ethernet_input+0xe>
      if (!(netif->flags & NETIF_FLAG_ETHARP)) {
 8007a64:	f897 3029 	ldrb.w	r3, [r7, #41]	; 0x29
 8007a68:	0699      	lsls	r1, r3, #26
 8007a6a:	d508      	bpl.n	8007a7e <ethernet_input+0x66>
  if (p->len < SIZEOF_ETHARP_PACKET) {
 8007a6c:	2e29      	cmp	r6, #41	; 0x29
 8007a6e:	4e46      	ldr	r6, [pc, #280]	; (8007b88 <ethernet_input+0x170>)
 8007a70:	d827      	bhi.n	8007ac2 <ethernet_input+0xaa>
    ETHARP_STATS_INC(etharp.lenerr);
 8007a72:	8c73      	ldrh	r3, [r6, #34]	; 0x22
 8007a74:	3301      	adds	r3, #1
 8007a76:	8473      	strh	r3, [r6, #34]	; 0x22
    ETHARP_STATS_INC(etharp.drop);
 8007a78:	8bf3      	ldrh	r3, [r6, #30]
 8007a7a:	3301      	adds	r3, #1
 8007a7c:	83f3      	strh	r3, [r6, #30]
  /* This means the pbuf is freed or consumed,
     so the caller doesn't have to free it again */
  return ERR_OK;

free_and_return:
  pbuf_free(p);
 8007a7e:	4628      	mov	r0, r5
 8007a80:	f7fd f81f 	bl	8004ac2 <pbuf_free>
  return ERR_OK;
 8007a84:	e019      	b.n	8007aba <ethernet_input+0xa2>
    } else if (eth_addr_cmp(&ethhdr->dest, &ethbroadcast)) {
 8007a86:	2206      	movs	r2, #6
 8007a88:	4940      	ldr	r1, [pc, #256]	; (8007b8c <ethernet_input+0x174>)
 8007a8a:	4620      	mov	r0, r4
 8007a8c:	f000 f8ce 	bl	8007c2c <memcmp>
 8007a90:	2800      	cmp	r0, #0
 8007a92:	d1e1      	bne.n	8007a58 <ethernet_input+0x40>
      p->flags |= PBUF_FLAG_LLBCAST;
 8007a94:	7b6b      	ldrb	r3, [r5, #13]
 8007a96:	f043 0308 	orr.w	r3, r3, #8
 8007a9a:	e7dc      	b.n	8007a56 <ethernet_input+0x3e>
      if (!(netif->flags & NETIF_FLAG_ETHARP)) {
 8007a9c:	f897 3029 	ldrb.w	r3, [r7, #41]	; 0x29
 8007aa0:	0698      	lsls	r0, r3, #26
 8007aa2:	d5ec      	bpl.n	8007a7e <ethernet_input+0x66>
      if(pbuf_header(p, -ip_hdr_offset)) {
 8007aa4:	f06f 010d 	mvn.w	r1, #13
 8007aa8:	4628      	mov	r0, r5
 8007aaa:	f7fc ffdf 	bl	8004a6c <pbuf_header>
 8007aae:	2800      	cmp	r0, #0
 8007ab0:	d1e5      	bne.n	8007a7e <ethernet_input+0x66>
        ip_input(p, netif);
 8007ab2:	4639      	mov	r1, r7
 8007ab4:	4628      	mov	r0, r5
 8007ab6:	f7fc f8bd 	bl	8003c34 <ip_input>
}
 8007aba:	2000      	movs	r0, #0
 8007abc:	b003      	add	sp, #12
 8007abe:	e8bd 83f0 	ldmia.w	sp!, {r4, r5, r6, r7, r8, r9, pc}
  if ((hdr->hwtype != PP_HTONS(HWTYPE_ETHERNET)) ||
 8007ac2:	89e3      	ldrh	r3, [r4, #14]
 8007ac4:	f5b3 7f80 	cmp.w	r3, #256	; 0x100
 8007ac8:	d108      	bne.n	8007adc <ethernet_input+0xc4>
 8007aca:	7ca3      	ldrb	r3, [r4, #18]
 8007acc:	2b06      	cmp	r3, #6
 8007ace:	d105      	bne.n	8007adc <ethernet_input+0xc4>
      (hdr->hwlen != ETHARP_HWADDR_LEN) ||
 8007ad0:	7ce3      	ldrb	r3, [r4, #19]
 8007ad2:	2b04      	cmp	r3, #4
 8007ad4:	d102      	bne.n	8007adc <ethernet_input+0xc4>
      (hdr->protolen != sizeof(ip_addr_t)) ||
 8007ad6:	8a23      	ldrh	r3, [r4, #16]
 8007ad8:	2b08      	cmp	r3, #8
 8007ada:	d003      	beq.n	8007ae4 <ethernet_input+0xcc>
    ETHARP_STATS_INC(etharp.proterr);
 8007adc:	8d33      	ldrh	r3, [r6, #40]	; 0x28
 8007ade:	3301      	adds	r3, #1
 8007ae0:	8533      	strh	r3, [r6, #40]	; 0x28
 8007ae2:	e7c9      	b.n	8007a78 <ethernet_input+0x60>
  ETHARP_STATS_INC(etharp.recv);
 8007ae4:	8b73      	ldrh	r3, [r6, #26]
  IPADDR2_COPY(&dipaddr, &hdr->dipaddr);
 8007ae6:	f8d4 8026 	ldr.w	r8, [r4, #38]	; 0x26
  ETHARP_STATS_INC(etharp.recv);
 8007aea:	3301      	adds	r3, #1
 8007aec:	8373      	strh	r3, [r6, #26]
  IPADDR2_COPY(&sipaddr, &hdr->sipaddr);
 8007aee:	69e3      	ldr	r3, [r4, #28]
 8007af0:	9301      	str	r3, [sp, #4]
  if (ip_addr_isany(&netif->ip_addr)) {
 8007af2:	687b      	ldr	r3, [r7, #4]
 8007af4:	b1e3      	cbz	r3, 8007b30 <ethernet_input+0x118>
    for_us = (u8_t)ip_addr_cmp(&dipaddr, &(netif->ip_addr));
 8007af6:	eba8 0203 	sub.w	r2, r8, r3
 8007afa:	f1d2 0800 	rsbs	r8, r2, #0
 8007afe:	eb48 0802 	adc.w	r8, r8, r2
  etharp_update_arp_entry(netif, &sipaddr, &(hdr->shwaddr),
 8007b02:	f1b8 0f00 	cmp.w	r8, #0
 8007b06:	f104 0916 	add.w	r9, r4, #22
 8007b0a:	bf14      	ite	ne
 8007b0c:	2301      	movne	r3, #1
 8007b0e:	2302      	moveq	r3, #2
 8007b10:	464a      	mov	r2, r9
 8007b12:	a901      	add	r1, sp, #4
 8007b14:	4638      	mov	r0, r7
 8007b16:	f7ff fd8b 	bl	8007630 <etharp_update_arp_entry>
  switch (hdr->opcode) {
 8007b1a:	8aa3      	ldrh	r3, [r4, #20]
 8007b1c:	f5b3 7f80 	cmp.w	r3, #256	; 0x100
 8007b20:	d008      	beq.n	8007b34 <ethernet_input+0x11c>
 8007b22:	f5b3 7f00 	cmp.w	r3, #512	; 0x200
 8007b26:	d0aa      	beq.n	8007a7e <ethernet_input+0x66>
    ETHARP_STATS_INC(etharp.err);
 8007b28:	8db3      	ldrh	r3, [r6, #44]	; 0x2c
 8007b2a:	3301      	adds	r3, #1
 8007b2c:	85b3      	strh	r3, [r6, #44]	; 0x2c
 8007b2e:	e7a6      	b.n	8007a7e <ethernet_input+0x66>
  if (ip_addr_isany(&netif->ip_addr)) {
 8007b30:	4698      	mov	r8, r3
 8007b32:	e7e6      	b.n	8007b02 <ethernet_input+0xea>
    if (for_us) {
 8007b34:	f1b8 0f00 	cmp.w	r8, #0
 8007b38:	d0a1      	beq.n	8007a7e <ethernet_input+0x66>
      hdr->opcode = htons(ARP_REPLY);
 8007b3a:	2002      	movs	r0, #2
 8007b3c:	f7fb fe76 	bl	800382c <lwip_htons>
      IPADDR2_COPY(&hdr->dipaddr, &hdr->sipaddr);
 8007b40:	69e3      	ldr	r3, [r4, #28]
      hdr->opcode = htons(ARP_REPLY);
 8007b42:	82a0      	strh	r0, [r4, #20]
      IPADDR2_COPY(&hdr->dipaddr, &hdr->sipaddr);
 8007b44:	f8c4 3026 	str.w	r3, [r4, #38]	; 0x26
      IPADDR2_COPY(&hdr->sipaddr, &netif->ip_addr);
 8007b48:	687b      	ldr	r3, [r7, #4]
 8007b4a:	61e3      	str	r3, [r4, #28]
      ETHADDR16_COPY(&hdr->dhwaddr, &hdr->shwaddr);
 8007b4c:	f8d9 3000 	ldr.w	r3, [r9]
 8007b50:	6223      	str	r3, [r4, #32]
 8007b52:	f8b9 3004 	ldrh.w	r3, [r9, #4]
 8007b56:	84a3      	strh	r3, [r4, #36]	; 0x24
      ETHADDR16_COPY(&ethhdr->dest, &hdr->shwaddr);
 8007b58:	f8d9 3000 	ldr.w	r3, [r9]
 8007b5c:	6023      	str	r3, [r4, #0]
 8007b5e:	f8b9 3004 	ldrh.w	r3, [r9, #4]
 8007b62:	80a3      	strh	r3, [r4, #4]
      etharp_arp_input(netif, (struct eth_addr*)(netif->hwaddr), p);
 8007b64:	463e      	mov	r6, r7
      netif->linkoutput(netif, p);
 8007b66:	4629      	mov	r1, r5
      ETHADDR16_COPY(&hdr->shwaddr, ethaddr);
 8007b68:	f856 3f23 	ldr.w	r3, [r6, #35]!
 8007b6c:	f8c4 3016 	str.w	r3, [r4, #22]
 8007b70:	88b3      	ldrh	r3, [r6, #4]
 8007b72:	f8a9 3004 	strh.w	r3, [r9, #4]
      ETHADDR16_COPY(&ethhdr->src, ethaddr);
 8007b76:	6833      	ldr	r3, [r6, #0]
 8007b78:	f8c4 3006 	str.w	r3, [r4, #6]
 8007b7c:	88b3      	ldrh	r3, [r6, #4]
 8007b7e:	8163      	strh	r3, [r4, #10]
      netif->linkoutput(netif, p);
 8007b80:	69bb      	ldr	r3, [r7, #24]
 8007b82:	4638      	mov	r0, r7
 8007b84:	4798      	blx	r3
 8007b86:	e77a      	b.n	8007a7e <ethernet_input+0x66>
 8007b88:	2000aaca 	.word	0x2000aaca
 8007b8c:	08007da8 	.word	0x08007da8

08007b90 <Reset_Handler>:

    .section  .text.Reset_Handler
  .weak  Reset_Handler
  .type  Reset_Handler, %function
Reset_Handler:  
  ldr   sp, =_estack    		 /* set stack pointer */
 8007b90:	f8df d034 	ldr.w	sp, [pc, #52]	; 8007bc8 <LoopFillZerobss+0x14>

/* Copy the data segment initializers from flash to SRAM */  
  movs  r1, #0
 8007b94:	2100      	movs	r1, #0
  b  LoopCopyDataInit
 8007b96:	e003      	b.n	8007ba0 <LoopCopyDataInit>

08007b98 <CopyDataInit>:

CopyDataInit:
  ldr  r3, =_sidata
 8007b98:	4b0c      	ldr	r3, [pc, #48]	; (8007bcc <LoopFillZerobss+0x18>)
  ldr  r3, [r3, r1]
 8007b9a:	585b      	ldr	r3, [r3, r1]
  str  r3, [r0, r1]
 8007b9c:	5043      	str	r3, [r0, r1]
  adds  r1, r1, #4
 8007b9e:	3104      	adds	r1, #4

08007ba0 <LoopCopyDataInit>:
    
LoopCopyDataInit:
  ldr  r0, =_sdata
 8007ba0:	480b      	ldr	r0, [pc, #44]	; (8007bd0 <LoopFillZerobss+0x1c>)
  ldr  r3, =_edata
 8007ba2:	4b0c      	ldr	r3, [pc, #48]	; (8007bd4 <LoopFillZerobss+0x20>)
  adds  r2, r0, r1
 8007ba4:	1842      	adds	r2, r0, r1
  cmp  r2, r3
 8007ba6:	429a      	cmp	r2, r3
  bcc  CopyDataInit
 8007ba8:	d3f6      	bcc.n	8007b98 <CopyDataInit>
  ldr  r2, =_sbss
 8007baa:	4a0b      	ldr	r2, [pc, #44]	; (8007bd8 <LoopFillZerobss+0x24>)
  b  LoopFillZerobss
 8007bac:	e002      	b.n	8007bb4 <LoopFillZerobss>

08007bae <FillZerobss>:
/* Zero fill the bss segment. */  
FillZerobss:
  movs  r3, #0
 8007bae:	2300      	movs	r3, #0
  str  r3, [r2], #4
 8007bb0:	f842 3b04 	str.w	r3, [r2], #4

08007bb4 <LoopFillZerobss>:
    
LoopFillZerobss:
  ldr  r3, = _ebss
 8007bb4:	4b09      	ldr	r3, [pc, #36]	; (8007bdc <LoopFillZerobss+0x28>)
  cmp  r2, r3
 8007bb6:	429a      	cmp	r2, r3
  bcc  FillZerobss
 8007bb8:	d3f9      	bcc.n	8007bae <FillZerobss>

/* Call the clock system intitialization function.*/
  bl  SystemInit   
 8007bba:	f7fb faf1 	bl	80031a0 <SystemInit>
/* Call static constructors */
    bl __libc_init_array
 8007bbe:	f000 f811 	bl	8007be4 <__libc_init_array>
/* Call the application's entry point.*/
  bl  main
 8007bc2:	f7fb fa95 	bl	80030f0 <main>
  bx  lr    
 8007bc6:	4770      	bx	lr
  ldr   sp, =_estack    		 /* set stack pointer */
 8007bc8:	20020000 	.word	0x20020000
  ldr  r3, =_sidata
 8007bcc:	08007dc4 	.word	0x08007dc4
  ldr  r0, =_sdata
 8007bd0:	20000000 	.word	0x20000000
  ldr  r3, =_edata
 8007bd4:	2000014c 	.word	0x2000014c
  ldr  r2, =_sbss
 8007bd8:	20000150 	.word	0x20000150
  ldr  r3, = _ebss
 8007bdc:	2000ac04 	.word	0x2000ac04

08007be0 <ADC_IRQHandler>:
 * @retval None       
*/
    .section  .text.Default_Handler,"ax",%progbits
Default_Handler:
Infinite_Loop:
  b  Infinite_Loop
 8007be0:	e7fe      	b.n	8007be0 <ADC_IRQHandler>
	...

08007be4 <__libc_init_array>:
 8007be4:	b570      	push	{r4, r5, r6, lr}
 8007be6:	4e0d      	ldr	r6, [pc, #52]	; (8007c1c <__libc_init_array+0x38>)
 8007be8:	4c0d      	ldr	r4, [pc, #52]	; (8007c20 <__libc_init_array+0x3c>)
 8007bea:	1ba4      	subs	r4, r4, r6
 8007bec:	10a4      	asrs	r4, r4, #2
 8007bee:	2500      	movs	r5, #0
 8007bf0:	42a5      	cmp	r5, r4
 8007bf2:	d109      	bne.n	8007c08 <__libc_init_array+0x24>
 8007bf4:	4e0b      	ldr	r6, [pc, #44]	; (8007c24 <__libc_init_array+0x40>)
 8007bf6:	4c0c      	ldr	r4, [pc, #48]	; (8007c28 <__libc_init_array+0x44>)
 8007bf8:	f000 f83a 	bl	8007c70 <_init>
 8007bfc:	1ba4      	subs	r4, r4, r6
 8007bfe:	10a4      	asrs	r4, r4, #2
 8007c00:	2500      	movs	r5, #0
 8007c02:	42a5      	cmp	r5, r4
 8007c04:	d105      	bne.n	8007c12 <__libc_init_array+0x2e>
 8007c06:	bd70      	pop	{r4, r5, r6, pc}
 8007c08:	f856 3025 	ldr.w	r3, [r6, r5, lsl #2]
 8007c0c:	4798      	blx	r3
 8007c0e:	3501      	adds	r5, #1
 8007c10:	e7ee      	b.n	8007bf0 <__libc_init_array+0xc>
 8007c12:	f856 3025 	ldr.w	r3, [r6, r5, lsl #2]
 8007c16:	4798      	blx	r3
 8007c18:	3501      	adds	r5, #1
 8007c1a:	e7f2      	b.n	8007c02 <__libc_init_array+0x1e>
 8007c1c:	08007dbc 	.word	0x08007dbc
 8007c20:	08007dbc 	.word	0x08007dbc
 8007c24:	08007dbc 	.word	0x08007dbc
 8007c28:	08007dc0 	.word	0x08007dc0

08007c2c <memcmp>:
 8007c2c:	b510      	push	{r4, lr}
 8007c2e:	3901      	subs	r1, #1
 8007c30:	4402      	add	r2, r0
 8007c32:	4290      	cmp	r0, r2
 8007c34:	d101      	bne.n	8007c3a <memcmp+0xe>
 8007c36:	2000      	movs	r0, #0
 8007c38:	bd10      	pop	{r4, pc}
 8007c3a:	f810 3b01 	ldrb.w	r3, [r0], #1
 8007c3e:	f811 4f01 	ldrb.w	r4, [r1, #1]!
 8007c42:	42a3      	cmp	r3, r4
 8007c44:	d0f5      	beq.n	8007c32 <memcmp+0x6>
 8007c46:	1b18      	subs	r0, r3, r4
 8007c48:	bd10      	pop	{r4, pc}

08007c4a <memcpy>:
 8007c4a:	b510      	push	{r4, lr}
 8007c4c:	1e43      	subs	r3, r0, #1
 8007c4e:	440a      	add	r2, r1
 8007c50:	4291      	cmp	r1, r2
 8007c52:	d100      	bne.n	8007c56 <memcpy+0xc>
 8007c54:	bd10      	pop	{r4, pc}
 8007c56:	f811 4b01 	ldrb.w	r4, [r1], #1
 8007c5a:	f803 4f01 	strb.w	r4, [r3, #1]!
 8007c5e:	e7f7      	b.n	8007c50 <memcpy+0x6>

08007c60 <memset>:
 8007c60:	4402      	add	r2, r0
 8007c62:	4603      	mov	r3, r0
 8007c64:	4293      	cmp	r3, r2
 8007c66:	d100      	bne.n	8007c6a <memset+0xa>
 8007c68:	4770      	bx	lr
 8007c6a:	f803 1b01 	strb.w	r1, [r3], #1
 8007c6e:	e7f9      	b.n	8007c64 <memset+0x4>

08007c70 <_init>:
 8007c70:	b5f8      	push	{r3, r4, r5, r6, r7, lr}
 8007c72:	bf00      	nop
 8007c74:	bcf8      	pop	{r3, r4, r5, r6, r7}
 8007c76:	bc08      	pop	{r3}
 8007c78:	469e      	mov	lr, r3
 8007c7a:	4770      	bx	lr

08007c7c <_fini>:
 8007c7c:	b5f8      	push	{r3, r4, r5, r6, r7, lr}
 8007c7e:	bf00      	nop
 8007c80:	bcf8      	pop	{r3, r4, r5, r6, r7}
 8007c82:	bc08      	pop	{r3}
 8007c84:	469e      	mov	lr, r3
 8007c86:	4770      	bx	lr
